
../../../../../../Cosmos/generated/build/system/CM4/bin/CM4.elf:     file format elf32-littlearm

Sections:
Idx Name          Size      VMA       LMA       File off  Algn
  0 .isr_vector   00000298  08100000  08100000  00020000  2**0
                  CONTENTS, ALLOC, LOAD, READONLY, DATA
  1 .program_default_CM7_section_init 00000000  20001000  20001000  000701fc  2**0
                  CONTENTS
  2 .program_default_CM7_section_noInit 00000000  20001000  20001000  000701fc  2**0
                  CONTENTS
  3 .program_blinking_led_CM7_section_init 00000008  20001400  08100298  00021400  2**2
                  CONTENTS, ALLOC, LOAD, DATA
  4 .program_blinking_led_CM7_section_noInit 00000000  20001408  20001408  000701fc  2**0
                  CONTENTS
  5 .program_default_CM4_section_init 00000000  10001000  10001000  000701fc  2**0
                  CONTENTS
  6 .program_default_CM4_section_noInit 00000000  10001000  10001000  000701fc  2**0
                  CONTENTS
  7 .program_blinking_led_CM4_section_init 00000008  10001400  081002a0  00031400  2**2
                  CONTENTS, ALLOC, LOAD, DATA
  8 .program_blinking_led_CM4_section_noInit 00000000  10001408  10001408  000701fc  2**0
                  CONTENTS
  9 .os_section_consts 00000800  38000000  081002a8  00040000  2**2
                  CONTENTS, ALLOC, LOAD, READONLY, DATA
 10 .os_section_vars 00000400  38008000  08100aa8  00048000  2**2
                  CONTENTS, ALLOC, LOAD, DATA
 11 .os_section_funcs 00003158  08100ea8  08100ea8  00050ea8  2**2
                  CONTENTS, ALLOC, LOAD, READONLY, CODE
 12 .application_section_funcs_CM7 00000184  08080000  08080000  00010000  2**2
                  CONTENTS, ALLOC, LOAD, READONLY, CODE
 13 .application_section_funcs_CM4 000001fc  08180000  08180000  00070000  2**2
                  CONTENTS, ALLOC, LOAD, READONLY, CODE
 14 .text         00002a48  08104000  08104000  00054000  2**2
                  CONTENTS, ALLOC, LOAD, READONLY, CODE
 15 .rodata       00000068  08106a48  08106a48  00056a48  2**2
                  CONTENTS, ALLOC, LOAD, READONLY, DATA
 16 .ARM.extab    00000030  08106ab0  08106ab0  00056ab0  2**2
                  CONTENTS, ALLOC, LOAD, READONLY, DATA
 17 .ARM          000000d8  08106ae0  08106ae0  00056ae0  2**2
                  CONTENTS, ALLOC, LOAD, READONLY, DATA
 18 .init_array   00000004  08106bb8  08106bb8  00056bb8  2**2
                  CONTENTS, ALLOC, LOAD, DATA
 19 .fini_array   00000004  08106bbc  08106bbc  00056bbc  2**2
                  CONTENTS, ALLOC, LOAD, DATA
 20 .data         00000074  10001800  08106bc0  00061800  2**2
                  CONTENTS, ALLOC, LOAD, DATA
 21 .bss          0000008c  10001874  08106c34  00061874  2**2
                  ALLOC
 22 .ARM.attributes 0000002e  00000000  00000000  000701fc  2**0
                  CONTENTS, READONLY
 23 .debug_line   000256c5  00000000  00000000  0007022a  2**0
                  CONTENTS, READONLY, DEBUGGING
 24 .debug_info   00038cd0  00000000  00000000  000958ef  2**0
                  CONTENTS, READONLY, DEBUGGING
 25 .debug_abbrev 00007621  00000000  00000000  000ce5bf  2**0
                  CONTENTS, READONLY, DEBUGGING
 26 .debug_aranges 00001528  00000000  00000000  000d5be0  2**3
                  CONTENTS, READONLY, DEBUGGING
 27 .debug_str    00191f5f  00000000  00000000  000d7108  2**0
                  CONTENTS, READONLY, DEBUGGING
 28 .debug_ranges 000010b0  00000000  00000000  00269068  2**3
                  CONTENTS, READONLY, DEBUGGING
 29 .debug_macro  000441e5  00000000  00000000  0026a118  2**0
                  CONTENTS, READONLY, DEBUGGING
 30 .comment      00000079  00000000  00000000  002ae2fd  2**0
                  CONTENTS, READONLY
 31 .debug_frame  00004664  00000000  00000000  002ae378  2**2
                  CONTENTS, READONLY, DEBUGGING
 32 .stabstr      00000076  00000000  00000000  002b29dc  2**0
                  CONTENTS, READONLY, DEBUGGING

Disassembly of section .os_section_funcs:

08100ea8 <buffer_readArray>:
********************************************************************************/
/* @cond S */
__SEC_START(__OS_FUNC_SECTION_START)
/* @endcond*/
__OS_FUNC_SECTION CosmOS_BufferStateType buffer_readArray(BitWidthType id, void * buffer, BitWidthType size)
{
 8100ea8:	b580      	push	{r7, lr}
 8100eaa:	b098      	sub	sp, #96	; 0x60
 8100eac:	af00      	add	r7, sp, #0
 8100eae:	60f8      	str	r0, [r7, #12]
 8100eb0:	60b9      	str	r1, [r7, #8]
 8100eb2:	607a      	str	r2, [r7, #4]

	CosmOS_OsVariableType * osVar;
	CosmOS_CoreVariableType * coreVar;


    osVar = os_getOsVar();
 8100eb4:	f000 fbde 	bl	8101674 <os_getOsVar>
 8100eb8:	64f8      	str	r0, [r7, #76]	; 0x4c
  * @return CosmOS_CoreVariableType *
********************************************************************************/
__STATIC_FORCEINLINE CosmOS_CoreVariableType * CILcore_getCoreVar(void)
{
    uint32_t result;
    __asm volatile ("MOV %[resultVariable], R9":  [resultVariable] "=r" (result) );
 8100eba:	464b      	mov	r3, r9
 8100ebc:	62bb      	str	r3, [r7, #40]	; 0x28
    return (CosmOS_CoreVariableType *)result;
 8100ebe:	6abb      	ldr	r3, [r7, #40]	; 0x28
    coreVar = CILcore_getCoreVar();
 8100ec0:	64bb      	str	r3, [r7, #72]	; 0x48

	isMemoryRegionProtected = memoryProtection_isMemoryRegionProtected( coreVar, buffer, size );
 8100ec2:	687a      	ldr	r2, [r7, #4]
 8100ec4:	68b9      	ldr	r1, [r7, #8]
 8100ec6:	6cb8      	ldr	r0, [r7, #72]	; 0x48
 8100ec8:	f000 fb84 	bl	81015d4 <memoryProtection_isMemoryRegionProtected>
 8100ecc:	4603      	mov	r3, r0
 8100ece:	f887 3047 	strb.w	r3, [r7, #71]	; 0x47

    if ( isMemoryRegionProtected )
 8100ed2:	f897 3047 	ldrb.w	r3, [r7, #71]	; 0x47
 8100ed6:	2b00      	cmp	r3, #0
 8100ed8:	d003      	beq.n	8100ee2 <buffer_readArray+0x3a>
    {
        bufferState = BUFFER_STATE_ENUM__ERROR_INPUT_ARRAY_IS_PROTECTED;
 8100eda:	2305      	movs	r3, #5
 8100edc:	f887 305f 	strb.w	r3, [r7, #95]	; 0x5f
 8100ee0:	e06a      	b.n	8100fb8 <buffer_readArray+0x110>
 8100ee2:	6cfb      	ldr	r3, [r7, #76]	; 0x4c
 8100ee4:	623b      	str	r3, [r7, #32]
 8100ee6:	68fb      	ldr	r3, [r7, #12]
 8100ee8:	61fb      	str	r3, [r7, #28]
  *
  * @return CosmOS_BufferVariableType *
********************************************************************************/
__STATIC_FORCEINLINE CosmOS_BufferVariableType * os_getOsBufferVar(CosmOS_OsVariableType * osVar, BitWidthType bufferId)
{
    return (&(osVar->bufferVars[bufferId]));
 8100eea:	6a3b      	ldr	r3, [r7, #32]
 8100eec:	689a      	ldr	r2, [r3, #8]
 8100eee:	69fb      	ldr	r3, [r7, #28]
 8100ef0:	011b      	lsls	r3, r3, #4
 8100ef2:	4413      	add	r3, r2
        CosmOS_AccessStateType accessState;

        CosmOS_BufferVariableType * bufferVar;
        CosmOS_PermissionsConfigurationType * readPermission;

        bufferVar = os_getOsBufferVar( osVar, id );
 8100ef4:	643b      	str	r3, [r7, #64]	; 0x40
 8100ef6:	6c3b      	ldr	r3, [r7, #64]	; 0x40
 8100ef8:	627b      	str	r3, [r7, #36]	; 0x24
  *
  * @return CosmOS_PermissionsConfigurationType *
********************************************************************************/
__STATIC_FORCEINLINE CosmOS_PermissionsConfigurationType * buffer_getBufferReadPermission(CosmOS_BufferVariableType * bufferVar)
{
    return (CosmOS_PermissionsConfigurationType *)(bufferVar->cfg->readPermission);
 8100efa:	6a7b      	ldr	r3, [r7, #36]	; 0x24
 8100efc:	681b      	ldr	r3, [r3, #0]
 8100efe:	68db      	ldr	r3, [r3, #12]

        readPermission = buffer_getBufferReadPermission( bufferVar );
 8100f00:	63fb      	str	r3, [r7, #60]	; 0x3c
        accessState = permission_tryAccess( readPermission, coreVar );
 8100f02:	6cb9      	ldr	r1, [r7, #72]	; 0x48
 8100f04:	6bf8      	ldr	r0, [r7, #60]	; 0x3c
 8100f06:	f000 fc67 	bl	81017d8 <permission_tryAccess>
 8100f0a:	63b8      	str	r0, [r7, #56]	; 0x38

        if ( accessState IS_EQUAL_TO ACCESS_STATE_ENUM__DENIED )
 8100f0c:	6bbb      	ldr	r3, [r7, #56]	; 0x38
 8100f0e:	f1b3 3faa 	cmp.w	r3, #2863311530	; 0xaaaaaaaa
 8100f12:	d103      	bne.n	8100f1c <buffer_readArray+0x74>
        {
            bufferState = BUFFER_STATE_ENUM__ERROR_ACCESS_DENIED;
 8100f14:	2303      	movs	r3, #3
 8100f16:	f887 305f 	strb.w	r3, [r7, #95]	; 0x5f
 8100f1a:	e04d      	b.n	8100fb8 <buffer_readArray+0x110>
  \details Disables IRQ interrupts by setting the I-bit in the CPSR.
           Can only be executed in Privileged modes.
 */
__STATIC_FORCEINLINE void __disable_irq(void)
{
  __ASM volatile ("cpsid i" : : : "memory");
 8100f1c:	b672      	cpsid	i
}
 8100f1e:	bf00      	nop
  * @return none
********************************************************************************/
__STATIC_FORCEINLINE void CILinterrupt_disableInterrupts(void)
{
		__disable_irq();
}
 8100f20:	bf00      	nop
 8100f22:	6c3b      	ldr	r3, [r7, #64]	; 0x40
 8100f24:	61bb      	str	r3, [r7, #24]
    return (bufferVar->cfg->isInterCore);
 8100f26:	69bb      	ldr	r3, [r7, #24]
 8100f28:	681b      	ldr	r3, [r3, #0]
 8100f2a:	7d1b      	ldrb	r3, [r3, #20]
			CosmOS_AccessStateType isBufferInterCore;
			CosmOS_SpinlockStateType spinlockState;

			CILinterrupt_disableInterrupts();

			isBufferInterCore = buffer_isBufferInterCore( bufferVar );
 8100f2c:	637b      	str	r3, [r7, #52]	; 0x34

			if ( isBufferInterCore )
 8100f2e:	6b7b      	ldr	r3, [r7, #52]	; 0x34
 8100f30:	2b00      	cmp	r3, #0
 8100f32:	d00b      	beq.n	8100f4c <buffer_readArray+0xa4>
 8100f34:	6c3b      	ldr	r3, [r7, #64]	; 0x40
 8100f36:	617b      	str	r3, [r7, #20]
    return (bufferVar->cfg->spinlockId);
 8100f38:	697b      	ldr	r3, [r7, #20]
 8100f3a:	681b      	ldr	r3, [r3, #0]
 8100f3c:	699b      	ldr	r3, [r3, #24]
			{
				spinlockId = buffer_getBufferSpinlockId( bufferVar );
 8100f3e:	65bb      	str	r3, [r7, #88]	; 0x58
				spinlockState = spinlock_trySpinlock( spinlockId );
 8100f40:	6db8      	ldr	r0, [r7, #88]	; 0x58
 8100f42:	f001 f881 	bl	8102048 <spinlock_trySpinlock>
 8100f46:	4603      	mov	r3, r0
 8100f48:	657b      	str	r3, [r7, #84]	; 0x54
 8100f4a:	e001      	b.n	8100f50 <buffer_readArray+0xa8>
			}
			else
			{
				spinlockState = SPINLOCK_STATE_ENUM__SUCCESSFULLY_LOCKED;
 8100f4c:	2302      	movs	r3, #2
 8100f4e:	657b      	str	r3, [r7, #84]	; 0x54
			}

			if ( spinlockState IS_EQUAL_TO SPINLOCK_STATE_ENUM__SUCCESSFULLY_LOCKED )
 8100f50:	6d7b      	ldr	r3, [r7, #84]	; 0x54
 8100f52:	2b02      	cmp	r3, #2
 8100f54:	d12a      	bne.n	8100fac <buffer_readArray+0x104>
 8100f56:	6c3b      	ldr	r3, [r7, #64]	; 0x40
 8100f58:	613b      	str	r3, [r7, #16]
  *
  * @return CosmOS_BufferStateType
********************************************************************************/
__STATIC_FORCEINLINE BitWidthType buffer_getFullCellsNum(CosmOS_BufferVariableType * bufferVar)
{
    return (bufferVar->fullCells);
 8100f5a:	693b      	ldr	r3, [r7, #16]
 8100f5c:	68db      	ldr	r3, [r3, #12]
			{
				fullCellsNum = buffer_getFullCellsNum( bufferVar );
 8100f5e:	633b      	str	r3, [r7, #48]	; 0x30

				if ( fullCellsNum >= size)
 8100f60:	6b3a      	ldr	r2, [r7, #48]	; 0x30
 8100f62:	687b      	ldr	r3, [r7, #4]
 8100f64:	429a      	cmp	r2, r3
 8100f66:	d316      	bcc.n	8100f96 <buffer_readArray+0xee>
					BitWidthType userBufferIndex;

            	    unsigned char * userBuffer;


					userBuffer = buffer;
 8100f68:	68bb      	ldr	r3, [r7, #8]
 8100f6a:	62fb      	str	r3, [r7, #44]	; 0x2c
					userBufferIndex = 0;
 8100f6c:	2300      	movs	r3, #0
 8100f6e:	653b      	str	r3, [r7, #80]	; 0x50

					while ( ( userBufferIndex < size ) )
 8100f70:	e00c      	b.n	8100f8c <buffer_readArray+0xe4>
					{
						bufferState = buffer_pull( bufferVar, ( userBuffer + userBufferIndex ) );
 8100f72:	6afa      	ldr	r2, [r7, #44]	; 0x2c
 8100f74:	6d3b      	ldr	r3, [r7, #80]	; 0x50
 8100f76:	4413      	add	r3, r2
 8100f78:	4619      	mov	r1, r3
 8100f7a:	6c38      	ldr	r0, [r7, #64]	; 0x40
 8100f7c:	f000 f8b5 	bl	81010ea <buffer_pull>
 8100f80:	4603      	mov	r3, r0
 8100f82:	f887 305f 	strb.w	r3, [r7, #95]	; 0x5f
						userBufferIndex++;
 8100f86:	6d3b      	ldr	r3, [r7, #80]	; 0x50
 8100f88:	3301      	adds	r3, #1
 8100f8a:	653b      	str	r3, [r7, #80]	; 0x50
					while ( ( userBufferIndex < size ) )
 8100f8c:	6d3a      	ldr	r2, [r7, #80]	; 0x50
 8100f8e:	687b      	ldr	r3, [r7, #4]
 8100f90:	429a      	cmp	r2, r3
 8100f92:	d3ee      	bcc.n	8100f72 <buffer_readArray+0xca>
 8100f94:	e002      	b.n	8100f9c <buffer_readArray+0xf4>
					}
				}
				else
				{
					bufferState = BUFFER_STATE_ENUM__ERROR_SIZE_BIGGER_THAN_FULL_CELLS_NUM;
 8100f96:	2307      	movs	r3, #7
 8100f98:	f887 305f 	strb.w	r3, [r7, #95]	; 0x5f
				}

				if ( isBufferInterCore )
 8100f9c:	6b7b      	ldr	r3, [r7, #52]	; 0x34
 8100f9e:	2b00      	cmp	r3, #0
 8100fa0:	d007      	beq.n	8100fb2 <buffer_readArray+0x10a>
				{
					spinlockState = spinlock_releaseSpinlock( spinlockId );
 8100fa2:	6db8      	ldr	r0, [r7, #88]	; 0x58
 8100fa4:	f001 f88c 	bl	81020c0 <spinlock_releaseSpinlock>
 8100fa8:	6578      	str	r0, [r7, #84]	; 0x54
 8100faa:	e002      	b.n	8100fb2 <buffer_readArray+0x10a>
				}
			}
			else
			{
				bufferState = BUFFER_STATE_ENUM__ERROR_SPINLOCK_NOT_OBTAINED;
 8100fac:	2304      	movs	r3, #4
 8100fae:	f887 305f 	strb.w	r3, [r7, #95]	; 0x5f
  __ASM volatile ("cpsie i" : : : "memory");
 8100fb2:	b662      	cpsie	i
}
 8100fb4:	bf00      	nop
}
 8100fb6:	bf00      	nop
        }
    }

    /* MEMORY BARRIER HAS TO BE IMPLEMENTED */

    return bufferState;
 8100fb8:	f897 305f 	ldrb.w	r3, [r7, #95]	; 0x5f
}
 8100fbc:	4618      	mov	r0, r3
 8100fbe:	3760      	adds	r7, #96	; 0x60
 8100fc0:	46bd      	mov	sp, r7
 8100fc2:	bd80      	pop	{r7, pc}

08100fc4 <buffer_writeArray>:
********************************************************************************/
/* @cond S */
__SEC_START(__OS_FUNC_SECTION_START)
/* @endcond*/
__OS_FUNC_SECTION CosmOS_BufferStateType buffer_writeArray(BitWidthType id, void * buffer, BitWidthType size)
{
 8100fc4:	b580      	push	{r7, lr}
 8100fc6:	b098      	sub	sp, #96	; 0x60
 8100fc8:	af00      	add	r7, sp, #0
 8100fca:	60f8      	str	r0, [r7, #12]
 8100fcc:	60b9      	str	r1, [r7, #8]
 8100fce:	607a      	str	r2, [r7, #4]

	CosmOS_OsVariableType * osVar;
	CosmOS_CoreVariableType * coreVar;


    osVar = os_getOsVar();
 8100fd0:	f000 fb50 	bl	8101674 <os_getOsVar>
 8100fd4:	64f8      	str	r0, [r7, #76]	; 0x4c
    __asm volatile ("MOV %[resultVariable], R9":  [resultVariable] "=r" (result) );
 8100fd6:	464b      	mov	r3, r9
 8100fd8:	62bb      	str	r3, [r7, #40]	; 0x28
    return (CosmOS_CoreVariableType *)result;
 8100fda:	6abb      	ldr	r3, [r7, #40]	; 0x28
    coreVar = CILcore_getCoreVar();
 8100fdc:	64bb      	str	r3, [r7, #72]	; 0x48

	isMemoryRegionProtected = memoryProtection_isMemoryRegionProtected( coreVar, buffer, size );
 8100fde:	687a      	ldr	r2, [r7, #4]
 8100fe0:	68b9      	ldr	r1, [r7, #8]
 8100fe2:	6cb8      	ldr	r0, [r7, #72]	; 0x48
 8100fe4:	f000 faf6 	bl	81015d4 <memoryProtection_isMemoryRegionProtected>
 8100fe8:	4603      	mov	r3, r0
 8100fea:	f887 3047 	strb.w	r3, [r7, #71]	; 0x47

    if ( isMemoryRegionProtected )
 8100fee:	f897 3047 	ldrb.w	r3, [r7, #71]	; 0x47
 8100ff2:	2b00      	cmp	r3, #0
 8100ff4:	d003      	beq.n	8100ffe <buffer_writeArray+0x3a>
    {
        bufferState = BUFFER_STATE_ENUM__ERROR_INPUT_ARRAY_IS_PROTECTED;
 8100ff6:	2305      	movs	r3, #5
 8100ff8:	f887 305f 	strb.w	r3, [r7, #95]	; 0x5f
 8100ffc:	e06f      	b.n	81010de <buffer_writeArray+0x11a>
 8100ffe:	6cfb      	ldr	r3, [r7, #76]	; 0x4c
 8101000:	623b      	str	r3, [r7, #32]
 8101002:	68fb      	ldr	r3, [r7, #12]
 8101004:	61fb      	str	r3, [r7, #28]
 8101006:	6a3b      	ldr	r3, [r7, #32]
 8101008:	689a      	ldr	r2, [r3, #8]
 810100a:	69fb      	ldr	r3, [r7, #28]
 810100c:	011b      	lsls	r3, r3, #4
 810100e:	4413      	add	r3, r2
        CosmOS_AccessStateType accessState;

        CosmOS_BufferVariableType * bufferVar;
        CosmOS_PermissionsConfigurationType * writePermission;

        bufferVar = os_getOsBufferVar( osVar, id );
 8101010:	643b      	str	r3, [r7, #64]	; 0x40
 8101012:	6c3b      	ldr	r3, [r7, #64]	; 0x40
 8101014:	627b      	str	r3, [r7, #36]	; 0x24
    return (CosmOS_PermissionsConfigurationType *)(bufferVar->cfg->writePermission);
 8101016:	6a7b      	ldr	r3, [r7, #36]	; 0x24
 8101018:	681b      	ldr	r3, [r3, #0]
 810101a:	691b      	ldr	r3, [r3, #16]

        writePermission = buffer_getBufferWritePermission( bufferVar );
 810101c:	63fb      	str	r3, [r7, #60]	; 0x3c
        accessState = permission_tryAccess( writePermission, coreVar );
 810101e:	6cb9      	ldr	r1, [r7, #72]	; 0x48
 8101020:	6bf8      	ldr	r0, [r7, #60]	; 0x3c
 8101022:	f000 fbd9 	bl	81017d8 <permission_tryAccess>
 8101026:	63b8      	str	r0, [r7, #56]	; 0x38

        if ( accessState IS_EQUAL_TO ACCESS_STATE_ENUM__DENIED )
 8101028:	6bbb      	ldr	r3, [r7, #56]	; 0x38
 810102a:	f1b3 3faa 	cmp.w	r3, #2863311530	; 0xaaaaaaaa
 810102e:	d103      	bne.n	8101038 <buffer_writeArray+0x74>
        {
            bufferState = BUFFER_STATE_ENUM__ERROR_ACCESS_DENIED;
 8101030:	2303      	movs	r3, #3
 8101032:	f887 305f 	strb.w	r3, [r7, #95]	; 0x5f
 8101036:	e052      	b.n	81010de <buffer_writeArray+0x11a>
  __ASM volatile ("cpsid i" : : : "memory");
 8101038:	b672      	cpsid	i
}
 810103a:	bf00      	nop
}
 810103c:	bf00      	nop
 810103e:	6c3b      	ldr	r3, [r7, #64]	; 0x40
 8101040:	61bb      	str	r3, [r7, #24]
    return (bufferVar->cfg->isInterCore);
 8101042:	69bb      	ldr	r3, [r7, #24]
 8101044:	681b      	ldr	r3, [r3, #0]
 8101046:	7d1b      	ldrb	r3, [r3, #20]
			CosmOS_AccessStateType isBufferInterCore;
			CosmOS_SpinlockStateType spinlockState;

			CILinterrupt_disableInterrupts();

			isBufferInterCore = buffer_isBufferInterCore( bufferVar );
 8101048:	637b      	str	r3, [r7, #52]	; 0x34

			if ( isBufferInterCore )
 810104a:	6b7b      	ldr	r3, [r7, #52]	; 0x34
 810104c:	2b00      	cmp	r3, #0
 810104e:	d00b      	beq.n	8101068 <buffer_writeArray+0xa4>
 8101050:	6c3b      	ldr	r3, [r7, #64]	; 0x40
 8101052:	617b      	str	r3, [r7, #20]
    return (bufferVar->cfg->spinlockId);
 8101054:	697b      	ldr	r3, [r7, #20]
 8101056:	681b      	ldr	r3, [r3, #0]
 8101058:	699b      	ldr	r3, [r3, #24]
			{
				spinlockId = buffer_getBufferSpinlockId( bufferVar );
 810105a:	65bb      	str	r3, [r7, #88]	; 0x58
				spinlockState = spinlock_trySpinlock( spinlockId );
 810105c:	6db8      	ldr	r0, [r7, #88]	; 0x58
 810105e:	f000 fff3 	bl	8102048 <spinlock_trySpinlock>
 8101062:	4603      	mov	r3, r0
 8101064:	657b      	str	r3, [r7, #84]	; 0x54
 8101066:	e001      	b.n	810106c <buffer_writeArray+0xa8>
			}
			else
			{
				spinlockState = SPINLOCK_STATE_ENUM__SUCCESSFULLY_LOCKED;
 8101068:	2302      	movs	r3, #2
 810106a:	657b      	str	r3, [r7, #84]	; 0x54
			}

			if ( spinlockState IS_EQUAL_TO SPINLOCK_STATE_ENUM__SUCCESSFULLY_LOCKED )
 810106c:	6d7b      	ldr	r3, [r7, #84]	; 0x54
 810106e:	2b02      	cmp	r3, #2
 8101070:	d12f      	bne.n	81010d2 <buffer_writeArray+0x10e>
 8101072:	6c3b      	ldr	r3, [r7, #64]	; 0x40
 8101074:	613b      	str	r3, [r7, #16]
  *
  * @return CosmOS_BufferStateType
********************************************************************************/
__STATIC_FORCEINLINE BitWidthType buffer_getEmptyCellsNum(CosmOS_BufferVariableType * bufferVar)
{
    return ((bufferVar->cfg->size) - (bufferVar->fullCells));
 8101076:	693b      	ldr	r3, [r7, #16]
 8101078:	681b      	ldr	r3, [r3, #0]
 810107a:	689a      	ldr	r2, [r3, #8]
 810107c:	693b      	ldr	r3, [r7, #16]
 810107e:	68db      	ldr	r3, [r3, #12]
 8101080:	1ad3      	subs	r3, r2, r3
			{
				emptyCellsNum = buffer_getEmptyCellsNum( bufferVar );
 8101082:	633b      	str	r3, [r7, #48]	; 0x30

				if ( emptyCellsNum >= size)
 8101084:	6b3a      	ldr	r2, [r7, #48]	; 0x30
 8101086:	687b      	ldr	r3, [r7, #4]
 8101088:	429a      	cmp	r2, r3
 810108a:	d317      	bcc.n	81010bc <buffer_writeArray+0xf8>
					BitWidthType userBufferIndex;

            	    unsigned char * userBuffer;


					userBuffer = buffer;
 810108c:	68bb      	ldr	r3, [r7, #8]
 810108e:	62fb      	str	r3, [r7, #44]	; 0x2c
					userBufferIndex = 0;
 8101090:	2300      	movs	r3, #0
 8101092:	653b      	str	r3, [r7, #80]	; 0x50

					while ( ( userBufferIndex < size ) )
 8101094:	e00d      	b.n	81010b2 <buffer_writeArray+0xee>
					{
            	        bufferState = buffer_push( bufferVar, *( userBuffer + userBufferIndex ) );
 8101096:	6afa      	ldr	r2, [r7, #44]	; 0x2c
 8101098:	6d3b      	ldr	r3, [r7, #80]	; 0x50
 810109a:	4413      	add	r3, r2
 810109c:	781b      	ldrb	r3, [r3, #0]
 810109e:	4619      	mov	r1, r3
 81010a0:	6c38      	ldr	r0, [r7, #64]	; 0x40
 81010a2:	f000 f85c 	bl	810115e <buffer_push>
 81010a6:	4603      	mov	r3, r0
 81010a8:	f887 305f 	strb.w	r3, [r7, #95]	; 0x5f
						userBufferIndex++;
 81010ac:	6d3b      	ldr	r3, [r7, #80]	; 0x50
 81010ae:	3301      	adds	r3, #1
 81010b0:	653b      	str	r3, [r7, #80]	; 0x50
					while ( ( userBufferIndex < size ) )
 81010b2:	6d3a      	ldr	r2, [r7, #80]	; 0x50
 81010b4:	687b      	ldr	r3, [r7, #4]
 81010b6:	429a      	cmp	r2, r3
 81010b8:	d3ed      	bcc.n	8101096 <buffer_writeArray+0xd2>
 81010ba:	e002      	b.n	81010c2 <buffer_writeArray+0xfe>
					}
				}
				else
				{
					bufferState = BUFFER_STATE_ENUM__ERROR_SIZE_BIGGER_THAN_EMPTY_CELLS;
 81010bc:	2306      	movs	r3, #6
 81010be:	f887 305f 	strb.w	r3, [r7, #95]	; 0x5f
				}

				if ( isBufferInterCore )
 81010c2:	6b7b      	ldr	r3, [r7, #52]	; 0x34
 81010c4:	2b00      	cmp	r3, #0
 81010c6:	d007      	beq.n	81010d8 <buffer_writeArray+0x114>
				{
					spinlockState = spinlock_releaseSpinlock( spinlockId );
 81010c8:	6db8      	ldr	r0, [r7, #88]	; 0x58
 81010ca:	f000 fff9 	bl	81020c0 <spinlock_releaseSpinlock>
 81010ce:	6578      	str	r0, [r7, #84]	; 0x54
 81010d0:	e002      	b.n	81010d8 <buffer_writeArray+0x114>
				}
			}
			else
			{
				bufferState = BUFFER_STATE_ENUM__ERROR_SPINLOCK_NOT_OBTAINED;
 81010d2:	2304      	movs	r3, #4
 81010d4:	f887 305f 	strb.w	r3, [r7, #95]	; 0x5f
  __ASM volatile ("cpsie i" : : : "memory");
 81010d8:	b662      	cpsie	i
}
 81010da:	bf00      	nop
}
 81010dc:	bf00      	nop
        }
    }

    /* MEMORY BARRIER HAS TO BE IMPLEMENTED */

    return bufferState;
 81010de:	f897 305f 	ldrb.w	r3, [r7, #95]	; 0x5f
}
 81010e2:	4618      	mov	r0, r3
 81010e4:	3760      	adds	r7, #96	; 0x60
 81010e6:	46bd      	mov	sp, r7
 81010e8:	bd80      	pop	{r7, pc}

081010ea <buffer_pull>:
{
 81010ea:	b480      	push	{r7}
 81010ec:	b089      	sub	sp, #36	; 0x24
 81010ee:	af00      	add	r7, sp, #0
 81010f0:	6078      	str	r0, [r7, #4]
 81010f2:	6039      	str	r1, [r7, #0]
 81010f4:	687b      	ldr	r3, [r7, #4]
 81010f6:	60bb      	str	r3, [r7, #8]
    return (bufferVar->cfg->size);
 81010f8:	68bb      	ldr	r3, [r7, #8]
 81010fa:	681b      	ldr	r3, [r3, #0]
 81010fc:	689b      	ldr	r3, [r3, #8]
    bufferSize = buffer_getBufferSize( bufferVar );
 81010fe:	61fb      	str	r3, [r7, #28]
 8101100:	687b      	ldr	r3, [r7, #4]
 8101102:	60fb      	str	r3, [r7, #12]
    return (unsigned char *)(bufferVar->cfg->buffer);
 8101104:	68fb      	ldr	r3, [r7, #12]
 8101106:	681b      	ldr	r3, [r3, #0]
 8101108:	681b      	ldr	r3, [r3, #0]
    osBuffer = buffer_getBuffer( bufferVar );
 810110a:	61bb      	str	r3, [r7, #24]
    *data = *( osBuffer + bufferVar->tail );
 810110c:	687b      	ldr	r3, [r7, #4]
 810110e:	689b      	ldr	r3, [r3, #8]
 8101110:	69ba      	ldr	r2, [r7, #24]
 8101112:	4413      	add	r3, r2
 8101114:	781a      	ldrb	r2, [r3, #0]
 8101116:	683b      	ldr	r3, [r7, #0]
 8101118:	701a      	strb	r2, [r3, #0]
    bufferVar->fullCells--;
 810111a:	687b      	ldr	r3, [r7, #4]
 810111c:	68db      	ldr	r3, [r3, #12]
 810111e:	1e5a      	subs	r2, r3, #1
 8101120:	687b      	ldr	r3, [r7, #4]
 8101122:	60da      	str	r2, [r3, #12]
    bufferVar->tail = ( ( bufferVar->tail + 1 ) % bufferSize );
 8101124:	687b      	ldr	r3, [r7, #4]
 8101126:	689b      	ldr	r3, [r3, #8]
 8101128:	3301      	adds	r3, #1
 810112a:	69fa      	ldr	r2, [r7, #28]
 810112c:	fbb3 f2f2 	udiv	r2, r3, r2
 8101130:	69f9      	ldr	r1, [r7, #28]
 8101132:	fb01 f202 	mul.w	r2, r1, r2
 8101136:	1a9a      	subs	r2, r3, r2
 8101138:	687b      	ldr	r3, [r7, #4]
 810113a:	609a      	str	r2, [r3, #8]
 810113c:	687b      	ldr	r3, [r7, #4]
 810113e:	613b      	str	r3, [r7, #16]
  *
  * @return CosmOS_BufferStateType
********************************************************************************/
__STATIC_FORCEINLINE CosmOS_BufferStateType buffer_isEmpty(CosmOS_BufferVariableType * bufferVar)
{
    return (IS_NOT(bufferVar->fullCells) ? BUFFER_STATE_ENUM__EMPTY : BUFFER_STATE_ENUM__OK);
 8101140:	693b      	ldr	r3, [r7, #16]
 8101142:	68db      	ldr	r3, [r3, #12]
 8101144:	2b00      	cmp	r3, #0
 8101146:	bf0c      	ite	eq
 8101148:	2301      	moveq	r3, #1
 810114a:	2300      	movne	r3, #0
 810114c:	b2db      	uxtb	r3, r3
    bufferState = buffer_isEmpty( bufferVar );
 810114e:	75fb      	strb	r3, [r7, #23]
    return bufferState;
 8101150:	7dfb      	ldrb	r3, [r7, #23]
}
 8101152:	4618      	mov	r0, r3
 8101154:	3724      	adds	r7, #36	; 0x24
 8101156:	46bd      	mov	sp, r7
 8101158:	f85d 7b04 	ldr.w	r7, [sp], #4
 810115c:	4770      	bx	lr

0810115e <buffer_push>:
{
 810115e:	b480      	push	{r7}
 8101160:	b089      	sub	sp, #36	; 0x24
 8101162:	af00      	add	r7, sp, #0
 8101164:	6078      	str	r0, [r7, #4]
 8101166:	460b      	mov	r3, r1
 8101168:	70fb      	strb	r3, [r7, #3]
 810116a:	687b      	ldr	r3, [r7, #4]
 810116c:	60bb      	str	r3, [r7, #8]
    return (bufferVar->cfg->size);
 810116e:	68bb      	ldr	r3, [r7, #8]
 8101170:	681b      	ldr	r3, [r3, #0]
 8101172:	689b      	ldr	r3, [r3, #8]
    bufferSize = buffer_getBufferSize( bufferVar );
 8101174:	61fb      	str	r3, [r7, #28]
 8101176:	687b      	ldr	r3, [r7, #4]
 8101178:	60fb      	str	r3, [r7, #12]
    return (unsigned char *)(bufferVar->cfg->buffer);
 810117a:	68fb      	ldr	r3, [r7, #12]
 810117c:	681b      	ldr	r3, [r3, #0]
 810117e:	681b      	ldr	r3, [r3, #0]
    osBuffer = buffer_getBuffer( bufferVar );
 8101180:	61bb      	str	r3, [r7, #24]
    *( osBuffer + bufferVar->head ) = data;
 8101182:	687b      	ldr	r3, [r7, #4]
 8101184:	685b      	ldr	r3, [r3, #4]
 8101186:	69ba      	ldr	r2, [r7, #24]
 8101188:	4413      	add	r3, r2
 810118a:	78fa      	ldrb	r2, [r7, #3]
 810118c:	701a      	strb	r2, [r3, #0]
    bufferVar->fullCells++;
 810118e:	687b      	ldr	r3, [r7, #4]
 8101190:	68db      	ldr	r3, [r3, #12]
 8101192:	1c5a      	adds	r2, r3, #1
 8101194:	687b      	ldr	r3, [r7, #4]
 8101196:	60da      	str	r2, [r3, #12]
    bufferVar->head = ( ( bufferVar->head + 1 ) % bufferSize );
 8101198:	687b      	ldr	r3, [r7, #4]
 810119a:	685b      	ldr	r3, [r3, #4]
 810119c:	3301      	adds	r3, #1
 810119e:	69fa      	ldr	r2, [r7, #28]
 81011a0:	fbb3 f2f2 	udiv	r2, r3, r2
 81011a4:	69f9      	ldr	r1, [r7, #28]
 81011a6:	fb01 f202 	mul.w	r2, r1, r2
 81011aa:	1a9a      	subs	r2, r3, r2
 81011ac:	687b      	ldr	r3, [r7, #4]
 81011ae:	605a      	str	r2, [r3, #4]
 81011b0:	687b      	ldr	r3, [r7, #4]
 81011b2:	613b      	str	r3, [r7, #16]
  *
  * @return CosmOS_BufferStateType
********************************************************************************/
__STATIC_FORCEINLINE CosmOS_BufferStateType buffer_isFull(CosmOS_BufferVariableType * bufferVar)
{
    return (IS_NOT((bufferVar->cfg->size) ^ (bufferVar->fullCells)) ? \
 81011b4:	693b      	ldr	r3, [r7, #16]
 81011b6:	681b      	ldr	r3, [r3, #0]
 81011b8:	689a      	ldr	r2, [r3, #8]
 81011ba:	693b      	ldr	r3, [r7, #16]
 81011bc:	68db      	ldr	r3, [r3, #12]
    BUFFER_STATE_ENUM__FULL : BUFFER_STATE_ENUM__OK);
 81011be:	429a      	cmp	r2, r3
 81011c0:	d101      	bne.n	81011c6 <buffer_push+0x68>
 81011c2:	2302      	movs	r3, #2
 81011c4:	e000      	b.n	81011c8 <buffer_push+0x6a>
 81011c6:	2300      	movs	r3, #0
    bufferState = buffer_isFull( bufferVar );
 81011c8:	75fb      	strb	r3, [r7, #23]
    return bufferState;
 81011ca:	7dfb      	ldrb	r3, [r7, #23]
}
 81011cc:	4618      	mov	r0, r3
 81011ce:	3724      	adds	r7, #36	; 0x24
 81011d0:	46bd      	mov	sp, r7
 81011d2:	f85d 7b04 	ldr.w	r7, [sp], #4
 81011d6:	4770      	bx	lr

081011d8 <bufferDouble_readArray>:
********************************************************************************/
/* @cond S */
__SEC_START(__OS_FUNC_SECTION_START)
/* @endcond*/
__OS_FUNC_SECTION CosmOS_BufferStateType bufferDouble_readArray(BitWidthType id, void * buffer, BitWidthType size, CosmOS_BufferDoubleAccessType access)
{
 81011d8:	b580      	push	{r7, lr}
 81011da:	b08e      	sub	sp, #56	; 0x38
 81011dc:	af00      	add	r7, sp, #0
 81011de:	60f8      	str	r0, [r7, #12]
 81011e0:	60b9      	str	r1, [r7, #8]
 81011e2:	607a      	str	r2, [r7, #4]
 81011e4:	70fb      	strb	r3, [r7, #3]
    CosmOS_OsVariableType * osVar;
    CosmOS_BufferVariableType * bufferVar;
    CosmOS_BufferDoubleVariableType * bufferDoubleVar;


    osVar = os_getOsVar();
 81011e6:	f000 fa45 	bl	8101674 <os_getOsVar>
 81011ea:	6338      	str	r0, [r7, #48]	; 0x30
 81011ec:	6b3b      	ldr	r3, [r7, #48]	; 0x30
 81011ee:	623b      	str	r3, [r7, #32]
 81011f0:	68fb      	ldr	r3, [r7, #12]
 81011f2:	61fb      	str	r3, [r7, #28]
  *
  * @return CosmOS_BufferDoubleVariableType *
********************************************************************************/
__STATIC_FORCEINLINE CosmOS_BufferDoubleVariableType * os_getOsBufferDoubleVar(CosmOS_OsVariableType * osVar, BitWidthType bufferDoubleId)
{
    return (&(osVar->bufferDoubleVars[bufferDoubleId]));
 81011f4:	6a3b      	ldr	r3, [r7, #32]
 81011f6:	68d9      	ldr	r1, [r3, #12]
 81011f8:	69fa      	ldr	r2, [r7, #28]
 81011fa:	4613      	mov	r3, r2
 81011fc:	005b      	lsls	r3, r3, #1
 81011fe:	4413      	add	r3, r2
 8101200:	009b      	lsls	r3, r3, #2
 8101202:	440b      	add	r3, r1

    bufferDoubleVar = os_getOsBufferDoubleVar( osVar, id );
 8101204:	62fb      	str	r3, [r7, #44]	; 0x2c

    switch ( access )
 8101206:	78fb      	ldrb	r3, [r7, #3]
 8101208:	2b00      	cmp	r3, #0
 810120a:	d002      	beq.n	8101212 <bufferDouble_readArray+0x3a>
 810120c:	2b01      	cmp	r3, #1
 810120e:	d00b      	beq.n	8101228 <bufferDouble_readArray+0x50>
 8101210:	e015      	b.n	810123e <bufferDouble_readArray+0x66>
 8101212:	6afb      	ldr	r3, [r7, #44]	; 0x2c
 8101214:	61bb      	str	r3, [r7, #24]
  *
  * @return CosmOS_BufferVariableType *
********************************************************************************/
__STATIC_FORCEINLINE CosmOS_BufferVariableType * bufferDouble_getBufferDoubleUserBuffer(CosmOS_BufferDoubleVariableType * bufferDoubleVar)
{
    return (CosmOS_BufferVariableType *)(&(bufferDoubleVar->cfg->bufferPair[bufferDoubleVar->activeUserBufferId]));
 8101216:	69bb      	ldr	r3, [r7, #24]
 8101218:	681b      	ldr	r3, [r3, #0]
 810121a:	681a      	ldr	r2, [r3, #0]
 810121c:	69bb      	ldr	r3, [r7, #24]
 810121e:	689b      	ldr	r3, [r3, #8]
 8101220:	009b      	lsls	r3, r3, #2
 8101222:	4413      	add	r3, r2
    {
        case BUFFER_DOUBLE_ACCESS_ENUM__USER :
        {
            bufferVar = bufferDouble_getBufferDoubleUserBuffer( bufferDoubleVar );
 8101224:	637b      	str	r3, [r7, #52]	; 0x34
            break;
 8101226:	e00d      	b.n	8101244 <bufferDouble_readArray+0x6c>
 8101228:	6afb      	ldr	r3, [r7, #44]	; 0x2c
 810122a:	617b      	str	r3, [r7, #20]
    return (CosmOS_BufferVariableType *)(&(bufferDoubleVar->cfg->bufferPair[bufferDoubleVar->activeKernelBufferId]));
 810122c:	697b      	ldr	r3, [r7, #20]
 810122e:	681b      	ldr	r3, [r3, #0]
 8101230:	681a      	ldr	r2, [r3, #0]
 8101232:	697b      	ldr	r3, [r7, #20]
 8101234:	685b      	ldr	r3, [r3, #4]
 8101236:	009b      	lsls	r3, r3, #2
 8101238:	4413      	add	r3, r2
        }

        case BUFFER_DOUBLE_ACCESS_ENUM__KERNEL :
        {
            bufferVar = bufferDouble_getBufferDoubleKernelBuffer( bufferDoubleVar );
 810123a:	637b      	str	r3, [r7, #52]	; 0x34
            break;
 810123c:	e002      	b.n	8101244 <bufferDouble_readArray+0x6c>
        }

        default :
        {
            os_kernelPanic();
 810123e:	f000 fa23 	bl	8101688 <os_kernelPanic>
            break;
 8101242:	bf00      	nop
 8101244:	6b7b      	ldr	r3, [r7, #52]	; 0x34
 8101246:	613b      	str	r3, [r7, #16]
    return (bufferVar->cfg->id);
 8101248:	693b      	ldr	r3, [r7, #16]
 810124a:	681b      	ldr	r3, [r3, #0]
 810124c:	685b      	ldr	r3, [r3, #4]
        }
    }

    bufferId = buffer_getBufferId( bufferVar );
 810124e:	62bb      	str	r3, [r7, #40]	; 0x28
    bufferState = buffer_readArray( bufferId, buffer, size );
 8101250:	687a      	ldr	r2, [r7, #4]
 8101252:	68b9      	ldr	r1, [r7, #8]
 8101254:	6ab8      	ldr	r0, [r7, #40]	; 0x28
 8101256:	f7ff fe27 	bl	8100ea8 <buffer_readArray>
 810125a:	4603      	mov	r3, r0
 810125c:	f887 3027 	strb.w	r3, [r7, #39]	; 0x27

    return bufferState;
 8101260:	f897 3027 	ldrb.w	r3, [r7, #39]	; 0x27
}
 8101264:	4618      	mov	r0, r3
 8101266:	3738      	adds	r7, #56	; 0x38
 8101268:	46bd      	mov	sp, r7
 810126a:	bd80      	pop	{r7, pc}

0810126c <bufferDouble_writeArray>:
********************************************************************************/
/* @cond S */
__SEC_START(__OS_FUNC_SECTION_START)
/* @endcond*/
__OS_FUNC_SECTION CosmOS_BufferStateType bufferDouble_writeArray(BitWidthType id, void * buffer, BitWidthType size, CosmOS_BufferDoubleAccessType access)
{
 810126c:	b580      	push	{r7, lr}
 810126e:	b08e      	sub	sp, #56	; 0x38
 8101270:	af00      	add	r7, sp, #0
 8101272:	60f8      	str	r0, [r7, #12]
 8101274:	60b9      	str	r1, [r7, #8]
 8101276:	607a      	str	r2, [r7, #4]
 8101278:	70fb      	strb	r3, [r7, #3]
    CosmOS_OsVariableType * osVar;
    CosmOS_BufferVariableType * bufferVar;
    CosmOS_BufferDoubleVariableType * bufferDoubleVar;


    osVar = os_getOsVar();
 810127a:	f000 f9fb 	bl	8101674 <os_getOsVar>
 810127e:	6338      	str	r0, [r7, #48]	; 0x30
 8101280:	6b3b      	ldr	r3, [r7, #48]	; 0x30
 8101282:	623b      	str	r3, [r7, #32]
 8101284:	68fb      	ldr	r3, [r7, #12]
 8101286:	61fb      	str	r3, [r7, #28]
 8101288:	6a3b      	ldr	r3, [r7, #32]
 810128a:	68d9      	ldr	r1, [r3, #12]
 810128c:	69fa      	ldr	r2, [r7, #28]
 810128e:	4613      	mov	r3, r2
 8101290:	005b      	lsls	r3, r3, #1
 8101292:	4413      	add	r3, r2
 8101294:	009b      	lsls	r3, r3, #2
 8101296:	440b      	add	r3, r1

    bufferDoubleVar = os_getOsBufferDoubleVar( osVar, id );
 8101298:	62fb      	str	r3, [r7, #44]	; 0x2c

    switch ( access )
 810129a:	78fb      	ldrb	r3, [r7, #3]
 810129c:	2b00      	cmp	r3, #0
 810129e:	d002      	beq.n	81012a6 <bufferDouble_writeArray+0x3a>
 81012a0:	2b01      	cmp	r3, #1
 81012a2:	d00b      	beq.n	81012bc <bufferDouble_writeArray+0x50>
 81012a4:	e015      	b.n	81012d2 <bufferDouble_writeArray+0x66>
 81012a6:	6afb      	ldr	r3, [r7, #44]	; 0x2c
 81012a8:	61bb      	str	r3, [r7, #24]
    return (CosmOS_BufferVariableType *)(&(bufferDoubleVar->cfg->bufferPair[bufferDoubleVar->activeUserBufferId]));
 81012aa:	69bb      	ldr	r3, [r7, #24]
 81012ac:	681b      	ldr	r3, [r3, #0]
 81012ae:	681a      	ldr	r2, [r3, #0]
 81012b0:	69bb      	ldr	r3, [r7, #24]
 81012b2:	689b      	ldr	r3, [r3, #8]
 81012b4:	009b      	lsls	r3, r3, #2
 81012b6:	4413      	add	r3, r2
    {
        case BUFFER_DOUBLE_ACCESS_ENUM__USER :
        {
            bufferVar = bufferDouble_getBufferDoubleUserBuffer( bufferDoubleVar );
 81012b8:	637b      	str	r3, [r7, #52]	; 0x34
            break;
 81012ba:	e00d      	b.n	81012d8 <bufferDouble_writeArray+0x6c>
 81012bc:	6afb      	ldr	r3, [r7, #44]	; 0x2c
 81012be:	617b      	str	r3, [r7, #20]
    return (CosmOS_BufferVariableType *)(&(bufferDoubleVar->cfg->bufferPair[bufferDoubleVar->activeKernelBufferId]));
 81012c0:	697b      	ldr	r3, [r7, #20]
 81012c2:	681b      	ldr	r3, [r3, #0]
 81012c4:	681a      	ldr	r2, [r3, #0]
 81012c6:	697b      	ldr	r3, [r7, #20]
 81012c8:	685b      	ldr	r3, [r3, #4]
 81012ca:	009b      	lsls	r3, r3, #2
 81012cc:	4413      	add	r3, r2
        }

        case BUFFER_DOUBLE_ACCESS_ENUM__KERNEL :
        {
            bufferVar = bufferDouble_getBufferDoubleKernelBuffer( bufferDoubleVar );
 81012ce:	637b      	str	r3, [r7, #52]	; 0x34
            break;
 81012d0:	e002      	b.n	81012d8 <bufferDouble_writeArray+0x6c>
        }

        default :
        {
            os_kernelPanic();
 81012d2:	f000 f9d9 	bl	8101688 <os_kernelPanic>
            break;
 81012d6:	bf00      	nop
 81012d8:	6b7b      	ldr	r3, [r7, #52]	; 0x34
 81012da:	613b      	str	r3, [r7, #16]
 81012dc:	693b      	ldr	r3, [r7, #16]
 81012de:	681b      	ldr	r3, [r3, #0]
 81012e0:	685b      	ldr	r3, [r3, #4]
        }
    }

    bufferId = buffer_getBufferId( bufferVar );
 81012e2:	62bb      	str	r3, [r7, #40]	; 0x28
    bufferState = buffer_writeArray( bufferId, buffer, size );
 81012e4:	687a      	ldr	r2, [r7, #4]
 81012e6:	68b9      	ldr	r1, [r7, #8]
 81012e8:	6ab8      	ldr	r0, [r7, #40]	; 0x28
 81012ea:	f7ff fe6b 	bl	8100fc4 <buffer_writeArray>
 81012ee:	4603      	mov	r3, r0
 81012f0:	f887 3027 	strb.w	r3, [r7, #39]	; 0x27

    return bufferState;
 81012f4:	f897 3027 	ldrb.w	r3, [r7, #39]	; 0x27
}
 81012f8:	4618      	mov	r0, r3
 81012fa:	3738      	adds	r7, #56	; 0x38
 81012fc:	46bd      	mov	sp, r7
 81012fe:	bd80      	pop	{r7, pc}

08101300 <core_getCoreVar>:
********************************************************************************/
/* @cond S */
__SEC_START(__OS_FUNC_SECTION_START)
/* @endcond*/
__OS_FUNC_SECTION CosmOS_CoreVariableType * core_getCoreVar(void)
{
 8101300:	b480      	push	{r7}
 8101302:	b083      	sub	sp, #12
 8101304:	af00      	add	r7, sp, #0
    __asm volatile ("MOV %[resultVariable], R9":  [resultVariable] "=r" (result) );
 8101306:	464b      	mov	r3, r9
 8101308:	607b      	str	r3, [r7, #4]
    return (CosmOS_CoreVariableType *)result;
 810130a:	687b      	ldr	r3, [r7, #4]
    return CILcore_getCoreVar();
}
 810130c:	4618      	mov	r0, r3
 810130e:	370c      	adds	r7, #12
 8101310:	46bd      	mov	sp, r7
 8101312:	f85d 7b04 	ldr.w	r7, [sp], #4
 8101316:	4770      	bx	lr

08101318 <core_setSchedulableIntoCurrentContext>:
********************************************************************************/
/* @cond S */
__SEC_START(__OS_FUNC_SECTION_START)
/* @endcond*/
__OS_FUNC_SECTION void core_setSchedulableIntoCurrentContext(CosmOS_CoreVariableType * coreVar, CosmOS_SchedulableVariableType * schedulableVar)
{
 8101318:	b480      	push	{r7}
 810131a:	b08d      	sub	sp, #52	; 0x34
 810131c:	af00      	add	r7, sp, #0
 810131e:	6078      	str	r0, [r7, #4]
 8101320:	6039      	str	r1, [r7, #0]
 8101322:	683b      	ldr	r3, [r7, #0]
 8101324:	60fb      	str	r3, [r7, #12]
  *
  * @return BitWidthType
********************************************************************************/
__STATIC_FORCEINLINE BitWidthType schedulable_getProgramId(CosmOS_SchedulableVariableType * schedulable)
{
    return (schedulable->cfg->programId);
 8101326:	68fb      	ldr	r3, [r7, #12]
 8101328:	681b      	ldr	r3, [r3, #0]
 810132a:	699b      	ldr	r3, [r3, #24]
    BitWidthType programId;

    CosmOS_ProgramVariableType * programVar;


    programId = schedulable_getProgramId( schedulableVar );
 810132c:	62fb      	str	r3, [r7, #44]	; 0x2c
 810132e:	687b      	ldr	r3, [r7, #4]
 8101330:	617b      	str	r3, [r7, #20]
 8101332:	6afb      	ldr	r3, [r7, #44]	; 0x2c
 8101334:	613b      	str	r3, [r7, #16]
  *
  * @return CosmOS_ProgramVariableType *
********************************************************************************/
__STATIC_FORCEINLINE CosmOS_ProgramVariableType * core_getCoreProgramVar(CosmOS_CoreVariableType * core, BitWidthType programIterator)
{
    return (&(core->programVars[programIterator]));
 8101336:	697b      	ldr	r3, [r7, #20]
 8101338:	68da      	ldr	r2, [r3, #12]
 810133a:	693b      	ldr	r3, [r7, #16]
 810133c:	011b      	lsls	r3, r3, #4
 810133e:	4413      	add	r3, r2
    programVar = core_getCoreProgramVar( coreVar, programId );
 8101340:	62bb      	str	r3, [r7, #40]	; 0x28
 8101342:	687b      	ldr	r3, [r7, #4]
 8101344:	61fb      	str	r3, [r7, #28]
 8101346:	6abb      	ldr	r3, [r7, #40]	; 0x28
 8101348:	61bb      	str	r3, [r7, #24]
  *
  * @return none
********************************************************************************/
__STATIC_FORCEINLINE void core_setCoreProgramInExecution(CosmOS_CoreVariableType * core, CosmOS_ProgramVariableType * programInExecutionParam)
{
    core->programInExecution = programInExecutionParam;
 810134a:	69fb      	ldr	r3, [r7, #28]
 810134c:	69ba      	ldr	r2, [r7, #24]
 810134e:	609a      	str	r2, [r3, #8]
}
 8101350:	bf00      	nop
 8101352:	687b      	ldr	r3, [r7, #4]
 8101354:	627b      	str	r3, [r7, #36]	; 0x24
 8101356:	683b      	ldr	r3, [r7, #0]
 8101358:	623b      	str	r3, [r7, #32]
  *
  * @return none
********************************************************************************/
__STATIC_FORCEINLINE void core_setCoreSchedulableInExecution(CosmOS_CoreVariableType * core, CosmOS_SchedulableVariableType * schedulableInExecutionParam)
{
    core->schedulableInExecution = schedulableInExecutionParam;
 810135a:	6a7b      	ldr	r3, [r7, #36]	; 0x24
 810135c:	6a3a      	ldr	r2, [r7, #32]
 810135e:	605a      	str	r2, [r3, #4]
}
 8101360:	bf00      	nop

    core_setCoreProgramInExecution( coreVar, programVar );
    core_setCoreSchedulableInExecution( coreVar, schedulableVar );
}
 8101362:	bf00      	nop
 8101364:	3734      	adds	r7, #52	; 0x34
 8101366:	46bd      	mov	sp, r7
 8101368:	f85d 7b04 	ldr.w	r7, [sp], #4
 810136c:	4770      	bx	lr

0810136e <coreSync_getBarrier>:
********************************************************************************/
/* @cond S */
__SEC_START(__OS_FUNC_SECTION_START)
/* @endcond*/
__OS_FUNC_SECTION void coreSync_getBarrier(CosmOS_CoreVariableType * coreVar, BitWidthType barrierId)
{
 810136e:	b580      	push	{r7, lr}
 8101370:	b096      	sub	sp, #88	; 0x58
 8101372:	af00      	add	r7, sp, #0
 8101374:	6078      	str	r0, [r7, #4]
 8101376:	6039      	str	r1, [r7, #0]
 8101378:	687b      	ldr	r3, [r7, #4]
 810137a:	62bb      	str	r3, [r7, #40]	; 0x28
 810137c:	683b      	ldr	r3, [r7, #0]
 810137e:	627b      	str	r3, [r7, #36]	; 0x24
    return (&(core->barrierVars[barrierId]));
 8101380:	6abb      	ldr	r3, [r7, #40]	; 0x28
 8101382:	695a      	ldr	r2, [r3, #20]
 8101384:	6a7b      	ldr	r3, [r7, #36]	; 0x24
 8101386:	009b      	lsls	r3, r3, #2
 8101388:	4413      	add	r3, r2
	CosmOS_BarrierVariableType * barrierVar;

	volatile CosmOS_BarrierStateType barrierState;


	barrierVar = core_getBarrierVar( coreVar, barrierId );
 810138a:	653b      	str	r3, [r7, #80]	; 0x50
 810138c:	6d3b      	ldr	r3, [r7, #80]	; 0x50
 810138e:	633b      	str	r3, [r7, #48]	; 0x30
 8101390:	f04f 33aa 	mov.w	r3, #2863311530	; 0xaaaaaaaa
 8101394:	62fb      	str	r3, [r7, #44]	; 0x2c
  *
  * @return none
********************************************************************************/
__STATIC_FORCEINLINE void coreSync_setBarrierState(CosmOS_BarrierVariableType * barrier, CosmOS_BarrierStateType barrierStateParam)
{
    barrier->barrierState = barrierStateParam;
 8101396:	6b3b      	ldr	r3, [r7, #48]	; 0x30
 8101398:	6afa      	ldr	r2, [r7, #44]	; 0x2c
 810139a:	601a      	str	r2, [r3, #0]
}
 810139c:	bf00      	nop
	coreSync_setBarrierState( barrierVar, BARRIER_STATE_ENUM__REACHED);

	/* MEMORY BARRIER HAS TO BE IMPLEMENTED */

	osVar = os_getOsVar();
 810139e:	f000 f969 	bl	8101674 <os_getOsVar>
 81013a2:	64f8      	str	r0, [r7, #76]	; 0x4c
 81013a4:	6cfb      	ldr	r3, [r7, #76]	; 0x4c
 81013a6:	637b      	str	r3, [r7, #52]	; 0x34
    return (osVar->cfg->numberOfCores);
 81013a8:	6b7b      	ldr	r3, [r7, #52]	; 0x34
 81013aa:	681b      	ldr	r3, [r3, #0]
 81013ac:	685b      	ldr	r3, [r3, #4]
	numberOfCores = os_getOsNumberOfCores( osVar );
 81013ae:	64bb      	str	r3, [r7, #72]	; 0x48

	numberOfSynchronizedCores = 0;
 81013b0:	2300      	movs	r3, #0
 81013b2:	657b      	str	r3, [r7, #84]	; 0x54
 81013b4:	6cfb      	ldr	r3, [r7, #76]	; 0x4c
 81013b6:	63fb      	str	r3, [r7, #60]	; 0x3c
 81013b8:	6d7b      	ldr	r3, [r7, #84]	; 0x54
 81013ba:	63bb      	str	r3, [r7, #56]	; 0x38
    return (&(osVar->coreVars[coreId]));
 81013bc:	6bfb      	ldr	r3, [r7, #60]	; 0x3c
 81013be:	685a      	ldr	r2, [r3, #4]
 81013c0:	6bbb      	ldr	r3, [r7, #56]	; 0x38
 81013c2:	015b      	lsls	r3, r3, #5
 81013c4:	4413      	add	r3, r2

	coreVar = os_getCoreVar( osVar, numberOfSynchronizedCores );
 81013c6:	607b      	str	r3, [r7, #4]
 81013c8:	687b      	ldr	r3, [r7, #4]
 81013ca:	647b      	str	r3, [r7, #68]	; 0x44
 81013cc:	683b      	ldr	r3, [r7, #0]
 81013ce:	643b      	str	r3, [r7, #64]	; 0x40
 81013d0:	6c7b      	ldr	r3, [r7, #68]	; 0x44
 81013d2:	695a      	ldr	r2, [r3, #20]
 81013d4:	6c3b      	ldr	r3, [r7, #64]	; 0x40
 81013d6:	009b      	lsls	r3, r3, #2
 81013d8:	4413      	add	r3, r2
	barrierVar = core_getBarrierVar( coreVar, barrierId );
 81013da:	653b      	str	r3, [r7, #80]	; 0x50

	while( numberOfSynchronizedCores IS_NOT_EQUAL_TO numberOfCores )
 81013dc:	e026      	b.n	810142c <coreSync_getBarrier+0xbe>
 81013de:	6d3b      	ldr	r3, [r7, #80]	; 0x50
 81013e0:	623b      	str	r3, [r7, #32]
    return (barrier->barrierState);
 81013e2:	6a3b      	ldr	r3, [r7, #32]
 81013e4:	681b      	ldr	r3, [r3, #0]
	{
		barrierState = coreSync_getBarrierState( barrierVar );
 81013e6:	60fb      	str	r3, [r7, #12]

		if ( ( barrierState IS_EQUAL_TO BARRIER_STATE_ENUM__REACHED ) )
 81013e8:	68fb      	ldr	r3, [r7, #12]
 81013ea:	f1b3 3faa 	cmp.w	r3, #2863311530	; 0xaaaaaaaa
 81013ee:	d11d      	bne.n	810142c <coreSync_getBarrier+0xbe>
		{
			numberOfSynchronizedCores++;
 81013f0:	6d7b      	ldr	r3, [r7, #84]	; 0x54
 81013f2:	3301      	adds	r3, #1
 81013f4:	657b      	str	r3, [r7, #84]	; 0x54

			coreVar = os_getCoreVar( osVar, ( numberOfSynchronizedCores % numberOfCores ) );
 81013f6:	6d7b      	ldr	r3, [r7, #84]	; 0x54
 81013f8:	6cba      	ldr	r2, [r7, #72]	; 0x48
 81013fa:	fbb3 f2f2 	udiv	r2, r3, r2
 81013fe:	6cb9      	ldr	r1, [r7, #72]	; 0x48
 8101400:	fb01 f202 	mul.w	r2, r1, r2
 8101404:	1a9b      	subs	r3, r3, r2
 8101406:	6cfa      	ldr	r2, [r7, #76]	; 0x4c
 8101408:	617a      	str	r2, [r7, #20]
 810140a:	613b      	str	r3, [r7, #16]
 810140c:	697b      	ldr	r3, [r7, #20]
 810140e:	685a      	ldr	r2, [r3, #4]
 8101410:	693b      	ldr	r3, [r7, #16]
 8101412:	015b      	lsls	r3, r3, #5
 8101414:	4413      	add	r3, r2
 8101416:	607b      	str	r3, [r7, #4]
 8101418:	687b      	ldr	r3, [r7, #4]
 810141a:	61fb      	str	r3, [r7, #28]
 810141c:	683b      	ldr	r3, [r7, #0]
 810141e:	61bb      	str	r3, [r7, #24]
 8101420:	69fb      	ldr	r3, [r7, #28]
 8101422:	695a      	ldr	r2, [r3, #20]
 8101424:	69bb      	ldr	r3, [r7, #24]
 8101426:	009b      	lsls	r3, r3, #2
 8101428:	4413      	add	r3, r2
			barrierVar = core_getBarrierVar( coreVar, barrierId );
 810142a:	653b      	str	r3, [r7, #80]	; 0x50
	while( numberOfSynchronizedCores IS_NOT_EQUAL_TO numberOfCores )
 810142c:	6d7a      	ldr	r2, [r7, #84]	; 0x54
 810142e:	6cbb      	ldr	r3, [r7, #72]	; 0x48
 8101430:	429a      	cmp	r2, r3
 8101432:	d1d4      	bne.n	81013de <coreSync_getBarrier+0x70>
		}
	}
}
 8101434:	bf00      	nop
 8101436:	bf00      	nop
 8101438:	3758      	adds	r7, #88	; 0x58
 810143a:	46bd      	mov	sp, r7
 810143c:	bd80      	pop	{r7, pc}

0810143e <coreSync_reactivateBarrier>:
********************************************************************************/
/* @cond S */
__SEC_START(__OS_FUNC_SECTION_START)
/* @endcond*/
__OS_FUNC_SECTION void coreSync_reactivateBarrier(CosmOS_CoreVariableType * coreVar, BitWidthType barrierId)
{
 810143e:	b580      	push	{r7, lr}
 8101440:	b088      	sub	sp, #32
 8101442:	af00      	add	r7, sp, #0
 8101444:	6078      	str	r0, [r7, #4]
 8101446:	6039      	str	r1, [r7, #0]
	CosmOS_BarrierVariableType * barrierVar;

	cosmosAssert( barrierId IS_EQUAL_TO SCHEDULERS_SYNC_ID );
 8101448:	683b      	ldr	r3, [r7, #0]
 810144a:	2b03      	cmp	r3, #3
 810144c:	bf0c      	ite	eq
 810144e:	2301      	moveq	r3, #1
 8101450:	2300      	movne	r3, #0
 8101452:	b2db      	uxtb	r3, r3
 8101454:	60bb      	str	r3, [r7, #8]
  *
  * @return none
********************************************************************************/
__STATIC_FORCEINLINE void cosmosAssert(BitWidthType result)
{
    if ( IS_NOT( result ) )
 8101456:	68bb      	ldr	r3, [r7, #8]
 8101458:	2b00      	cmp	r3, #0
 810145a:	d101      	bne.n	8101460 <coreSync_reactivateBarrier+0x22>
		{
        os_kernelPanic();
 810145c:	f000 f914 	bl	8101688 <os_kernelPanic>
    }
}
 8101460:	bf00      	nop
 8101462:	687b      	ldr	r3, [r7, #4]
 8101464:	613b      	str	r3, [r7, #16]
 8101466:	683b      	ldr	r3, [r7, #0]
 8101468:	60fb      	str	r3, [r7, #12]
 810146a:	693b      	ldr	r3, [r7, #16]
 810146c:	695a      	ldr	r2, [r3, #20]
 810146e:	68fb      	ldr	r3, [r7, #12]
 8101470:	009b      	lsls	r3, r3, #2
 8101472:	4413      	add	r3, r2

	barrierVar = core_getBarrierVar( coreVar, barrierId );
 8101474:	61fb      	str	r3, [r7, #28]
 8101476:	69fb      	ldr	r3, [r7, #28]
 8101478:	61bb      	str	r3, [r7, #24]
 810147a:	2300      	movs	r3, #0
 810147c:	617b      	str	r3, [r7, #20]
    barrier->barrierState = barrierStateParam;
 810147e:	69bb      	ldr	r3, [r7, #24]
 8101480:	697a      	ldr	r2, [r7, #20]
 8101482:	601a      	str	r2, [r3, #0]
}
 8101484:	bf00      	nop
	coreSync_setBarrierState( barrierVar, BARRIER_STATE_ENUM__ACTIVATED );

	/* MEMORY BARRIER HAS TO BE IMPLEMENTED */
}
 8101486:	bf00      	nop
 8101488:	3720      	adds	r7, #32
 810148a:	46bd      	mov	sp, r7
 810148c:	bd80      	pop	{r7, pc}

0810148e <deviceIO_togglePin>:
********************************************************************************/
/* @cond S */
__SEC_START(__OS_FUNC_SECTION_START)
/* @endcond*/
__OS_FUNC_SECTION void deviceIO_togglePin(BitWidthType id, void *GPIOx, BitWidthType GPIO_Pin)
{
 810148e:	b580      	push	{r7, lr}
 8101490:	b084      	sub	sp, #16
 8101492:	af00      	add	r7, sp, #0
 8101494:	60f8      	str	r0, [r7, #12]
 8101496:	60b9      	str	r1, [r7, #8]
 8101498:	607a      	str	r2, [r7, #4]
    CILGPIO_togglePin( GPIOx, GPIO_Pin );
 810149a:	6879      	ldr	r1, [r7, #4]
 810149c:	68b8      	ldr	r0, [r7, #8]
 810149e:	f000 ffa6 	bl	81023ee <CILGPIO_togglePin>

	__SUPRESS_UNUSED_VAR(id);
}
 81014a2:	bf00      	nop
 81014a4:	3710      	adds	r7, #16
 81014a6:	46bd      	mov	sp, r7
 81014a8:	bd80      	pop	{r7, pc}

081014aa <memoryManager_heapInit>:
********************************************************************************/
/* @cond S */
__SEC_START(__OS_FUNC_SECTION_START)
/* @endcond*/
__OS_FUNC_SECTION void memoryManager_heapInit(void)
{
 81014aa:	b580      	push	{r7, lr}
 81014ac:	b088      	sub	sp, #32
 81014ae:	af00      	add	r7, sp, #0

	CosmOS_CoreVariableType * coreVar;
	CosmOS_ProgramVariableType * programVars;
	CosmOS_MallocVariableType * currentMallocVar;

	coreVar = core_getCoreVar();
 81014b0:	f7ff ff26 	bl	8101300 <core_getCoreVar>
 81014b4:	61b8      	str	r0, [r7, #24]
 81014b6:	69bb      	ldr	r3, [r7, #24]
 81014b8:	607b      	str	r3, [r7, #4]
    return (core->programVars);
 81014ba:	687b      	ldr	r3, [r7, #4]
 81014bc:	68db      	ldr	r3, [r3, #12]

	programVars = core_getCoreProgramVars( coreVar );
 81014be:	617b      	str	r3, [r7, #20]
 81014c0:	69bb      	ldr	r3, [r7, #24]
 81014c2:	60bb      	str	r3, [r7, #8]
    return (core->cfg->numberOfPrograms);
 81014c4:	68bb      	ldr	r3, [r7, #8]
 81014c6:	681b      	ldr	r3, [r3, #0]
 81014c8:	685b      	ldr	r3, [r3, #4]
	numberOfPrograms = core_getCoreNumberOfPrograms( coreVar );
 81014ca:	613b      	str	r3, [r7, #16]

	for (BitWidthType i = 0; i < numberOfPrograms; i++)
 81014cc:	2300      	movs	r3, #0
 81014ce:	61fb      	str	r3, [r7, #28]
 81014d0:	e01a      	b.n	8101508 <memoryManager_heapInit+0x5e>
	{
		if (programVars[i].cfg->programHeapSize)
 81014d2:	69fb      	ldr	r3, [r7, #28]
 81014d4:	011b      	lsls	r3, r3, #4
 81014d6:	697a      	ldr	r2, [r7, #20]
 81014d8:	4413      	add	r3, r2
 81014da:	681b      	ldr	r3, [r3, #0]
 81014dc:	699b      	ldr	r3, [r3, #24]
 81014de:	2b00      	cmp	r3, #0
 81014e0:	d00f      	beq.n	8101502 <memoryManager_heapInit+0x58>
		{
			currentMallocVar = (CosmOS_MallocVariableType *)programVars[i].cfg->programHeapLowAddress;
 81014e2:	69fb      	ldr	r3, [r7, #28]
 81014e4:	011b      	lsls	r3, r3, #4
 81014e6:	697a      	ldr	r2, [r7, #20]
 81014e8:	4413      	add	r3, r2
 81014ea:	681b      	ldr	r3, [r3, #0]
 81014ec:	69db      	ldr	r3, [r3, #28]
 81014ee:	60fb      	str	r3, [r7, #12]

			currentMallocVar->prior = NULL;
 81014f0:	68fb      	ldr	r3, [r7, #12]
 81014f2:	2200      	movs	r2, #0
 81014f4:	601a      	str	r2, [r3, #0]
			currentMallocVar->next = NULL;
 81014f6:	68fb      	ldr	r3, [r7, #12]
 81014f8:	2200      	movs	r2, #0
 81014fa:	605a      	str	r2, [r3, #4]
			currentMallocVar->size = (BitWidthType)ALIGN(sizeof(CosmOS_MallocVariableType),sizeof(AddressType));
 81014fc:	68fb      	ldr	r3, [r7, #12]
 81014fe:	220c      	movs	r2, #12
 8101500:	609a      	str	r2, [r3, #8]
	for (BitWidthType i = 0; i < numberOfPrograms; i++)
 8101502:	69fb      	ldr	r3, [r7, #28]
 8101504:	3301      	adds	r3, #1
 8101506:	61fb      	str	r3, [r7, #28]
 8101508:	69fa      	ldr	r2, [r7, #28]
 810150a:	693b      	ldr	r3, [r7, #16]
 810150c:	429a      	cmp	r2, r3
 810150e:	d3e0      	bcc.n	81014d2 <memoryManager_heapInit+0x28>
		}
	}
}
 8101510:	bf00      	nop
 8101512:	bf00      	nop
 8101514:	3720      	adds	r7, #32
 8101516:	46bd      	mov	sp, r7
 8101518:	bd80      	pop	{r7, pc}

0810151a <memoryProtection_init>:
/* @endcond*/
__OS_FUNC_SECTION void memoryProtection_init(AddressType codeMemoryHighAddress,\
												AddressType codeMemoryLowAddress, \
												AddressType stackMemoryHighAddress, \
												AddressType stackMemoryLowAddress)
{
 810151a:	b580      	push	{r7, lr}
 810151c:	b084      	sub	sp, #16
 810151e:	af00      	add	r7, sp, #0
 8101520:	60f8      	str	r0, [r7, #12]
 8101522:	60b9      	str	r1, [r7, #8]
 8101524:	607a      	str	r2, [r7, #4]
 8101526:	603b      	str	r3, [r7, #0]
    CILmemoryProtection_init(codeMemoryHighAddress,codeMemoryLowAddress,
 8101528:	683b      	ldr	r3, [r7, #0]
 810152a:	687a      	ldr	r2, [r7, #4]
 810152c:	68b9      	ldr	r1, [r7, #8]
 810152e:	68f8      	ldr	r0, [r7, #12]
 8101530:	f000 ff6c 	bl	810240c <CILmemoryProtection_init>
							stackMemoryHighAddress,stackMemoryLowAddress);
}
 8101534:	bf00      	nop
 8101536:	3710      	adds	r7, #16
 8101538:	46bd      	mov	sp, r7
 810153a:	bd80      	pop	{r7, pc}

0810153c <memoryProtection_setMemoryProtection>:
********************************************************************************/
/* @cond S */
__SEC_START(__OS_FUNC_SECTION_START)
/* @endcond*/
__OS_FUNC_SECTION void memoryProtection_setMemoryProtection(CosmOS_CoreVariableType * core,CosmOS_SchedulableVariableType  * schedulable)
{
 810153c:	b580      	push	{r7, lr}
 810153e:	b096      	sub	sp, #88	; 0x58
 8101540:	af00      	add	r7, sp, #0
 8101542:	6078      	str	r0, [r7, #4]
 8101544:	6039      	str	r1, [r7, #0]
 8101546:	683b      	ldr	r3, [r7, #0]
 8101548:	60fb      	str	r3, [r7, #12]
 810154a:	68fb      	ldr	r3, [r7, #12]
 810154c:	681b      	ldr	r3, [r3, #0]
 810154e:	699b      	ldr	r3, [r3, #24]

    CosmOS_StackConfigurationType * stack;
    CosmOS_ProgramVariableType * programVar;


    programId = schedulable_getProgramId( schedulable );
 8101550:	657b      	str	r3, [r7, #84]	; 0x54
 8101552:	687b      	ldr	r3, [r7, #4]
 8101554:	617b      	str	r3, [r7, #20]
 8101556:	6d7b      	ldr	r3, [r7, #84]	; 0x54
 8101558:	613b      	str	r3, [r7, #16]
    return (&(core->programVars[programIterator]));
 810155a:	697b      	ldr	r3, [r7, #20]
 810155c:	68da      	ldr	r2, [r3, #12]
 810155e:	693b      	ldr	r3, [r7, #16]
 8101560:	011b      	lsls	r3, r3, #4
 8101562:	4413      	add	r3, r2
    programVar = core_getCoreProgramVar( core, programId );
 8101564:	653b      	str	r3, [r7, #80]	; 0x50
 8101566:	683b      	ldr	r3, [r7, #0]
 8101568:	61bb      	str	r3, [r7, #24]
    return (CosmOS_StackConfigurationType *)(schedulable->cfg->stack);
 810156a:	69bb      	ldr	r3, [r7, #24]
 810156c:	681b      	ldr	r3, [r3, #0]
 810156e:	681b      	ldr	r3, [r3, #0]

    stack = schedulable_getStack( schedulable );
 8101570:	64fb      	str	r3, [r7, #76]	; 0x4c
 8101572:	6cfb      	ldr	r3, [r7, #76]	; 0x4c
 8101574:	62fb      	str	r3, [r7, #44]	; 0x2c
 8101576:	6afb      	ldr	r3, [r7, #44]	; 0x2c
 8101578:	62bb      	str	r3, [r7, #40]	; 0x28
  *
  * @return AddressType
********************************************************************************/
__STATIC_FORCEINLINE AddressType stack_getStackLowAddress(CosmOS_StackConfigurationType * stack)
{
    return (stack->stackLowAddress);
 810157a:	6abb      	ldr	r3, [r7, #40]	; 0x28
 810157c:	685b      	ldr	r3, [r3, #4]
    lowAddress = stack_getStackLowAddress( stack );
 810157e:	627b      	str	r3, [r7, #36]	; 0x24
 8101580:	6afb      	ldr	r3, [r7, #44]	; 0x2c
 8101582:	623b      	str	r3, [r7, #32]
  *
  * @return AddressType
********************************************************************************/
__STATIC_FORCEINLINE AddressType stack_getStackHighAddress(CosmOS_StackConfigurationType * stack)
{
    return (stack->stackHighAddress);
 8101584:	6a3b      	ldr	r3, [r7, #32]
 8101586:	689b      	ldr	r3, [r3, #8]
    highAddress = stack_getStackHighAddress( stack );
 8101588:	61fb      	str	r3, [r7, #28]
    CILmemoryProtection_setStackOverflowProtection( lowAddress, highAddress );
 810158a:	69f9      	ldr	r1, [r7, #28]
 810158c:	6a78      	ldr	r0, [r7, #36]	; 0x24
 810158e:	f001 f88d 	bl	81026ac <CILmemoryProtection_setStackOverflowProtection>
}
 8101592:	bf00      	nop
 8101594:	6d3b      	ldr	r3, [r7, #80]	; 0x50
 8101596:	64bb      	str	r3, [r7, #72]	; 0x48
 8101598:	6cbb      	ldr	r3, [r7, #72]	; 0x48
 810159a:	647b      	str	r3, [r7, #68]	; 0x44
  *
  * @return BitWidthType
********************************************************************************/
__STATIC_FORCEINLINE BitWidthType program_getProgramMemorySize(CosmOS_ProgramVariableType * program)
{
    return (program->cfg->programMemorySize);
 810159c:	6c7b      	ldr	r3, [r7, #68]	; 0x44
 810159e:	681b      	ldr	r3, [r3, #0]
 81015a0:	68db      	ldr	r3, [r3, #12]
    size = program_getProgramMemorySize( program );
 81015a2:	643b      	str	r3, [r7, #64]	; 0x40
 81015a4:	6cbb      	ldr	r3, [r7, #72]	; 0x48
 81015a6:	63fb      	str	r3, [r7, #60]	; 0x3c
  *
  * @return BitWidthType
********************************************************************************/
__STATIC_FORCEINLINE BitWidthType program_getProgramMemoryLowAddress(CosmOS_ProgramVariableType * program)
{
    return (program->cfg->programMemoryLowAddress);
 81015a8:	6bfb      	ldr	r3, [r7, #60]	; 0x3c
 81015aa:	681b      	ldr	r3, [r3, #0]
 81015ac:	691b      	ldr	r3, [r3, #16]
    lowAddress = program_getProgramMemoryLowAddress( program );
 81015ae:	63bb      	str	r3, [r7, #56]	; 0x38
 81015b0:	6cbb      	ldr	r3, [r7, #72]	; 0x48
 81015b2:	637b      	str	r3, [r7, #52]	; 0x34
  *
  * @return BitWidthType
********************************************************************************/
__STATIC_FORCEINLINE BitWidthType program_getProgramMemoryHighAddress(CosmOS_ProgramVariableType * program)
{
    return (program->cfg->programMemoryHighAddress);
 81015b4:	6b7b      	ldr	r3, [r7, #52]	; 0x34
 81015b6:	681b      	ldr	r3, [r3, #0]
 81015b8:	695b      	ldr	r3, [r3, #20]
    highAddress = program_getProgramMemoryHighAddress( program );
 81015ba:	633b      	str	r3, [r7, #48]	; 0x30
    if ( size )
 81015bc:	6c3b      	ldr	r3, [r7, #64]	; 0x40
 81015be:	2b00      	cmp	r3, #0
 81015c0:	d003      	beq.n	81015ca <memoryProtection_setMemoryProtection+0x8e>
        CILmemoryProtection_setProgramMemoryProtection( lowAddress, highAddress );
 81015c2:	6b39      	ldr	r1, [r7, #48]	; 0x30
 81015c4:	6bb8      	ldr	r0, [r7, #56]	; 0x38
 81015c6:	f001 f8cd 	bl	8102764 <CILmemoryProtection_setProgramMemoryProtection>
}
 81015ca:	bf00      	nop

    memoryProtection_setStackOverflowProtection( stack );
    memoryProtection_setProgramMemoryProtection( programVar );
}
 81015cc:	bf00      	nop
 81015ce:	3758      	adds	r7, #88	; 0x58
 81015d0:	46bd      	mov	sp, r7
 81015d2:	bd80      	pop	{r7, pc}

081015d4 <memoryProtection_isMemoryRegionProtected>:
********************************************************************************/
/* @cond S */
__SEC_START(__OS_FUNC_SECTION_START)
/* @endcond*/
__OS_FUNC_SECTION CosmOS_BooleanType memoryProtection_isMemoryRegionProtected(CosmOS_CoreVariableType * core, void * regionLowAddressPointer, BitWidthType size)
{
 81015d4:	b480      	push	{r7}
 81015d6:	b097      	sub	sp, #92	; 0x5c
 81015d8:	af00      	add	r7, sp, #0
 81015da:	60f8      	str	r0, [r7, #12]
 81015dc:	60b9      	str	r1, [r7, #8]
 81015de:	607a      	str	r2, [r7, #4]
				programLowAddress,
				programHighAddress,
				regionLowAddress,
				regionHighAddress;

	CosmOS_BooleanType isMemoryRegionProtected = True;
 81015e0:	2301      	movs	r3, #1
 81015e2:	f887 3057 	strb.w	r3, [r7, #87]	; 0x57

    CosmOS_StackConfigurationType * stack;
    CosmOS_ProgramVariableType * programVar;
	CosmOS_SchedulableVariableType * schedulable;

	regionLowAddress = (AddressType)regionLowAddressPointer;
 81015e6:	68bb      	ldr	r3, [r7, #8]
 81015e8:	653b      	str	r3, [r7, #80]	; 0x50
 81015ea:	68fb      	ldr	r3, [r7, #12]
 81015ec:	617b      	str	r3, [r7, #20]
    return (core->programInExecution);
 81015ee:	697b      	ldr	r3, [r7, #20]
 81015f0:	689b      	ldr	r3, [r3, #8]

    programVar = core_getCoreProgramInExecution( core );
 81015f2:	64fb      	str	r3, [r7, #76]	; 0x4c
 81015f4:	68fb      	ldr	r3, [r7, #12]
 81015f6:	61bb      	str	r3, [r7, #24]
    return (core->schedulableInExecution);
 81015f8:	69bb      	ldr	r3, [r7, #24]
 81015fa:	685b      	ldr	r3, [r3, #4]
	schedulable = core_getCoreSchedulableInCurrentContext( core );
 81015fc:	64bb      	str	r3, [r7, #72]	; 0x48
 81015fe:	6cbb      	ldr	r3, [r7, #72]	; 0x48
 8101600:	61fb      	str	r3, [r7, #28]
 8101602:	69fb      	ldr	r3, [r7, #28]
 8101604:	681b      	ldr	r3, [r3, #0]
 8101606:	681b      	ldr	r3, [r3, #0]
    stack = schedulable_getStack( schedulable );
 8101608:	647b      	str	r3, [r7, #68]	; 0x44
 810160a:	6c7b      	ldr	r3, [r7, #68]	; 0x44
 810160c:	623b      	str	r3, [r7, #32]
    return (stack->stackLowAddress);
 810160e:	6a3b      	ldr	r3, [r7, #32]
 8101610:	685b      	ldr	r3, [r3, #4]

	stackLowAddress = stack_getStackLowAddress( stack );
 8101612:	643b      	str	r3, [r7, #64]	; 0x40
 8101614:	6c7b      	ldr	r3, [r7, #68]	; 0x44
 8101616:	627b      	str	r3, [r7, #36]	; 0x24
    return (stack->stackHighAddress);
 8101618:	6a7b      	ldr	r3, [r7, #36]	; 0x24
 810161a:	689b      	ldr	r3, [r3, #8]
    stackHighAddress = stack_getStackHighAddress( stack );
 810161c:	63fb      	str	r3, [r7, #60]	; 0x3c
 810161e:	6cfb      	ldr	r3, [r7, #76]	; 0x4c
 8101620:	62bb      	str	r3, [r7, #40]	; 0x28
    return (program->cfg->programMemoryLowAddress);
 8101622:	6abb      	ldr	r3, [r7, #40]	; 0x28
 8101624:	681b      	ldr	r3, [r3, #0]
 8101626:	691b      	ldr	r3, [r3, #16]

    programLowAddress = program_getProgramMemoryLowAddress( programVar );
 8101628:	63bb      	str	r3, [r7, #56]	; 0x38
 810162a:	6cfb      	ldr	r3, [r7, #76]	; 0x4c
 810162c:	62fb      	str	r3, [r7, #44]	; 0x2c
    return (program->cfg->programMemoryHighAddress);
 810162e:	6afb      	ldr	r3, [r7, #44]	; 0x2c
 8101630:	681b      	ldr	r3, [r3, #0]
 8101632:	695b      	ldr	r3, [r3, #20]
    programHighAddress = program_getProgramMemoryHighAddress( programVar );
 8101634:	637b      	str	r3, [r7, #52]	; 0x34

	regionHighAddress = regionLowAddress + (AddressType)size;
 8101636:	6d3a      	ldr	r2, [r7, #80]	; 0x50
 8101638:	687b      	ldr	r3, [r7, #4]
 810163a:	4413      	add	r3, r2
 810163c:	633b      	str	r3, [r7, #48]	; 0x30

	if (((regionHighAddress < stackHighAddress) && (regionLowAddress > stackLowAddress)) || \
 810163e:	6b3a      	ldr	r2, [r7, #48]	; 0x30
 8101640:	6bfb      	ldr	r3, [r7, #60]	; 0x3c
 8101642:	429a      	cmp	r2, r3
 8101644:	d203      	bcs.n	810164e <memoryProtection_isMemoryRegionProtected+0x7a>
 8101646:	6d3a      	ldr	r2, [r7, #80]	; 0x50
 8101648:	6c3b      	ldr	r3, [r7, #64]	; 0x40
 810164a:	429a      	cmp	r2, r3
 810164c:	d807      	bhi.n	810165e <memoryProtection_isMemoryRegionProtected+0x8a>
 810164e:	6b3a      	ldr	r2, [r7, #48]	; 0x30
 8101650:	6b7b      	ldr	r3, [r7, #52]	; 0x34
 8101652:	429a      	cmp	r2, r3
 8101654:	d206      	bcs.n	8101664 <memoryProtection_isMemoryRegionProtected+0x90>
		((regionHighAddress < programHighAddress) && (regionLowAddress > programLowAddress)))
 8101656:	6d3a      	ldr	r2, [r7, #80]	; 0x50
 8101658:	6bbb      	ldr	r3, [r7, #56]	; 0x38
 810165a:	429a      	cmp	r2, r3
 810165c:	d902      	bls.n	8101664 <memoryProtection_isMemoryRegionProtected+0x90>
	{
		isMemoryRegionProtected = False;
 810165e:	2300      	movs	r3, #0
 8101660:	f887 3057 	strb.w	r3, [r7, #87]	; 0x57
	}

	return isMemoryRegionProtected;
 8101664:	f897 3057 	ldrb.w	r3, [r7, #87]	; 0x57
}
 8101668:	4618      	mov	r0, r3
 810166a:	375c      	adds	r7, #92	; 0x5c
 810166c:	46bd      	mov	sp, r7
 810166e:	f85d 7b04 	ldr.w	r7, [sp], #4
 8101672:	4770      	bx	lr

08101674 <os_getOsVar>:
********************************************************************************/
/* @cond S */
__SEC_START(__OS_FUNC_SECTION_START)
/* @endcond*/
__OS_FUNC_SECTION CosmOS_OsVariableType * os_getOsVar(void)
{
 8101674:	b480      	push	{r7}
 8101676:	af00      	add	r7, sp, #0
    return &OsVar;
 8101678:	4b02      	ldr	r3, [pc, #8]	; (8101684 <os_getOsVar+0x10>)
}
 810167a:	4618      	mov	r0, r3
 810167c:	46bd      	mov	sp, r7
 810167e:	f85d 7b04 	ldr.w	r7, [sp], #4
 8101682:	4770      	bx	lr
 8101684:	380080fc 	.word	0x380080fc

08101688 <os_kernelPanic>:
********************************************************************************/
/* @cond S */
__SEC_START(__OS_FUNC_SECTION_START)
/* @endcond*/
__OS_FUNC_SECTION void os_kernelPanic(void)
{
 8101688:	b580      	push	{r7, lr}
 810168a:	b082      	sub	sp, #8
 810168c:	af00      	add	r7, sp, #0
	CosmOS_CoreVariableType * coreVar;


	coreVar = core_getCoreVar();
 810168e:	f7ff fe37 	bl	8101300 <core_getCoreVar>
 8101692:	6078      	str	r0, [r7, #4]
    coreVar->cfg->kernelPanicHook();
 8101694:	687b      	ldr	r3, [r7, #4]
 8101696:	681b      	ldr	r3, [r3, #0]
 8101698:	691b      	ldr	r3, [r3, #16]
 810169a:	4798      	blx	r3

	for(;;);
 810169c:	e7fe      	b.n	810169c <os_kernelPanic+0x14>

0810169e <os_start>:
{
 810169e:	b580      	push	{r7, lr}
 81016a0:	b082      	sub	sp, #8
 81016a2:	af00      	add	r7, sp, #0
 81016a4:	6078      	str	r0, [r7, #4]
    scheduler_start();
 81016a6:	f000 fac6 	bl	8101c36 <scheduler_start>
};
 81016aa:	bf00      	nop
 81016ac:	3708      	adds	r7, #8
 81016ae:	46bd      	mov	sp, r7
 81016b0:	bd80      	pop	{r7, pc}
 81016b2:	bf00      	nop

081016b4 <osBoot_bootValidate>:
********************************************************************************/
/* @cond S */
__SEC_START(__OS_FUNC_SECTION_START)
/* @endcond*/
__OS_FUNC_SECTION void osBoot_bootValidate(void)
{
 81016b4:	b580      	push	{r7, lr}
 81016b6:	b08c      	sub	sp, #48	; 0x30
 81016b8:	af00      	add	r7, sp, #0
	BitWidthType  coreId,
					programSectionsNumber;

	CosmOS_ProgramSectionConfigurationType * programSections;

	coreId = CILcore_getCoreId();
 81016ba:	f000 fe61 	bl	8102380 <CILcore_getCoreId>
 81016be:	62b8      	str	r0, [r7, #40]	; 0x28

	programSections = (CosmOS_ProgramSectionConfigurationType *)bootSections[coreId].programSections;
 81016c0:	4a2f      	ldr	r2, [pc, #188]	; (8101780 <osBoot_bootValidate+0xcc>)
 81016c2:	6abb      	ldr	r3, [r7, #40]	; 0x28
 81016c4:	f852 3033 	ldr.w	r3, [r2, r3, lsl #3]
 81016c8:	627b      	str	r3, [r7, #36]	; 0x24
	programSectionsNumber = bootSections[coreId].programSectionsNumber;
 81016ca:	4a2d      	ldr	r2, [pc, #180]	; (8101780 <osBoot_bootValidate+0xcc>)
 81016cc:	6abb      	ldr	r3, [r7, #40]	; 0x28
 81016ce:	00db      	lsls	r3, r3, #3
 81016d0:	4413      	add	r3, r2
 81016d2:	685b      	ldr	r3, [r3, #4]
 81016d4:	623b      	str	r3, [r7, #32]


	for (BitWidthType i=0; i < programSectionsNumber; i++)
 81016d6:	2300      	movs	r3, #0
 81016d8:	62fb      	str	r3, [r7, #44]	; 0x2c
 81016da:	e048      	b.n	810176e <osBoot_bootValidate+0xba>
	{
		osBoot_validateSection(programSections[i].startAddress,programSections[i].endAddress,programSections[i].flashAddress);
 81016dc:	6afa      	ldr	r2, [r7, #44]	; 0x2c
 81016de:	4613      	mov	r3, r2
 81016e0:	005b      	lsls	r3, r3, #1
 81016e2:	4413      	add	r3, r2
 81016e4:	009b      	lsls	r3, r3, #2
 81016e6:	461a      	mov	r2, r3
 81016e8:	6a7b      	ldr	r3, [r7, #36]	; 0x24
 81016ea:	4413      	add	r3, r2
 81016ec:	6818      	ldr	r0, [r3, #0]
 81016ee:	6afa      	ldr	r2, [r7, #44]	; 0x2c
 81016f0:	4613      	mov	r3, r2
 81016f2:	005b      	lsls	r3, r3, #1
 81016f4:	4413      	add	r3, r2
 81016f6:	009b      	lsls	r3, r3, #2
 81016f8:	461a      	mov	r2, r3
 81016fa:	6a7b      	ldr	r3, [r7, #36]	; 0x24
 81016fc:	4413      	add	r3, r2
 81016fe:	6859      	ldr	r1, [r3, #4]
 8101700:	6afa      	ldr	r2, [r7, #44]	; 0x2c
 8101702:	4613      	mov	r3, r2
 8101704:	005b      	lsls	r3, r3, #1
 8101706:	4413      	add	r3, r2
 8101708:	009b      	lsls	r3, r3, #2
 810170a:	461a      	mov	r2, r3
 810170c:	6a7b      	ldr	r3, [r7, #36]	; 0x24
 810170e:	4413      	add	r3, r2
 8101710:	689b      	ldr	r3, [r3, #8]
 8101712:	61f8      	str	r0, [r7, #28]
 8101714:	61b9      	str	r1, [r7, #24]
 8101716:	617b      	str	r3, [r7, #20]
	BitWidthType size = (BitWidthType)(sectionEnd - sectionStart);
 8101718:	69ba      	ldr	r2, [r7, #24]
 810171a:	69fb      	ldr	r3, [r7, #28]
 810171c:	1ad3      	subs	r3, r2, r3
 810171e:	613b      	str	r3, [r7, #16]
	unsigned char *pDst = sectionStart;
 8101720:	69fb      	ldr	r3, [r7, #28]
 8101722:	60fb      	str	r3, [r7, #12]
	unsigned char *pSrc = sectionStartInFlash;
 8101724:	697b      	ldr	r3, [r7, #20]
 8101726:	60bb      	str	r3, [r7, #8]
	for ( BitWidthType i = 0; i < (size * sizeof(BitWidthType)); i++ )
 8101728:	2300      	movs	r3, #0
 810172a:	607b      	str	r3, [r7, #4]
 810172c:	e016      	b.n	810175c <osBoot_bootValidate+0xa8>
		cosmosAssert( (*pDst++) IS_EQUAL_TO (*pSrc++) );
 810172e:	68fb      	ldr	r3, [r7, #12]
 8101730:	1c5a      	adds	r2, r3, #1
 8101732:	60fa      	str	r2, [r7, #12]
 8101734:	781a      	ldrb	r2, [r3, #0]
 8101736:	68bb      	ldr	r3, [r7, #8]
 8101738:	1c59      	adds	r1, r3, #1
 810173a:	60b9      	str	r1, [r7, #8]
 810173c:	781b      	ldrb	r3, [r3, #0]
 810173e:	429a      	cmp	r2, r3
 8101740:	bf0c      	ite	eq
 8101742:	2301      	moveq	r3, #1
 8101744:	2300      	movne	r3, #0
 8101746:	b2db      	uxtb	r3, r3
 8101748:	603b      	str	r3, [r7, #0]
    if ( IS_NOT( result ) )
 810174a:	683b      	ldr	r3, [r7, #0]
 810174c:	2b00      	cmp	r3, #0
 810174e:	d101      	bne.n	8101754 <osBoot_bootValidate+0xa0>
        os_kernelPanic();
 8101750:	f7ff ff9a 	bl	8101688 <os_kernelPanic>
}
 8101754:	bf00      	nop
	for ( BitWidthType i = 0; i < (size * sizeof(BitWidthType)); i++ )
 8101756:	687b      	ldr	r3, [r7, #4]
 8101758:	3301      	adds	r3, #1
 810175a:	607b      	str	r3, [r7, #4]
 810175c:	693b      	ldr	r3, [r7, #16]
 810175e:	009b      	lsls	r3, r3, #2
 8101760:	687a      	ldr	r2, [r7, #4]
 8101762:	429a      	cmp	r2, r3
 8101764:	d3e3      	bcc.n	810172e <osBoot_bootValidate+0x7a>
}
 8101766:	bf00      	nop
	for (BitWidthType i=0; i < programSectionsNumber; i++)
 8101768:	6afb      	ldr	r3, [r7, #44]	; 0x2c
 810176a:	3301      	adds	r3, #1
 810176c:	62fb      	str	r3, [r7, #44]	; 0x2c
 810176e:	6afa      	ldr	r2, [r7, #44]	; 0x2c
 8101770:	6a3b      	ldr	r3, [r7, #32]
 8101772:	429a      	cmp	r2, r3
 8101774:	d3b2      	bcc.n	81016dc <osBoot_bootValidate+0x28>
	}
};
 8101776:	bf00      	nop
 8101778:	bf00      	nop
 810177a:	3730      	adds	r7, #48	; 0x30
 810177c:	46bd      	mov	sp, r7
 810177e:	bd80      	pop	{r7, pc}
 8101780:	08106a90 	.word	0x08106a90

08101784 <osInit_init>:
********************************************************************************/
/* @cond S */
__SEC_START(__OS_FUNC_SECTION_START)
/* @endcond*/
__OS_FUNC_SECTION void osInit_init(BitWidthType entityId)
{
 8101784:	b580      	push	{r7, lr}
 8101786:	b084      	sub	sp, #16
 8101788:	af00      	add	r7, sp, #0
 810178a:	6078      	str	r0, [r7, #4]
    CosmOS_CoreVariableType * coreVar;
    CosmOS_OsVariableType * osVar;
	//TODO check if the os sections were booted and init and start was not called yet

	osVar = os_getOsVar();
 810178c:	f7ff ff72 	bl	8101674 <os_getOsVar>
 8101790:	60f8      	str	r0, [r7, #12]

	CILcore_setCoreVar(osVar);
 8101792:	68f8      	ldr	r0, [r7, #12]
 8101794:	f000 fe00 	bl	8102398 <CILcore_setCoreVar>

    coreVar = core_getCoreVar();
 8101798:	f7ff fdb2 	bl	8101300 <core_getCoreVar>
 810179c:	60b8      	str	r0, [r7, #8]

    switchMemoryProtection_init(coreVar->cfg->codeMemoryHighAddress, \
 810179e:	68bb      	ldr	r3, [r7, #8]
 81017a0:	681b      	ldr	r3, [r3, #0]
 81017a2:	6a18      	ldr	r0, [r3, #32]
 81017a4:	68bb      	ldr	r3, [r7, #8]
 81017a6:	681b      	ldr	r3, [r3, #0]
 81017a8:	69d9      	ldr	r1, [r3, #28]
 81017aa:	68bb      	ldr	r3, [r7, #8]
 81017ac:	681b      	ldr	r3, [r3, #0]
 81017ae:	699a      	ldr	r2, [r3, #24]
 81017b0:	68bb      	ldr	r3, [r7, #8]
 81017b2:	681b      	ldr	r3, [r3, #0]
 81017b4:	695b      	ldr	r3, [r3, #20]
 81017b6:	f7ff feb0 	bl	810151a <memoryProtection_init>
								coreVar->cfg->codeMemoryLowAddress, \
								coreVar->cfg->stackMemoryHighAddress, \
								coreVar->cfg->stackMemoryLowAddress );
	osBoot_bootValidate();
 81017ba:	f7ff ff7b 	bl	81016b4 <osBoot_bootValidate>

    stackInit_init( coreVar );
 81017be:	68b8      	ldr	r0, [r7, #8]
 81017c0:	f000 fcd4 	bl	810216c <stackInit_init>

	memoryManager_heapInit();
 81017c4:	f7ff fe71 	bl	81014aa <memoryManager_heapInit>

    coreSync_getBarrier( coreVar, OS_INIT_ID );
 81017c8:	2100      	movs	r1, #0
 81017ca:	68b8      	ldr	r0, [r7, #8]
 81017cc:	f7ff fdcf 	bl	810136e <coreSync_getBarrier>

	__SUPRESS_UNUSED_VAR(entityId);

};
 81017d0:	bf00      	nop
 81017d2:	3710      	adds	r7, #16
 81017d4:	46bd      	mov	sp, r7
 81017d6:	bd80      	pop	{r7, pc}

081017d8 <permission_tryAccess>:
********************************************************************************/
/* @cond S */
__SEC_START(__OS_FUNC_SECTION_START)
/* @endcond*/
__OS_FUNC_SECTION CosmOS_AccessStateType permission_tryAccess(CosmOS_PermissionsConfigurationType * permission,CosmOS_CoreVariableType * coreVar)
{
 81017d8:	b580      	push	{r7, lr}
 81017da:	b088      	sub	sp, #32
 81017dc:	af00      	add	r7, sp, #0
 81017de:	6078      	str	r0, [r7, #4]
 81017e0:	6039      	str	r1, [r7, #0]
 81017e2:	683b      	ldr	r3, [r7, #0]
 81017e4:	60bb      	str	r3, [r7, #8]
 81017e6:	68bb      	ldr	r3, [r7, #8]
 81017e8:	685b      	ldr	r3, [r3, #4]
    CosmOS_AccessStateType accessState;

    CosmOS_SchedulableVariableType * schedulableVar;

    schedulableVar = core_getCoreSchedulableInCurrentContext( coreVar );
 81017ea:	61fb      	str	r3, [r7, #28]
 81017ec:	687b      	ldr	r3, [r7, #4]
 81017ee:	617b      	str	r3, [r7, #20]
 81017f0:	69fb      	ldr	r3, [r7, #28]
 81017f2:	613b      	str	r3, [r7, #16]
    cosmosAssert( IS_NOT( permission->bitLocksTasks[SchedulableIdToBitLock[schedulableVar->cfg->id]] & \
 81017f4:	697b      	ldr	r3, [r7, #20]
 81017f6:	681a      	ldr	r2, [r3, #0]
 81017f8:	693b      	ldr	r3, [r7, #16]
 81017fa:	681b      	ldr	r3, [r3, #0]
 81017fc:	691b      	ldr	r3, [r3, #16]
 81017fe:	491c      	ldr	r1, [pc, #112]	; (8101870 <permission_tryAccess+0x98>)
 8101800:	5ccb      	ldrb	r3, [r1, r3]
 8101802:	009b      	lsls	r3, r3, #2
 8101804:	4413      	add	r3, r2
 8101806:	681a      	ldr	r2, [r3, #0]
 8101808:	697b      	ldr	r3, [r7, #20]
 810180a:	6859      	ldr	r1, [r3, #4]
 810180c:	693b      	ldr	r3, [r7, #16]
 810180e:	681b      	ldr	r3, [r3, #0]
 8101810:	691b      	ldr	r3, [r3, #16]
 8101812:	4817      	ldr	r0, [pc, #92]	; (8101870 <permission_tryAccess+0x98>)
 8101814:	5cc3      	ldrb	r3, [r0, r3]
 8101816:	009b      	lsls	r3, r3, #2
 8101818:	440b      	add	r3, r1
 810181a:	681b      	ldr	r3, [r3, #0]
 810181c:	4013      	ands	r3, r2
 810181e:	2b00      	cmp	r3, #0
 8101820:	bf0c      	ite	eq
 8101822:	2301      	moveq	r3, #1
 8101824:	2300      	movne	r3, #0
 8101826:	b2db      	uxtb	r3, r3
 8101828:	60fb      	str	r3, [r7, #12]
    if ( IS_NOT( result ) )
 810182a:	68fb      	ldr	r3, [r7, #12]
 810182c:	2b00      	cmp	r3, #0
 810182e:	d101      	bne.n	8101834 <permission_tryAccess+0x5c>
        os_kernelPanic();
 8101830:	f7ff ff2a 	bl	8101688 <os_kernelPanic>
}
 8101834:	bf00      	nop
    return ((( permission->bitLocksTasks[SchedulableIdToBitLock[schedulableVar->cfg->id]] >> schedulableVar->cfg->id ) & BITLOCK_MASK ) ? \
 8101836:	697b      	ldr	r3, [r7, #20]
 8101838:	681a      	ldr	r2, [r3, #0]
 810183a:	693b      	ldr	r3, [r7, #16]
 810183c:	681b      	ldr	r3, [r3, #0]
 810183e:	691b      	ldr	r3, [r3, #16]
 8101840:	490b      	ldr	r1, [pc, #44]	; (8101870 <permission_tryAccess+0x98>)
 8101842:	5ccb      	ldrb	r3, [r1, r3]
 8101844:	009b      	lsls	r3, r3, #2
 8101846:	4413      	add	r3, r2
 8101848:	681a      	ldr	r2, [r3, #0]
 810184a:	693b      	ldr	r3, [r7, #16]
 810184c:	681b      	ldr	r3, [r3, #0]
 810184e:	691b      	ldr	r3, [r3, #16]
 8101850:	fa22 f303 	lsr.w	r3, r2, r3
 8101854:	f003 0301 	and.w	r3, r3, #1
            ACCESS_STATE_ENUM__ALLOWED : ACCESS_STATE_ENUM__DENIED );
 8101858:	2b00      	cmp	r3, #0
 810185a:	d001      	beq.n	8101860 <permission_tryAccess+0x88>
 810185c:	2300      	movs	r3, #0
 810185e:	e001      	b.n	8101864 <permission_tryAccess+0x8c>
 8101860:	f04f 33aa 	mov.w	r3, #2863311530	; 0xaaaaaaaa
    accessState = permission_trySchedulableAccess( permission, schedulableVar );
 8101864:	61bb      	str	r3, [r7, #24]

    return accessState;
 8101866:	69bb      	ldr	r3, [r7, #24]
}
 8101868:	4618      	mov	r0, r3
 810186a:	3720      	adds	r7, #32
 810186c:	46bd      	mov	sp, r7
 810186e:	bd80      	pop	{r7, pc}
 8101870:	380000c0 	.word	0x380000c0

08101874 <schedulable_setExecutionStateToFinished>:
********************************************************************************/
/* @cond S */
__SEC_START(__OS_FUNC_SECTION_START)
/* @endcond*/
__OS_FUNC_SECTION void schedulable_setExecutionStateToFinished(BitWidthType entityId)
{
 8101874:	b580      	push	{r7, lr}
 8101876:	b088      	sub	sp, #32
 8101878:	af00      	add	r7, sp, #0
 810187a:	6078      	str	r0, [r7, #4]
    CosmOS_CoreVariableType * coreVar;
    CosmOS_SchedulableVariableType * schedulableVar;


    coreVar = core_getCoreVar();
 810187c:	f7ff fd40 	bl	8101300 <core_getCoreVar>
 8101880:	61f8      	str	r0, [r7, #28]
 8101882:	69fb      	ldr	r3, [r7, #28]
 8101884:	60fb      	str	r3, [r7, #12]
 8101886:	68fb      	ldr	r3, [r7, #12]
 8101888:	685b      	ldr	r3, [r3, #4]

    schedulableVar = core_getCoreSchedulableInCurrentContext( coreVar );
 810188a:	61bb      	str	r3, [r7, #24]
 810188c:	69bb      	ldr	r3, [r7, #24]
 810188e:	617b      	str	r3, [r7, #20]
 8101890:	2302      	movs	r3, #2
 8101892:	74fb      	strb	r3, [r7, #19]
  *
  * @return CosmOS_SchedulableStateType
********************************************************************************/
__STATIC_FORCEINLINE void schedulable_setState(CosmOS_SchedulableVariableType * schedulable, CosmOS_SchedulableStateType stateParam)
{
    schedulable->state = stateParam;
 8101894:	697b      	ldr	r3, [r7, #20]
 8101896:	7cfa      	ldrb	r2, [r7, #19]
 8101898:	711a      	strb	r2, [r3, #4]
}
 810189a:	bf00      	nop

    schedulable_setState( schedulableVar, SCHEDULABLE_INSTANCE_ENUM__EXECUTED );

	__SUPRESS_UNUSED_VAR(entityId);
};
 810189c:	bf00      	nop
 810189e:	3720      	adds	r7, #32
 81018a0:	46bd      	mov	sp, r7
 81018a2:	bd80      	pop	{r7, pc}

081018a4 <scheduler_performanceScheduling>:
/* @cond S */
__SEC_START(__OS_FUNC_SECTION_START)
/* @endcond*/
__OS_FUNC_SECTION void scheduler_performanceScheduling(CosmOS_SchedulerVariableType * schedulerVar, CosmOS_SchedulableVariableType ** schedulableVar,\
StackPointerType * stackPointerRetVal,BitWidthType * timerTicks)
{
 81018a4:	b580      	push	{r7, lr}
 81018a6:	b092      	sub	sp, #72	; 0x48
 81018a8:	af00      	add	r7, sp, #0
 81018aa:	60f8      	str	r0, [r7, #12]
 81018ac:	60b9      	str	r1, [r7, #8]
 81018ae:	607a      	str	r2, [r7, #4]
 81018b0:	603b      	str	r3, [r7, #0]
 81018b2:	68fb      	ldr	r3, [r7, #12]
 81018b4:	613b      	str	r3, [r7, #16]
  *
  * @return BitWidthType
********************************************************************************/
__STATIC_FORCEINLINE BitWidthType scheduler_getSchedulerThreadListIterator(CosmOS_SchedulerVariableType * scheduler)
{
    return (scheduler->threadListIterator);
 81018b6:	693b      	ldr	r3, [r7, #16]
 81018b8:	68db      	ldr	r3, [r3, #12]
        threadListElementsNum;

    CosmOS_ThreadVariableType *threadVar;


    threadListIterator = scheduler_getSchedulerThreadListIterator(schedulerVar);
 81018ba:	647b      	str	r3, [r7, #68]	; 0x44
 81018bc:	68fb      	ldr	r3, [r7, #12]
 81018be:	617b      	str	r3, [r7, #20]
    return (scheduler->cfg->threadListElementsNum);
 81018c0:	697b      	ldr	r3, [r7, #20]
 81018c2:	681b      	ldr	r3, [r3, #0]
 81018c4:	695b      	ldr	r3, [r3, #20]
    threadListElementsNum = scheduler_getSchedulerThreadListElementsNum(schedulerVar);
 81018c6:	643b      	str	r3, [r7, #64]	; 0x40

    cosmosAssert(threadListIterator < threadListElementsNum);
 81018c8:	6c7a      	ldr	r2, [r7, #68]	; 0x44
 81018ca:	6c3b      	ldr	r3, [r7, #64]	; 0x40
 81018cc:	429a      	cmp	r2, r3
 81018ce:	bf34      	ite	cc
 81018d0:	2301      	movcc	r3, #1
 81018d2:	2300      	movcs	r3, #0
 81018d4:	b2db      	uxtb	r3, r3
 81018d6:	61bb      	str	r3, [r7, #24]
    if ( IS_NOT( result ) )
 81018d8:	69bb      	ldr	r3, [r7, #24]
 81018da:	2b00      	cmp	r3, #0
 81018dc:	d101      	bne.n	81018e2 <scheduler_performanceScheduling+0x3e>
        os_kernelPanic();
 81018de:	f7ff fed3 	bl	8101688 <os_kernelPanic>
}
 81018e2:	bf00      	nop
 81018e4:	68fb      	ldr	r3, [r7, #12]
 81018e6:	623b      	str	r3, [r7, #32]
 81018e8:	6c7b      	ldr	r3, [r7, #68]	; 0x44
 81018ea:	61fb      	str	r3, [r7, #28]
  *
  * @return CosmOS_ThreadVariableType *
********************************************************************************/
__STATIC_FORCEINLINE CosmOS_ThreadVariableType * scheduler_getSchedulerThreadListThreadVar(CosmOS_SchedulerVariableType * scheduler, BitWidthType threadListIterator)
{
    return (CosmOS_ThreadVariableType *)(scheduler->cfg->threadList[threadListIterator].threadVar);
 81018ec:	6a3b      	ldr	r3, [r7, #32]
 81018ee:	681b      	ldr	r3, [r3, #0]
 81018f0:	685a      	ldr	r2, [r3, #4]
 81018f2:	69fb      	ldr	r3, [r7, #28]
 81018f4:	009b      	lsls	r3, r3, #2
 81018f6:	4413      	add	r3, r2
 81018f8:	681b      	ldr	r3, [r3, #0]

    threadVar = scheduler_getSchedulerThreadListThreadVar(schedulerVar, threadListIterator);
 81018fa:	63fb      	str	r3, [r7, #60]	; 0x3c
 81018fc:	6bfb      	ldr	r3, [r7, #60]	; 0x3c
 81018fe:	627b      	str	r3, [r7, #36]	; 0x24
  *
  * @return CosmOS_SchedulableVariableType *
********************************************************************************/
__STATIC_FORCEINLINE CosmOS_SchedulableVariableType * thread_getThreadSchedulable(CosmOS_ThreadVariableType * thread)
{
    return (CosmOS_SchedulableVariableType *)(thread->schedulable);
 8101900:	6a7b      	ldr	r3, [r7, #36]	; 0x24
 8101902:	685a      	ldr	r2, [r3, #4]

    *schedulableVar = thread_getThreadSchedulable(threadVar);
 8101904:	68bb      	ldr	r3, [r7, #8]
 8101906:	601a      	str	r2, [r3, #0]
    *stackPointerRetVal = schedulable_getStackPointer(*schedulableVar);
 8101908:	68bb      	ldr	r3, [r7, #8]
 810190a:	681b      	ldr	r3, [r3, #0]
 810190c:	62bb      	str	r3, [r7, #40]	; 0x28
    return (schedulable->stackPointer);
 810190e:	6abb      	ldr	r3, [r7, #40]	; 0x28
 8101910:	689a      	ldr	r2, [r3, #8]
 8101912:	687b      	ldr	r3, [r7, #4]
 8101914:	601a      	str	r2, [r3, #0]

    threadListIterator = ((threadListIterator + 1) % threadListElementsNum);
 8101916:	6c7b      	ldr	r3, [r7, #68]	; 0x44
 8101918:	3301      	adds	r3, #1
 810191a:	6c3a      	ldr	r2, [r7, #64]	; 0x40
 810191c:	fbb3 f2f2 	udiv	r2, r3, r2
 8101920:	6c39      	ldr	r1, [r7, #64]	; 0x40
 8101922:	fb01 f202 	mul.w	r2, r1, r2
 8101926:	1a9b      	subs	r3, r3, r2
 8101928:	647b      	str	r3, [r7, #68]	; 0x44
 810192a:	68fb      	ldr	r3, [r7, #12]
 810192c:	633b      	str	r3, [r7, #48]	; 0x30
 810192e:	6c7b      	ldr	r3, [r7, #68]	; 0x44
 8101930:	62fb      	str	r3, [r7, #44]	; 0x2c
  *
  * @return none
********************************************************************************/
__STATIC_FORCEINLINE void scheduler_setSchedulerThreadListIterator(CosmOS_SchedulerVariableType * scheduler, BitWidthType threadListIteratorParam)
{
    scheduler->threadListIterator = threadListIteratorParam;
 8101932:	6b3b      	ldr	r3, [r7, #48]	; 0x30
 8101934:	6afa      	ldr	r2, [r7, #44]	; 0x2c
 8101936:	60da      	str	r2, [r3, #12]
}
 8101938:	bf00      	nop
 810193a:	68fb      	ldr	r3, [r7, #12]
 810193c:	637b      	str	r3, [r7, #52]	; 0x34
    return (scheduler->cfg->preemptTick);
 810193e:	6b7b      	ldr	r3, [r7, #52]	; 0x34
 8101940:	681b      	ldr	r3, [r3, #0]
 8101942:	68db      	ldr	r3, [r3, #12]
    scheduler_setSchedulerThreadListIterator(schedulerVar, threadListIterator);

    preemptTick = scheduler_getSchedulerPreemptTick(schedulerVar);
 8101944:	63bb      	str	r3, [r7, #56]	; 0x38
    *timerTicks = preemptTick;
 8101946:	683b      	ldr	r3, [r7, #0]
 8101948:	6bba      	ldr	r2, [r7, #56]	; 0x38
 810194a:	601a      	str	r2, [r3, #0]
}
 810194c:	bf00      	nop
 810194e:	3748      	adds	r7, #72	; 0x48
 8101950:	46bd      	mov	sp, r7
 8101952:	bd80      	pop	{r7, pc}

08101954 <scheduler_classicScheduling>:
/* @cond S */
__SEC_START(__OS_FUNC_SECTION_START)
/* @endcond*/
__OS_FUNC_SECTION void scheduler_classicScheduling(CosmOS_SchedulerVariableType * schedulerVar, CosmOS_SchedulableVariableType ** schedulableVar,\
StackPointerType * stackPointerRetVal,BitWidthType * timerTicks, BitWidthType startTick, BitWidthType currentTick)
{
 8101954:	b580      	push	{r7, lr}
 8101956:	b088      	sub	sp, #32
 8101958:	af00      	add	r7, sp, #0
 810195a:	60f8      	str	r0, [r7, #12]
 810195c:	60b9      	str	r1, [r7, #8]
 810195e:	607a      	str	r2, [r7, #4]
 8101960:	603b      	str	r3, [r7, #0]
 8101962:	68fb      	ldr	r3, [r7, #12]
 8101964:	617b      	str	r3, [r7, #20]
    return (CosmOS_TaskVariableType *)(scheduler->cfg->idleTaskVar);
 8101966:	697b      	ldr	r3, [r7, #20]
 8101968:	681b      	ldr	r3, [r3, #0]
 810196a:	6adb      	ldr	r3, [r3, #44]	; 0x2c
    CosmOS_TaskVariableType * taskVar;


    taskVar = scheduler_getSchedulerIdleTaskVar( schedulerVar );
 810196c:	61fb      	str	r3, [r7, #28]
 810196e:	69fb      	ldr	r3, [r7, #28]
 8101970:	61bb      	str	r3, [r7, #24]
  *
  * @return CosmOS_SchedulableVariableType *
********************************************************************************/
__STATIC_FORCEINLINE CosmOS_SchedulableVariableType * task_getTaskSchedulable(CosmOS_TaskVariableType * task)
{
    return (CosmOS_SchedulableVariableType *)(task->schedulable);
 8101972:	69bb      	ldr	r3, [r7, #24]
 8101974:	685a      	ldr	r2, [r3, #4]

    *schedulableVar = task_getTaskSchedulable( taskVar );
 8101976:	68bb      	ldr	r3, [r7, #8]
 8101978:	601a      	str	r2, [r3, #0]
    *stackPointerRetVal = stackInit_schedulableStackInit( *schedulableVar );
 810197a:	68bb      	ldr	r3, [r7, #8]
 810197c:	681b      	ldr	r3, [r3, #0]
 810197e:	4618      	mov	r0, r3
 8101980:	f000 fbce 	bl	8102120 <stackInit_schedulableStackInit>
 8101984:	4602      	mov	r2, r0
 8101986:	687b      	ldr	r3, [r7, #4]
 8101988:	601a      	str	r2, [r3, #0]

    if ( startTick < currentTick )
 810198a:	6aba      	ldr	r2, [r7, #40]	; 0x28
 810198c:	6afb      	ldr	r3, [r7, #44]	; 0x2c
 810198e:	429a      	cmp	r2, r3
 8101990:	d207      	bcs.n	81019a2 <scheduler_classicScheduling+0x4e>
 8101992:	68fb      	ldr	r3, [r7, #12]
 8101994:	613b      	str	r3, [r7, #16]
    return (scheduler->cfg->lastToFirstTaskTicks);
 8101996:	693b      	ldr	r3, [r7, #16]
 8101998:	681b      	ldr	r3, [r3, #0]
 810199a:	699a      	ldr	r2, [r3, #24]
    {
        *timerTicks = scheduler_getSchedulerLastToFirstTaskTicks( schedulerVar );
 810199c:	683b      	ldr	r3, [r7, #0]
 810199e:	601a      	str	r2, [r3, #0]
    }
    else
    {
        *timerTicks = startTick - currentTick;
    }
}
 81019a0:	e004      	b.n	81019ac <scheduler_classicScheduling+0x58>
        *timerTicks = startTick - currentTick;
 81019a2:	6aba      	ldr	r2, [r7, #40]	; 0x28
 81019a4:	6afb      	ldr	r3, [r7, #44]	; 0x2c
 81019a6:	1ad2      	subs	r2, r2, r3
 81019a8:	683b      	ldr	r3, [r7, #0]
 81019aa:	601a      	str	r2, [r3, #0]
}
 81019ac:	bf00      	nop
 81019ae:	3720      	adds	r7, #32
 81019b0:	46bd      	mov	sp, r7
 81019b2:	bd80      	pop	{r7, pc}

081019b4 <scheduler_scheduleNextInstance>:
********************************************************************************/
/* @cond S */
__SEC_START(__OS_FUNC_SECTION_START)
/* @endcond*/
__OS_FUNC_SECTION StackPointerType scheduler_scheduleNextInstance(StackPointerType stackPointer)
{
 81019b4:	b580      	push	{r7, lr}
 81019b6:	b0b6      	sub	sp, #216	; 0xd8
 81019b8:	af00      	add	r7, sp, #0
 81019ba:	6078      	str	r0, [r7, #4]
    CosmOS_SchedulerVariableType * schedulerVar;
    CosmOS_SchedulableVariableType * schedulableVar;
    CosmOS_SchedulableVariableType * priorSchedulableVar;


    coreVar = core_getCoreVar();
 81019bc:	f7ff fca0 	bl	8101300 <core_getCoreVar>
 81019c0:	f8c7 00d0 	str.w	r0, [r7, #208]	; 0xd0
 81019c4:	f8d7 30d0 	ldr.w	r3, [r7, #208]	; 0xd0
 81019c8:	f8c7 3088 	str.w	r3, [r7, #136]	; 0x88
    return (core->schedulerVar);
 81019cc:	f8d7 3088 	ldr.w	r3, [r7, #136]	; 0x88
 81019d0:	691b      	ldr	r3, [r3, #16]

    schedulerVar = core_getCoreSchedulerVar( coreVar );
 81019d2:	f8c7 30cc 	str.w	r3, [r7, #204]	; 0xcc
 81019d6:	f8d7 30d0 	ldr.w	r3, [r7, #208]	; 0xd0
 81019da:	f8c7 308c 	str.w	r3, [r7, #140]	; 0x8c
    return (core->schedulableInExecution);
 81019de:	f8d7 308c 	ldr.w	r3, [r7, #140]	; 0x8c
 81019e2:	685b      	ldr	r3, [r3, #4]
    priorSchedulableVar = core_getCoreSchedulableInCurrentContext( coreVar );
 81019e4:	f8c7 30c8 	str.w	r3, [r7, #200]	; 0xc8
 81019e8:	f8d7 30cc 	ldr.w	r3, [r7, #204]	; 0xcc
 81019ec:	f8c7 3090 	str.w	r3, [r7, #144]	; 0x90
    return (scheduler->cfg->hyperTick);
 81019f0:	f8d7 3090 	ldr.w	r3, [r7, #144]	; 0x90
 81019f4:	681b      	ldr	r3, [r3, #0]
 81019f6:	689b      	ldr	r3, [r3, #8]

    hyperTick = scheduler_getSchedulerHyperTick( schedulerVar );
 81019f8:	f8c7 30c4 	str.w	r3, [r7, #196]	; 0xc4
 81019fc:	f8d7 30cc 	ldr.w	r3, [r7, #204]	; 0xcc
 8101a00:	f8c7 3094 	str.w	r3, [r7, #148]	; 0x94
    return (scheduler->schedulerState);
 8101a04:	f8d7 3094 	ldr.w	r3, [r7, #148]	; 0x94
 8101a08:	7c1b      	ldrb	r3, [r3, #16]
    schedulerState = scheduler_getSchedulerState( schedulerVar );
 8101a0a:	f887 30d7 	strb.w	r3, [r7, #215]	; 0xd7
 8101a0e:	f8d7 30cc 	ldr.w	r3, [r7, #204]	; 0xcc
 8101a12:	f8c7 3098 	str.w	r3, [r7, #152]	; 0x98
    return (scheduler->currentTick);
 8101a16:	f8d7 3098 	ldr.w	r3, [r7, #152]	; 0x98
 8101a1a:	685b      	ldr	r3, [r3, #4]
    currentTick = scheduler_getSchedulerCurrentTick( schedulerVar );
 8101a1c:	f8c7 30c0 	str.w	r3, [r7, #192]	; 0xc0
 8101a20:	f8d7 30cc 	ldr.w	r3, [r7, #204]	; 0xcc
 8101a24:	f8c7 309c 	str.w	r3, [r7, #156]	; 0x9c
    return (scheduler->scheduleTableIterator);
 8101a28:	f8d7 309c 	ldr.w	r3, [r7, #156]	; 0x9c
 8101a2c:	689b      	ldr	r3, [r3, #8]
    scheduleTableIterator = scheduler_getSchedulerScheduleTableIterator( schedulerVar );
 8101a2e:	617b      	str	r3, [r7, #20]
 8101a30:	f8d7 30cc 	ldr.w	r3, [r7, #204]	; 0xcc
 8101a34:	f8c7 30a0 	str.w	r3, [r7, #160]	; 0xa0
    return (scheduler->cfg->scheduleTableElementsNum);
 8101a38:	f8d7 30a0 	ldr.w	r3, [r7, #160]	; 0xa0
 8101a3c:	681b      	ldr	r3, [r3, #0]
 8101a3e:	691b      	ldr	r3, [r3, #16]
    scheduleTableElementsNum = scheduler_getSchedulerScheduleTableElementsNum( schedulerVar );
 8101a40:	f8c7 30bc 	str.w	r3, [r7, #188]	; 0xbc
	startTick = scheduler_getSchedulerScheduleTableStartTick( schedulerVar, scheduleTableIterator );
 8101a44:	697b      	ldr	r3, [r7, #20]
 8101a46:	f8d7 20cc 	ldr.w	r2, [r7, #204]	; 0xcc
 8101a4a:	f8c7 20a8 	str.w	r2, [r7, #168]	; 0xa8
 8101a4e:	f8c7 30a4 	str.w	r3, [r7, #164]	; 0xa4
    return (scheduler->cfg->scheduleTable[scheduleTableIterator].startTick);
 8101a52:	f8d7 30a8 	ldr.w	r3, [r7, #168]	; 0xa8
 8101a56:	681b      	ldr	r3, [r3, #0]
 8101a58:	681a      	ldr	r2, [r3, #0]
 8101a5a:	f8d7 30a4 	ldr.w	r3, [r7, #164]	; 0xa4
 8101a5e:	00db      	lsls	r3, r3, #3
 8101a60:	4413      	add	r3, r2
 8101a62:	681b      	ldr	r3, [r3, #0]
 8101a64:	f8c7 30b8 	str.w	r3, [r7, #184]	; 0xb8

    //TODO: this should be moved to the sysTick interrupt with higher priority to have faster response - without else, that should stay here
    if ( schedulerState IS_EQUAL_TO SCHEDULER_STATE_ENUM__TASK_EXECUTED_IN_WCET_CHECK )
 8101a68:	f897 30d7 	ldrb.w	r3, [r7, #215]	; 0xd7
 8101a6c:	2b01      	cmp	r3, #1
 8101a6e:	d109      	bne.n	8101a84 <scheduler_scheduleNextInstance+0xd0>
 8101a70:	f8d7 30c8 	ldr.w	r3, [r7, #200]	; 0xc8
 8101a74:	f8c7 3084 	str.w	r3, [r7, #132]	; 0x84
    return (schedulable->state);
 8101a78:	f8d7 3084 	ldr.w	r3, [r7, #132]	; 0x84
 8101a7c:	791b      	ldrb	r3, [r3, #4]
    {
        CosmOS_SchedulableStateType schedulableState;

        schedulableState = schedulable_getState( priorSchedulableVar );
 8101a7e:	f887 30b7 	strb.w	r3, [r7, #183]	; 0xb7
 8101a82:	e00a      	b.n	8101a9a <scheduler_scheduleNextInstance+0xe6>
 8101a84:	f8d7 30c8 	ldr.w	r3, [r7, #200]	; 0xc8
 8101a88:	f8c7 3080 	str.w	r3, [r7, #128]	; 0x80
 8101a8c:	687b      	ldr	r3, [r7, #4]
 8101a8e:	67fb      	str	r3, [r7, #124]	; 0x7c
  *
  * @return none
********************************************************************************/
__STATIC_FORCEINLINE void schedulable_setStackPointer(CosmOS_SchedulableVariableType * schedulable, StackPointerType stackPointerParam)
{
    schedulable->stackPointer = stackPointerParam;
 8101a90:	f8d7 3080 	ldr.w	r3, [r7, #128]	; 0x80
 8101a94:	6ffa      	ldr	r2, [r7, #124]	; 0x7c
 8101a96:	609a      	str	r2, [r3, #8]
}
 8101a98:	bf00      	nop
    {
        /* SCHEDULER_PERFORMANCE_SCHEDULING IS_EQUAL_TO ON */
        switchScheduler_setStackPointer( priorSchedulableVar, stackPointer );
    }

    if ( scheduleTableElementsNum AND startTick IS_EQUAL_TO currentTick )
 8101a9a:	f8d7 30bc 	ldr.w	r3, [r7, #188]	; 0xbc
 8101a9e:	2b00      	cmp	r3, #0
 8101aa0:	d060      	beq.n	8101b64 <scheduler_scheduleNextInstance+0x1b0>
 8101aa2:	f8d7 20b8 	ldr.w	r2, [r7, #184]	; 0xb8
 8101aa6:	f8d7 30c0 	ldr.w	r3, [r7, #192]	; 0xc0
 8101aaa:	429a      	cmp	r2, r3
 8101aac:	d15a      	bne.n	8101b64 <scheduler_scheduleNextInstance+0x1b0>
 8101aae:	f8d7 30cc 	ldr.w	r3, [r7, #204]	; 0xcc
 8101ab2:	67bb      	str	r3, [r7, #120]	; 0x78
 8101ab4:	f107 030c 	add.w	r3, r7, #12
 8101ab8:	677b      	str	r3, [r7, #116]	; 0x74
 8101aba:	f107 0310 	add.w	r3, r7, #16
 8101abe:	673b      	str	r3, [r7, #112]	; 0x70
 8101ac0:	f107 0318 	add.w	r3, r7, #24
 8101ac4:	66fb      	str	r3, [r7, #108]	; 0x6c
 8101ac6:	f107 0314 	add.w	r3, r7, #20
 8101aca:	66bb      	str	r3, [r7, #104]	; 0x68
 8101acc:	f8d7 30bc 	ldr.w	r3, [r7, #188]	; 0xbc
 8101ad0:	667b      	str	r3, [r7, #100]	; 0x64
    taskVar = scheduler_getSchedulerScheduleTableTaskVar( schedulerVar, *scheduleTableIterator );
 8101ad2:	6ebb      	ldr	r3, [r7, #104]	; 0x68
 8101ad4:	681b      	ldr	r3, [r3, #0]
 8101ad6:	6fba      	ldr	r2, [r7, #120]	; 0x78
 8101ad8:	663a      	str	r2, [r7, #96]	; 0x60
 8101ada:	65fb      	str	r3, [r7, #92]	; 0x5c
    return (CosmOS_TaskVariableType *)(scheduler->cfg->scheduleTable[scheduleTableIterator].taskVar);
 8101adc:	6e3b      	ldr	r3, [r7, #96]	; 0x60
 8101ade:	681b      	ldr	r3, [r3, #0]
 8101ae0:	681a      	ldr	r2, [r3, #0]
 8101ae2:	6dfb      	ldr	r3, [r7, #92]	; 0x5c
 8101ae4:	00db      	lsls	r3, r3, #3
 8101ae6:	4413      	add	r3, r2
 8101ae8:	685b      	ldr	r3, [r3, #4]
 8101aea:	65bb      	str	r3, [r7, #88]	; 0x58
 8101aec:	6dbb      	ldr	r3, [r7, #88]	; 0x58
 8101aee:	657b      	str	r3, [r7, #84]	; 0x54
 8101af0:	6d7b      	ldr	r3, [r7, #84]	; 0x54
 8101af2:	685a      	ldr	r2, [r3, #4]
    *schedulableVar = task_getTaskSchedulable( taskVar );
 8101af4:	6f7b      	ldr	r3, [r7, #116]	; 0x74
 8101af6:	601a      	str	r2, [r3, #0]
    *stackPointerRetVal = stackInit_schedulableStackInit( *schedulableVar );
 8101af8:	6f7b      	ldr	r3, [r7, #116]	; 0x74
 8101afa:	681b      	ldr	r3, [r3, #0]
 8101afc:	4618      	mov	r0, r3
 8101afe:	f000 fb0f 	bl	8102120 <stackInit_schedulableStackInit>
 8101b02:	4602      	mov	r2, r0
 8101b04:	6f3b      	ldr	r3, [r7, #112]	; 0x70
 8101b06:	601a      	str	r2, [r3, #0]
    schedulable_setState( *schedulableVar, SCHEDULABLE_INSTANCE_ENUM__RUNNING );
 8101b08:	6f7b      	ldr	r3, [r7, #116]	; 0x74
 8101b0a:	681b      	ldr	r3, [r3, #0]
 8101b0c:	653b      	str	r3, [r7, #80]	; 0x50
 8101b0e:	2301      	movs	r3, #1
 8101b10:	f887 304f 	strb.w	r3, [r7, #79]	; 0x4f
    schedulable->state = stateParam;
 8101b14:	6d3b      	ldr	r3, [r7, #80]	; 0x50
 8101b16:	f897 204f 	ldrb.w	r2, [r7, #79]	; 0x4f
 8101b1a:	711a      	strb	r2, [r3, #4]
}
 8101b1c:	bf00      	nop
    *scheduleTableIterator = ( ( (*scheduleTableIterator) + 1 ) % scheduleTableElementsNum );
 8101b1e:	6ebb      	ldr	r3, [r7, #104]	; 0x68
 8101b20:	681b      	ldr	r3, [r3, #0]
 8101b22:	3301      	adds	r3, #1
 8101b24:	6e7a      	ldr	r2, [r7, #100]	; 0x64
 8101b26:	fbb3 f2f2 	udiv	r2, r3, r2
 8101b2a:	6e79      	ldr	r1, [r7, #100]	; 0x64
 8101b2c:	fb01 f202 	mul.w	r2, r1, r2
 8101b30:	1a9a      	subs	r2, r3, r2
 8101b32:	6ebb      	ldr	r3, [r7, #104]	; 0x68
 8101b34:	601a      	str	r2, [r3, #0]
    scheduler_setSchedulerScheduleTableIterator( schedulerVar, *scheduleTableIterator );
 8101b36:	6ebb      	ldr	r3, [r7, #104]	; 0x68
 8101b38:	681b      	ldr	r3, [r3, #0]
 8101b3a:	6fba      	ldr	r2, [r7, #120]	; 0x78
 8101b3c:	64ba      	str	r2, [r7, #72]	; 0x48
 8101b3e:	647b      	str	r3, [r7, #68]	; 0x44
    scheduler->scheduleTableIterator = scheduleTableIteratorParam;
 8101b40:	6cbb      	ldr	r3, [r7, #72]	; 0x48
 8101b42:	6c7a      	ldr	r2, [r7, #68]	; 0x44
 8101b44:	609a      	str	r2, [r3, #8]
}
 8101b46:	bf00      	nop
 8101b48:	6dbb      	ldr	r3, [r7, #88]	; 0x58
 8101b4a:	643b      	str	r3, [r7, #64]	; 0x40
    return (task->cfg->wcet);
 8101b4c:	6c3b      	ldr	r3, [r7, #64]	; 0x40
 8101b4e:	681b      	ldr	r3, [r3, #0]
 8101b50:	681b      	ldr	r3, [r3, #0]
    wcet = task_getTaskWcet( taskVar );
 8101b52:	63fb      	str	r3, [r7, #60]	; 0x3c
    *timerTicks = wcet;
 8101b54:	6efb      	ldr	r3, [r7, #108]	; 0x6c
 8101b56:	6bfa      	ldr	r2, [r7, #60]	; 0x3c
 8101b58:	601a      	str	r2, [r3, #0]
}
 8101b5a:	bf00      	nop
    {
        scheduler_classicSchedulingCore(schedulerVar,&schedulableVar,&stackPointerRetVal,\
										&timerTicks, &scheduleTableIterator, scheduleTableElementsNum);

        schedulerState = SCHEDULER_STATE_ENUM__TASK_EXECUTED_IN_WCET_CHECK;
 8101b5c:	2301      	movs	r3, #1
 8101b5e:	f887 30d7 	strb.w	r3, [r7, #215]	; 0xd7
 8101b62:	e00c      	b.n	8101b7e <scheduler_scheduleNextInstance+0x1ca>
    }
    else
    {
        /* SCHEDULER_PERFORMANCE_SCHEDULING IS_EQUAL_TO ON */
        switchScheduler_performanceScheduling( schedulerVar, &schedulableVar,\
 8101b64:	f107 0318 	add.w	r3, r7, #24
 8101b68:	f107 0210 	add.w	r2, r7, #16
 8101b6c:	f107 010c 	add.w	r1, r7, #12
 8101b70:	f8d7 00cc 	ldr.w	r0, [r7, #204]	; 0xcc
 8101b74:	f7ff fe96 	bl	81018a4 <scheduler_performanceScheduling>
												&stackPointerRetVal, &timerTicks );
        /* SCHEDULER_PERFORMANCE_SCHEDULING IS_EQUAL_TO OFF */
        switchScheduler_classicScheduling( schedulerVar, &schedulableVar,\
											&stackPointerRetVal, &timerTicks, startTick, currentTick );

        schedulerState = SCHEDULER_STATE_ENUM__WAITING_FOR_START_TIME;
 8101b78:	2302      	movs	r3, #2
 8101b7a:	f887 30d7 	strb.w	r3, [r7, #215]	; 0xd7
    }

    schedulable_setStackPointer( schedulableVar, stackPointerRetVal );
 8101b7e:	68fa      	ldr	r2, [r7, #12]
 8101b80:	693b      	ldr	r3, [r7, #16]
 8101b82:	62fa      	str	r2, [r7, #44]	; 0x2c
 8101b84:	62bb      	str	r3, [r7, #40]	; 0x28
    schedulable->stackPointer = stackPointerParam;
 8101b86:	6afb      	ldr	r3, [r7, #44]	; 0x2c
 8101b88:	6aba      	ldr	r2, [r7, #40]	; 0x28
 8101b8a:	609a      	str	r2, [r3, #8]
}
 8101b8c:	bf00      	nop
    core_setSchedulableIntoCurrentContext( coreVar, schedulableVar );
 8101b8e:	68fb      	ldr	r3, [r7, #12]
 8101b90:	4619      	mov	r1, r3
 8101b92:	f8d7 00d0 	ldr.w	r0, [r7, #208]	; 0xd0
 8101b96:	f7ff fbbf 	bl	8101318 <core_setSchedulableIntoCurrentContext>
 8101b9a:	f8d7 30cc 	ldr.w	r3, [r7, #204]	; 0xcc
 8101b9e:	637b      	str	r3, [r7, #52]	; 0x34
 8101ba0:	f897 30d7 	ldrb.w	r3, [r7, #215]	; 0xd7
 8101ba4:	f887 3033 	strb.w	r3, [r7, #51]	; 0x33
  *
  * @return none
********************************************************************************/
__STATIC_FORCEINLINE void scheduler_setSchedulerState(CosmOS_SchedulerVariableType * scheduler, CosmOS_SchedulerStateType schedulerStateParam)
{
    scheduler->schedulerState = schedulerStateParam;
 8101ba8:	6b7b      	ldr	r3, [r7, #52]	; 0x34
 8101baa:	f897 2033 	ldrb.w	r2, [r7, #51]	; 0x33
 8101bae:	741a      	strb	r2, [r3, #16]
}
 8101bb0:	bf00      	nop
 8101bb2:	f8d7 30cc 	ldr.w	r3, [r7, #204]	; 0xcc
 8101bb6:	63bb      	str	r3, [r7, #56]	; 0x38
    return (scheduler->cfg->maxTimerTick);
 8101bb8:	6bbb      	ldr	r3, [r7, #56]	; 0x38
 8101bba:	681b      	ldr	r3, [r3, #0]
 8101bbc:	6a5b      	ldr	r3, [r3, #36]	; 0x24

    scheduler_setSchedulerState( schedulerVar, schedulerState );

	maxTimerTick = scheduler_getSchedulerMaxTimerTick( schedulerVar );
 8101bbe:	f8c7 30b0 	str.w	r3, [r7, #176]	; 0xb0
	if ( maxTimerTick < timerTicks )
 8101bc2:	69bb      	ldr	r3, [r7, #24]
 8101bc4:	f8d7 20b0 	ldr.w	r2, [r7, #176]	; 0xb0
 8101bc8:	429a      	cmp	r2, r3
 8101bca:	d202      	bcs.n	8101bd2 <scheduler_scheduleNextInstance+0x21e>
	{
		timerTicks = maxTimerTick;
 8101bcc:	f8d7 30b0 	ldr.w	r3, [r7, #176]	; 0xb0
 8101bd0:	61bb      	str	r3, [r7, #24]
	}

    currentTick = ( ( currentTick + timerTicks ) % hyperTick );
 8101bd2:	69ba      	ldr	r2, [r7, #24]
 8101bd4:	f8d7 30c0 	ldr.w	r3, [r7, #192]	; 0xc0
 8101bd8:	4413      	add	r3, r2
 8101bda:	f8d7 20c4 	ldr.w	r2, [r7, #196]	; 0xc4
 8101bde:	fbb3 f2f2 	udiv	r2, r3, r2
 8101be2:	f8d7 10c4 	ldr.w	r1, [r7, #196]	; 0xc4
 8101be6:	fb01 f202 	mul.w	r2, r1, r2
 8101bea:	1a9b      	subs	r3, r3, r2
 8101bec:	f8c7 30c0 	str.w	r3, [r7, #192]	; 0xc0
 8101bf0:	f8d7 30cc 	ldr.w	r3, [r7, #204]	; 0xcc
 8101bf4:	623b      	str	r3, [r7, #32]
 8101bf6:	f8d7 30c0 	ldr.w	r3, [r7, #192]	; 0xc0
 8101bfa:	61fb      	str	r3, [r7, #28]
    scheduler->currentTick = currentTickParam;
 8101bfc:	6a3b      	ldr	r3, [r7, #32]
 8101bfe:	69fa      	ldr	r2, [r7, #28]
 8101c00:	605a      	str	r2, [r3, #4]
}
 8101c02:	bf00      	nop
    scheduler_setSchedulerCurrentTick( schedulerVar, currentTick );

    switchMemoryProtection_setMemoryProtection( coreVar, schedulableVar );
 8101c04:	68fb      	ldr	r3, [r7, #12]
 8101c06:	4619      	mov	r1, r3
 8101c08:	f8d7 00d0 	ldr.w	r0, [r7, #208]	; 0xd0
 8101c0c:	f7ff fc96 	bl	810153c <memoryProtection_setMemoryProtection>
 8101c10:	f8d7 30cc 	ldr.w	r3, [r7, #204]	; 0xcc
 8101c14:	627b      	str	r3, [r7, #36]	; 0x24
    return (scheduler->cfg->timerTickCount);
 8101c16:	6a7b      	ldr	r3, [r7, #36]	; 0x24
 8101c18:	681b      	ldr	r3, [r3, #0]
 8101c1a:	6a9b      	ldr	r3, [r3, #40]	; 0x28

	timerTickCount = scheduler_getSchedulerTimerTickCount( schedulerVar );
 8101c1c:	f8c7 30ac 	str.w	r3, [r7, #172]	; 0xac
    CILsysTimer_setTicks( timerTicks, timerTickCount );
 8101c20:	69bb      	ldr	r3, [r7, #24]
 8101c22:	f8d7 10ac 	ldr.w	r1, [r7, #172]	; 0xac
 8101c26:	4618      	mov	r0, r3
 8101c28:	f000 ff50 	bl	8102acc <CILsysTimer_setTicks>

    return stackPointerRetVal;
 8101c2c:	693b      	ldr	r3, [r7, #16]
};
 8101c2e:	4618      	mov	r0, r3
 8101c30:	37d8      	adds	r7, #216	; 0xd8
 8101c32:	46bd      	mov	sp, r7
 8101c34:	bd80      	pop	{r7, pc}

08101c36 <scheduler_start>:
********************************************************************************/
/* @cond S */
__SEC_START(__OS_FUNC_SECTION_START)
/* @endcond*/
__OS_FUNC_SECTION void scheduler_start(void)
{
 8101c36:	b580      	push	{r7, lr}
 8101c38:	b0b0      	sub	sp, #192	; 0xc0
 8101c3a:	af00      	add	r7, sp, #0
    CosmOS_CoreVariableType * coreVar;
    CosmOS_SchedulerVariableType * schedulerVar;
    CosmOS_SchedulableVariableType * schedulableVar;


    coreVar = core_getCoreVar();
 8101c3c:	f7ff fb60 	bl	8101300 <core_getCoreVar>
 8101c40:	f8c7 00b4 	str.w	r0, [r7, #180]	; 0xb4
 8101c44:	f8d7 30b4 	ldr.w	r3, [r7, #180]	; 0xb4
 8101c48:	f8c7 3088 	str.w	r3, [r7, #136]	; 0x88
    return (core->schedulerVar);
 8101c4c:	f8d7 3088 	ldr.w	r3, [r7, #136]	; 0x88
 8101c50:	691b      	ldr	r3, [r3, #16]

    schedulerVar = core_getCoreSchedulerVar( coreVar );
 8101c52:	f8c7 30b0 	str.w	r3, [r7, #176]	; 0xb0
 8101c56:	f8d7 30b0 	ldr.w	r3, [r7, #176]	; 0xb0
 8101c5a:	f8c7 308c 	str.w	r3, [r7, #140]	; 0x8c
    return (scheduler->cfg->hyperTick);
 8101c5e:	f8d7 308c 	ldr.w	r3, [r7, #140]	; 0x8c
 8101c62:	681b      	ldr	r3, [r3, #0]
 8101c64:	689b      	ldr	r3, [r3, #8]

    hyperTick = scheduler_getSchedulerHyperTick( schedulerVar );
 8101c66:	f8c7 30ac 	str.w	r3, [r7, #172]	; 0xac
 8101c6a:	f8d7 30b0 	ldr.w	r3, [r7, #176]	; 0xb0
 8101c6e:	f8c7 3090 	str.w	r3, [r7, #144]	; 0x90
    return (scheduler->currentTick);
 8101c72:	f8d7 3090 	ldr.w	r3, [r7, #144]	; 0x90
 8101c76:	685b      	ldr	r3, [r3, #4]
    currentTick = scheduler_getSchedulerCurrentTick( schedulerVar );
 8101c78:	f8c7 30a8 	str.w	r3, [r7, #168]	; 0xa8
 8101c7c:	f8d7 30b0 	ldr.w	r3, [r7, #176]	; 0xb0
 8101c80:	f8c7 3094 	str.w	r3, [r7, #148]	; 0x94
    return (scheduler->scheduleTableIterator);
 8101c84:	f8d7 3094 	ldr.w	r3, [r7, #148]	; 0x94
 8101c88:	689b      	ldr	r3, [r3, #8]
    scheduleTableIterator = scheduler_getSchedulerScheduleTableIterator( schedulerVar );
 8101c8a:	60bb      	str	r3, [r7, #8]
 8101c8c:	f8d7 30b0 	ldr.w	r3, [r7, #176]	; 0xb0
 8101c90:	f8c7 3098 	str.w	r3, [r7, #152]	; 0x98
    return (scheduler->cfg->scheduleTableElementsNum);
 8101c94:	f8d7 3098 	ldr.w	r3, [r7, #152]	; 0x98
 8101c98:	681b      	ldr	r3, [r3, #0]
 8101c9a:	691b      	ldr	r3, [r3, #16]
    scheduleTableElementsNum = scheduler_getSchedulerScheduleTableElementsNum( schedulerVar );
 8101c9c:	f8c7 30a4 	str.w	r3, [r7, #164]	; 0xa4

    if ( scheduleTableElementsNum )
 8101ca0:	f8d7 30a4 	ldr.w	r3, [r7, #164]	; 0xa4
 8101ca4:	2b00      	cmp	r3, #0
 8101ca6:	d020      	beq.n	8101cea <scheduler_start+0xb4>
    {
        cosmosAssert( scheduleTableIterator < scheduleTableElementsNum );
 8101ca8:	68bb      	ldr	r3, [r7, #8]
 8101caa:	f8d7 20a4 	ldr.w	r2, [r7, #164]	; 0xa4
 8101cae:	429a      	cmp	r2, r3
 8101cb0:	bf8c      	ite	hi
 8101cb2:	2301      	movhi	r3, #1
 8101cb4:	2300      	movls	r3, #0
 8101cb6:	b2db      	uxtb	r3, r3
 8101cb8:	67fb      	str	r3, [r7, #124]	; 0x7c
    if ( IS_NOT( result ) )
 8101cba:	6ffb      	ldr	r3, [r7, #124]	; 0x7c
 8101cbc:	2b00      	cmp	r3, #0
 8101cbe:	d101      	bne.n	8101cc4 <scheduler_start+0x8e>
        os_kernelPanic();
 8101cc0:	f7ff fce2 	bl	8101688 <os_kernelPanic>
}
 8101cc4:	bf00      	nop

        startTick = scheduler_getSchedulerScheduleTableStartTick( schedulerVar, scheduleTableIterator );
 8101cc6:	68bb      	ldr	r3, [r7, #8]
 8101cc8:	f8d7 20b0 	ldr.w	r2, [r7, #176]	; 0xb0
 8101ccc:	f8c7 2084 	str.w	r2, [r7, #132]	; 0x84
 8101cd0:	f8c7 3080 	str.w	r3, [r7, #128]	; 0x80
    return (scheduler->cfg->scheduleTable[scheduleTableIterator].startTick);
 8101cd4:	f8d7 3084 	ldr.w	r3, [r7, #132]	; 0x84
 8101cd8:	681b      	ldr	r3, [r3, #0]
 8101cda:	681a      	ldr	r2, [r3, #0]
 8101cdc:	f8d7 3080 	ldr.w	r3, [r7, #128]	; 0x80
 8101ce0:	00db      	lsls	r3, r3, #3
 8101ce2:	4413      	add	r3, r2
 8101ce4:	681b      	ldr	r3, [r3, #0]
 8101ce6:	f8c7 30bc 	str.w	r3, [r7, #188]	; 0xbc
    }

    if ( scheduleTableElementsNum AND (startTick IS_EQUAL_TO currentTick) )
 8101cea:	f8d7 30a4 	ldr.w	r3, [r7, #164]	; 0xa4
 8101cee:	2b00      	cmp	r3, #0
 8101cf0:	d05f      	beq.n	8101db2 <scheduler_start+0x17c>
 8101cf2:	f8d7 20bc 	ldr.w	r2, [r7, #188]	; 0xbc
 8101cf6:	f8d7 30a8 	ldr.w	r3, [r7, #168]	; 0xa8
 8101cfa:	429a      	cmp	r2, r3
 8101cfc:	d159      	bne.n	8101db2 <scheduler_start+0x17c>
 8101cfe:	f8d7 30b0 	ldr.w	r3, [r7, #176]	; 0xb0
 8101d02:	67bb      	str	r3, [r7, #120]	; 0x78
 8101d04:	1d3b      	adds	r3, r7, #4
 8101d06:	677b      	str	r3, [r7, #116]	; 0x74
 8101d08:	f107 030c 	add.w	r3, r7, #12
 8101d0c:	673b      	str	r3, [r7, #112]	; 0x70
 8101d0e:	f107 0310 	add.w	r3, r7, #16
 8101d12:	66fb      	str	r3, [r7, #108]	; 0x6c
 8101d14:	f107 0308 	add.w	r3, r7, #8
 8101d18:	66bb      	str	r3, [r7, #104]	; 0x68
 8101d1a:	f8d7 30a4 	ldr.w	r3, [r7, #164]	; 0xa4
 8101d1e:	667b      	str	r3, [r7, #100]	; 0x64
    taskVar = scheduler_getSchedulerScheduleTableTaskVar( schedulerVar, *scheduleTableIterator );
 8101d20:	6ebb      	ldr	r3, [r7, #104]	; 0x68
 8101d22:	681b      	ldr	r3, [r3, #0]
 8101d24:	6fba      	ldr	r2, [r7, #120]	; 0x78
 8101d26:	663a      	str	r2, [r7, #96]	; 0x60
 8101d28:	65fb      	str	r3, [r7, #92]	; 0x5c
    return (CosmOS_TaskVariableType *)(scheduler->cfg->scheduleTable[scheduleTableIterator].taskVar);
 8101d2a:	6e3b      	ldr	r3, [r7, #96]	; 0x60
 8101d2c:	681b      	ldr	r3, [r3, #0]
 8101d2e:	681a      	ldr	r2, [r3, #0]
 8101d30:	6dfb      	ldr	r3, [r7, #92]	; 0x5c
 8101d32:	00db      	lsls	r3, r3, #3
 8101d34:	4413      	add	r3, r2
 8101d36:	685b      	ldr	r3, [r3, #4]
 8101d38:	65bb      	str	r3, [r7, #88]	; 0x58
 8101d3a:	6dbb      	ldr	r3, [r7, #88]	; 0x58
 8101d3c:	657b      	str	r3, [r7, #84]	; 0x54
    return (CosmOS_SchedulableVariableType *)(task->schedulable);
 8101d3e:	6d7b      	ldr	r3, [r7, #84]	; 0x54
 8101d40:	685a      	ldr	r2, [r3, #4]
    *schedulableVar = task_getTaskSchedulable( taskVar );
 8101d42:	6f7b      	ldr	r3, [r7, #116]	; 0x74
 8101d44:	601a      	str	r2, [r3, #0]
    *stackPointerRetVal = stackInit_schedulableStackInit( *schedulableVar );
 8101d46:	6f7b      	ldr	r3, [r7, #116]	; 0x74
 8101d48:	681b      	ldr	r3, [r3, #0]
 8101d4a:	4618      	mov	r0, r3
 8101d4c:	f000 f9e8 	bl	8102120 <stackInit_schedulableStackInit>
 8101d50:	4602      	mov	r2, r0
 8101d52:	6f3b      	ldr	r3, [r7, #112]	; 0x70
 8101d54:	601a      	str	r2, [r3, #0]
    schedulable_setState( *schedulableVar, SCHEDULABLE_INSTANCE_ENUM__RUNNING );
 8101d56:	6f7b      	ldr	r3, [r7, #116]	; 0x74
 8101d58:	681b      	ldr	r3, [r3, #0]
 8101d5a:	653b      	str	r3, [r7, #80]	; 0x50
 8101d5c:	2301      	movs	r3, #1
 8101d5e:	f887 304f 	strb.w	r3, [r7, #79]	; 0x4f
    schedulable->state = stateParam;
 8101d62:	6d3b      	ldr	r3, [r7, #80]	; 0x50
 8101d64:	f897 204f 	ldrb.w	r2, [r7, #79]	; 0x4f
 8101d68:	711a      	strb	r2, [r3, #4]
}
 8101d6a:	bf00      	nop
    *scheduleTableIterator = ( ( (*scheduleTableIterator) + 1 ) % scheduleTableElementsNum );
 8101d6c:	6ebb      	ldr	r3, [r7, #104]	; 0x68
 8101d6e:	681b      	ldr	r3, [r3, #0]
 8101d70:	3301      	adds	r3, #1
 8101d72:	6e7a      	ldr	r2, [r7, #100]	; 0x64
 8101d74:	fbb3 f2f2 	udiv	r2, r3, r2
 8101d78:	6e79      	ldr	r1, [r7, #100]	; 0x64
 8101d7a:	fb01 f202 	mul.w	r2, r1, r2
 8101d7e:	1a9a      	subs	r2, r3, r2
 8101d80:	6ebb      	ldr	r3, [r7, #104]	; 0x68
 8101d82:	601a      	str	r2, [r3, #0]
    scheduler_setSchedulerScheduleTableIterator( schedulerVar, *scheduleTableIterator );
 8101d84:	6ebb      	ldr	r3, [r7, #104]	; 0x68
 8101d86:	681b      	ldr	r3, [r3, #0]
 8101d88:	6fba      	ldr	r2, [r7, #120]	; 0x78
 8101d8a:	64ba      	str	r2, [r7, #72]	; 0x48
 8101d8c:	647b      	str	r3, [r7, #68]	; 0x44
    scheduler->scheduleTableIterator = scheduleTableIteratorParam;
 8101d8e:	6cbb      	ldr	r3, [r7, #72]	; 0x48
 8101d90:	6c7a      	ldr	r2, [r7, #68]	; 0x44
 8101d92:	609a      	str	r2, [r3, #8]
}
 8101d94:	bf00      	nop
 8101d96:	6dbb      	ldr	r3, [r7, #88]	; 0x58
 8101d98:	643b      	str	r3, [r7, #64]	; 0x40
    return (task->cfg->wcet);
 8101d9a:	6c3b      	ldr	r3, [r7, #64]	; 0x40
 8101d9c:	681b      	ldr	r3, [r3, #0]
 8101d9e:	681b      	ldr	r3, [r3, #0]
    wcet = task_getTaskWcet( taskVar );
 8101da0:	63fb      	str	r3, [r7, #60]	; 0x3c
    *timerTicks = wcet;
 8101da2:	6efb      	ldr	r3, [r7, #108]	; 0x6c
 8101da4:	6bfa      	ldr	r2, [r7, #60]	; 0x3c
 8101da6:	601a      	str	r2, [r3, #0]
}
 8101da8:	bf00      	nop
    {
        scheduler_classicSchedulingCore(schedulerVar,&schedulableVar,&stackPointerRetVal,&timerTicks,\
											&scheduleTableIterator, scheduleTableElementsNum);

        schedulerState = SCHEDULER_STATE_ENUM__TASK_EXECUTED_IN_WCET_CHECK;
 8101daa:	2301      	movs	r3, #1
 8101dac:	f887 30bb 	strb.w	r3, [r7, #187]	; 0xbb
 8101db0:	e00b      	b.n	8101dca <scheduler_start+0x194>
    }
    else
    {
        /* SCHEDULER_PERFORMANCE_SCHEDULING IS_EQUAL_TO ON */
        switchScheduler_performanceScheduling( schedulerVar, &schedulableVar,\
 8101db2:	f107 0310 	add.w	r3, r7, #16
 8101db6:	f107 020c 	add.w	r2, r7, #12
 8101dba:	1d39      	adds	r1, r7, #4
 8101dbc:	f8d7 00b0 	ldr.w	r0, [r7, #176]	; 0xb0
 8101dc0:	f7ff fd70 	bl	81018a4 <scheduler_performanceScheduling>
												&stackPointerRetVal, &timerTicks );
        /* SCHEDULER_PERFORMANCE_SCHEDULING IS_EQUAL_TO OFF */
        switchScheduler_classicScheduling( schedulerVar, &schedulableVar,\
											&stackPointerRetVal, &timerTicks, startTick, currentTick );

        schedulerState = SCHEDULER_STATE_ENUM__WAITING_FOR_START_TIME;
 8101dc4:	2302      	movs	r3, #2
 8101dc6:	f887 30bb 	strb.w	r3, [r7, #187]	; 0xbb
    }

    schedulable_setStackPointer( schedulableVar, stackPointerRetVal );
 8101dca:	687a      	ldr	r2, [r7, #4]
 8101dcc:	68fb      	ldr	r3, [r7, #12]
 8101dce:	62fa      	str	r2, [r7, #44]	; 0x2c
 8101dd0:	62bb      	str	r3, [r7, #40]	; 0x28
    schedulable->stackPointer = stackPointerParam;
 8101dd2:	6afb      	ldr	r3, [r7, #44]	; 0x2c
 8101dd4:	6aba      	ldr	r2, [r7, #40]	; 0x28
 8101dd6:	609a      	str	r2, [r3, #8]
}
 8101dd8:	bf00      	nop
    core_setSchedulableIntoCurrentContext( coreVar, schedulableVar );
 8101dda:	687b      	ldr	r3, [r7, #4]
 8101ddc:	4619      	mov	r1, r3
 8101dde:	f8d7 00b4 	ldr.w	r0, [r7, #180]	; 0xb4
 8101de2:	f7ff fa99 	bl	8101318 <core_setSchedulableIntoCurrentContext>
 8101de6:	f8d7 30b0 	ldr.w	r3, [r7, #176]	; 0xb0
 8101dea:	637b      	str	r3, [r7, #52]	; 0x34
 8101dec:	f897 30bb 	ldrb.w	r3, [r7, #187]	; 0xbb
 8101df0:	f887 3033 	strb.w	r3, [r7, #51]	; 0x33
    scheduler->schedulerState = schedulerStateParam;
 8101df4:	6b7b      	ldr	r3, [r7, #52]	; 0x34
 8101df6:	f897 2033 	ldrb.w	r2, [r7, #51]	; 0x33
 8101dfa:	741a      	strb	r2, [r3, #16]
}
 8101dfc:	bf00      	nop
 8101dfe:	f8d7 30b0 	ldr.w	r3, [r7, #176]	; 0xb0
 8101e02:	63bb      	str	r3, [r7, #56]	; 0x38
    return (scheduler->cfg->maxTimerTick);
 8101e04:	6bbb      	ldr	r3, [r7, #56]	; 0x38
 8101e06:	681b      	ldr	r3, [r3, #0]
 8101e08:	6a5b      	ldr	r3, [r3, #36]	; 0x24

    scheduler_setSchedulerState( schedulerVar, schedulerState );

	maxTimerTick = scheduler_getSchedulerMaxTimerTick( schedulerVar );
 8101e0a:	f8c7 30a0 	str.w	r3, [r7, #160]	; 0xa0

	if ( maxTimerTick < timerTicks )
 8101e0e:	693b      	ldr	r3, [r7, #16]
 8101e10:	f8d7 20a0 	ldr.w	r2, [r7, #160]	; 0xa0
 8101e14:	429a      	cmp	r2, r3
 8101e16:	d202      	bcs.n	8101e1e <scheduler_start+0x1e8>
	{
		timerTicks = maxTimerTick;
 8101e18:	f8d7 30a0 	ldr.w	r3, [r7, #160]	; 0xa0
 8101e1c:	613b      	str	r3, [r7, #16]
	}

    currentTick = ( currentTick + timerTicks ) % hyperTick;
 8101e1e:	693a      	ldr	r2, [r7, #16]
 8101e20:	f8d7 30a8 	ldr.w	r3, [r7, #168]	; 0xa8
 8101e24:	4413      	add	r3, r2
 8101e26:	f8d7 20ac 	ldr.w	r2, [r7, #172]	; 0xac
 8101e2a:	fbb3 f2f2 	udiv	r2, r3, r2
 8101e2e:	f8d7 10ac 	ldr.w	r1, [r7, #172]	; 0xac
 8101e32:	fb01 f202 	mul.w	r2, r1, r2
 8101e36:	1a9b      	subs	r3, r3, r2
 8101e38:	f8c7 30a8 	str.w	r3, [r7, #168]	; 0xa8
 8101e3c:	f8d7 30b0 	ldr.w	r3, [r7, #176]	; 0xb0
 8101e40:	61bb      	str	r3, [r7, #24]
 8101e42:	f8d7 30a8 	ldr.w	r3, [r7, #168]	; 0xa8
 8101e46:	617b      	str	r3, [r7, #20]
    scheduler->currentTick = currentTickParam;
 8101e48:	69bb      	ldr	r3, [r7, #24]
 8101e4a:	697a      	ldr	r2, [r7, #20]
 8101e4c:	605a      	str	r2, [r3, #4]
}
 8101e4e:	bf00      	nop
    scheduler_setSchedulerCurrentTick( schedulerVar, currentTick );

    switchMemoryProtection_setMemoryProtection( coreVar , schedulableVar );
 8101e50:	687b      	ldr	r3, [r7, #4]
 8101e52:	4619      	mov	r1, r3
 8101e54:	f8d7 00b4 	ldr.w	r0, [r7, #180]	; 0xb4
 8101e58:	f7ff fb70 	bl	810153c <memoryProtection_setMemoryProtection>
 8101e5c:	f8d7 30b4 	ldr.w	r3, [r7, #180]	; 0xb4
 8101e60:	623b      	str	r3, [r7, #32]
 8101e62:	2302      	movs	r3, #2
 8101e64:	77fb      	strb	r3, [r7, #31]
  *
  * @return none
********************************************************************************/
__STATIC_FORCEINLINE void core_setCoreOsState(CosmOS_CoreVariableType * core, CosmOS_OsState osStateParam)
{
    core->osState = osStateParam;
 8101e66:	6a3b      	ldr	r3, [r7, #32]
 8101e68:	7ffa      	ldrb	r2, [r7, #31]
 8101e6a:	761a      	strb	r2, [r3, #24]
}
 8101e6c:	bf00      	nop
 8101e6e:	f8d7 30b0 	ldr.w	r3, [r7, #176]	; 0xb0
 8101e72:	627b      	str	r3, [r7, #36]	; 0x24
    return (scheduler->cfg->timerTickCount);
 8101e74:	6a7b      	ldr	r3, [r7, #36]	; 0x24
 8101e76:	681b      	ldr	r3, [r3, #0]
 8101e78:	6a9b      	ldr	r3, [r3, #40]	; 0x28

	core_setCoreOsState( coreVar, OS_STATE_ENUM__STARTED );

	timerTickCount = scheduler_getSchedulerTimerTickCount( schedulerVar );
 8101e7a:	f8c7 309c 	str.w	r3, [r7, #156]	; 0x9c
    CILsysTimer_startTimer( timerTicks, timerTickCount );
 8101e7e:	693b      	ldr	r3, [r7, #16]
 8101e80:	f8d7 109c 	ldr.w	r1, [r7, #156]	; 0x9c
 8101e84:	4618      	mov	r0, r3
 8101e86:	f000 fe07 	bl	8102a98 <CILsysTimer_startTimer>

    CILstack_setStackPointer( stackPointerRetVal );
 8101e8a:	68fb      	ldr	r3, [r7, #12]
 8101e8c:	4618      	mov	r0, r3
 8101e8e:	f000 fd55 	bl	810293c <CILstack_setStackPointer>
};
 8101e92:	bf00      	nop
 8101e94:	37c0      	adds	r7, #192	; 0xc0
 8101e96:	46bd      	mov	sp, r7
 8101e98:	bd80      	pop	{r7, pc}

08101e9a <schedulerSync_sync>:
********************************************************************************/
/* @cond S */
__SEC_START(__OS_FUNC_SECTION_START)
/* @endcond*/
__OS_FUNC_SECTION CosmOS_SchedulerSyncStateType schedulerSync_sync(CosmOS_SchedulerVariableType * schedulerVar, CosmOS_CoreVariableType * coreVar, BitWidthType currentTick, BitWidthType hyperTick)
{
 8101e9a:	b580      	push	{r7, lr}
 8101e9c:	b096      	sub	sp, #88	; 0x58
 8101e9e:	af00      	add	r7, sp, #0
 8101ea0:	60f8      	str	r0, [r7, #12]
 8101ea2:	60b9      	str	r1, [r7, #8]
 8101ea4:	607a      	str	r2, [r7, #4]
 8101ea6:	603b      	str	r3, [r7, #0]

    CosmOS_BooleanType syncInitState;

    CosmOS_SchedulerSyncStateType schedulerState = SCHEDULER_SYNC_STATE_ENUM__NOT_IN_SYNC;
 8101ea8:	2300      	movs	r3, #0
 8101eaa:	657b      	str	r3, [r7, #84]	; 0x54
 8101eac:	68fb      	ldr	r3, [r7, #12]
 8101eae:	63bb      	str	r3, [r7, #56]	; 0x38
    return (scheduler->syncInitState);
 8101eb0:	6bbb      	ldr	r3, [r7, #56]	; 0x38
 8101eb2:	7e1b      	ldrb	r3, [r3, #24]


    syncInitState = scheduler_getSchedulerSyncInitState( schedulerVar );
 8101eb4:	f887 3053 	strb.w	r3, [r7, #83]	; 0x53

    if ( __COSMOS_UNLIKELY( syncInitState IS_EQUAL_TO False ) )
 8101eb8:	f897 3053 	ldrb.w	r3, [r7, #83]	; 0x53
 8101ebc:	2b00      	cmp	r3, #0
 8101ebe:	bf0c      	ite	eq
 8101ec0:	2301      	moveq	r3, #1
 8101ec2:	2300      	movne	r3, #0
 8101ec4:	b2db      	uxtb	r3, r3
 8101ec6:	2b00      	cmp	r3, #0
 8101ec8:	d030      	beq.n	8101f2c <schedulerSync_sync+0x92>
 8101eca:	68fb      	ldr	r3, [r7, #12]
 8101ecc:	637b      	str	r3, [r7, #52]	; 0x34
    return (scheduler->cfg->firstSyncTaskStartTick);
 8101ece:	6b7b      	ldr	r3, [r7, #52]	; 0x34
 8101ed0:	681b      	ldr	r3, [r3, #0]
 8101ed2:	6a1b      	ldr	r3, [r3, #32]
    {
        BitWidthType firstSyncTaskStartTick;


        firstSyncTaskStartTick = scheduler_getSchedulerFirstSyncTaskStartTick( schedulerVar );
 8101ed4:	647b      	str	r3, [r7, #68]	; 0x44

        if ( firstSyncTaskStartTick IS_EQUAL_TO currentTick )
 8101ed6:	6c7a      	ldr	r2, [r7, #68]	; 0x44
 8101ed8:	687b      	ldr	r3, [r7, #4]
 8101eda:	429a      	cmp	r2, r3
 8101edc:	d150      	bne.n	8101f80 <schedulerSync_sync+0xe6>
 8101ede:	68fb      	ldr	r3, [r7, #12]
 8101ee0:	623b      	str	r3, [r7, #32]
    return (scheduler->cfg->syncTicks);
 8101ee2:	6a3b      	ldr	r3, [r7, #32]
 8101ee4:	681b      	ldr	r3, [r3, #0]
 8101ee6:	69db      	ldr	r3, [r3, #28]
        {
            BitWidthType  syncTicks,
                          nextTick;


            syncTicks = scheduler_getSchedulerSyncTicks( schedulerVar );
 8101ee8:	643b      	str	r3, [r7, #64]	; 0x40

            nextTick = ( currentTick + syncTicks ) % hyperTick;
 8101eea:	687a      	ldr	r2, [r7, #4]
 8101eec:	6c3b      	ldr	r3, [r7, #64]	; 0x40
 8101eee:	4413      	add	r3, r2
 8101ef0:	683a      	ldr	r2, [r7, #0]
 8101ef2:	fbb3 f2f2 	udiv	r2, r3, r2
 8101ef6:	6839      	ldr	r1, [r7, #0]
 8101ef8:	fb01 f202 	mul.w	r2, r1, r2
 8101efc:	1a9b      	subs	r3, r3, r2
 8101efe:	63fb      	str	r3, [r7, #60]	; 0x3c
 8101f00:	68fb      	ldr	r3, [r7, #12]
 8101f02:	62bb      	str	r3, [r7, #40]	; 0x28
 8101f04:	6bfb      	ldr	r3, [r7, #60]	; 0x3c
 8101f06:	627b      	str	r3, [r7, #36]	; 0x24
  *
  * @return none
********************************************************************************/
__STATIC_FORCEINLINE void scheduler_setSchedulerNextSyncTick(CosmOS_SchedulerVariableType * scheduler, BitWidthType paramNextSyncTick)
{
    scheduler->nextSyncTick = paramNextSyncTick;
 8101f08:	6abb      	ldr	r3, [r7, #40]	; 0x28
 8101f0a:	6a7a      	ldr	r2, [r7, #36]	; 0x24
 8101f0c:	615a      	str	r2, [r3, #20]
}
 8101f0e:	bf00      	nop
 8101f10:	68fb      	ldr	r3, [r7, #12]
 8101f12:	633b      	str	r3, [r7, #48]	; 0x30
 8101f14:	2301      	movs	r3, #1
 8101f16:	f887 302f 	strb.w	r3, [r7, #47]	; 0x2f
  *
  * @return none
********************************************************************************/
__STATIC_FORCEINLINE void scheduler_setSchedulerSyncInitState(CosmOS_SchedulerVariableType * scheduler, CosmOS_BooleanType paramSyncInitState)
{
    scheduler->syncInitState = paramSyncInitState;
 8101f1a:	6b3b      	ldr	r3, [r7, #48]	; 0x30
 8101f1c:	f897 202f 	ldrb.w	r2, [r7, #47]	; 0x2f
 8101f20:	761a      	strb	r2, [r3, #24]
}
 8101f22:	bf00      	nop
            scheduler_setSchedulerNextSyncTick( schedulerVar, nextTick );

            scheduler_setSchedulerSyncInitState( schedulerVar, True );

            schedulerState = SCHEDULER_SYNC_STATE_ENUM__IN_SYNC;
 8101f24:	f04f 33aa 	mov.w	r3, #2863311530	; 0xaaaaaaaa
 8101f28:	657b      	str	r3, [r7, #84]	; 0x54
 8101f2a:	e029      	b.n	8101f80 <schedulerSync_sync+0xe6>
 8101f2c:	68fb      	ldr	r3, [r7, #12]
 8101f2e:	61fb      	str	r3, [r7, #28]
    return (scheduler->nextSyncTick);
 8101f30:	69fb      	ldr	r3, [r7, #28]
 8101f32:	695b      	ldr	r3, [r3, #20]
    else
    {
        BitWidthType nextTick;


        nextTick = scheduler_getSchedulerNextSyncTick( schedulerVar );
 8101f34:	64fb      	str	r3, [r7, #76]	; 0x4c

        if ( __COSMOS_UNLIKELY( nextTick IS_EQUAL_TO currentTick ) )
 8101f36:	6cfa      	ldr	r2, [r7, #76]	; 0x4c
 8101f38:	687b      	ldr	r3, [r7, #4]
 8101f3a:	429a      	cmp	r2, r3
 8101f3c:	bf0c      	ite	eq
 8101f3e:	2301      	moveq	r3, #1
 8101f40:	2300      	movne	r3, #0
 8101f42:	b2db      	uxtb	r3, r3
 8101f44:	2b00      	cmp	r3, #0
 8101f46:	d01b      	beq.n	8101f80 <schedulerSync_sync+0xe6>
 8101f48:	68fb      	ldr	r3, [r7, #12]
 8101f4a:	613b      	str	r3, [r7, #16]
    return (scheduler->cfg->syncTicks);
 8101f4c:	693b      	ldr	r3, [r7, #16]
 8101f4e:	681b      	ldr	r3, [r3, #0]
 8101f50:	69db      	ldr	r3, [r3, #28]
        {
            BitWidthType  syncTicks;


            syncTicks = scheduler_getSchedulerSyncTicks( schedulerVar );
 8101f52:	64bb      	str	r3, [r7, #72]	; 0x48

            nextTick = ( currentTick + syncTicks ) % hyperTick;
 8101f54:	687a      	ldr	r2, [r7, #4]
 8101f56:	6cbb      	ldr	r3, [r7, #72]	; 0x48
 8101f58:	4413      	add	r3, r2
 8101f5a:	683a      	ldr	r2, [r7, #0]
 8101f5c:	fbb3 f2f2 	udiv	r2, r3, r2
 8101f60:	6839      	ldr	r1, [r7, #0]
 8101f62:	fb01 f202 	mul.w	r2, r1, r2
 8101f66:	1a9b      	subs	r3, r3, r2
 8101f68:	64fb      	str	r3, [r7, #76]	; 0x4c
 8101f6a:	68fb      	ldr	r3, [r7, #12]
 8101f6c:	61bb      	str	r3, [r7, #24]
 8101f6e:	6cfb      	ldr	r3, [r7, #76]	; 0x4c
 8101f70:	617b      	str	r3, [r7, #20]
    scheduler->nextSyncTick = paramNextSyncTick;
 8101f72:	69bb      	ldr	r3, [r7, #24]
 8101f74:	697a      	ldr	r2, [r7, #20]
 8101f76:	615a      	str	r2, [r3, #20]
}
 8101f78:	bf00      	nop
            scheduler_setSchedulerNextSyncTick( schedulerVar, nextTick );

            schedulerState = SCHEDULER_SYNC_STATE_ENUM__IN_SYNC;
 8101f7a:	f04f 33aa 	mov.w	r3, #2863311530	; 0xaaaaaaaa
 8101f7e:	657b      	str	r3, [r7, #84]	; 0x54
        }
    }

    if ( schedulerState IS_EQUAL_TO SCHEDULER_SYNC_STATE_ENUM__IN_SYNC )
 8101f80:	6d7b      	ldr	r3, [r7, #84]	; 0x54
 8101f82:	f1b3 3faa 	cmp.w	r3, #2863311530	; 0xaaaaaaaa
 8101f86:	d107      	bne.n	8101f98 <schedulerSync_sync+0xfe>
    {
        coreSync_getBarrier( coreVar, SCHEDULERS_SYNC_ID );
 8101f88:	2103      	movs	r1, #3
 8101f8a:	68b8      	ldr	r0, [r7, #8]
 8101f8c:	f7ff f9ef 	bl	810136e <coreSync_getBarrier>
        coreSync_reactivateBarrier( coreVar, SCHEDULERS_SYNC_ID );
 8101f90:	2103      	movs	r1, #3
 8101f92:	68b8      	ldr	r0, [r7, #8]
 8101f94:	f7ff fa53 	bl	810143e <coreSync_reactivateBarrier>
    }

    return schedulerState;
 8101f98:	6d7b      	ldr	r3, [r7, #84]	; 0x54
};
 8101f9a:	4618      	mov	r0, r3
 8101f9c:	3758      	adds	r7, #88	; 0x58
 8101f9e:	46bd      	mov	sp, r7
 8101fa0:	bd80      	pop	{r7, pc}

08101fa2 <spinlock_getSpinlock>:
********************************************************************************/
/* @cond S */
__SEC_START(__OS_FUNC_SECTION_START)
/* @endcond*/
__OS_FUNC_SECTION CosmOS_SpinlockStateType spinlock_getSpinlock(BitWidthType id)
{
 8101fa2:	b580      	push	{r7, lr}
 8101fa4:	b090      	sub	sp, #64	; 0x40
 8101fa6:	af00      	add	r7, sp, #0
 8101fa8:	6078      	str	r0, [r7, #4]
	CosmOS_OsVariableType * osVar;
	CosmOS_CoreVariableType * coreVar;
	CosmOS_SpinlockVariableType * spinlockVar;


    osVar = os_getOsVar();
 8101faa:	f7ff fb63 	bl	8101674 <os_getOsVar>
 8101fae:	63b8      	str	r0, [r7, #56]	; 0x38
    __asm volatile ("MOV %[resultVariable], R9":  [resultVariable] "=r" (result) );
 8101fb0:	464b      	mov	r3, r9
 8101fb2:	60fb      	str	r3, [r7, #12]
    return (CosmOS_CoreVariableType *)result;
 8101fb4:	68fb      	ldr	r3, [r7, #12]
    coreVar = CILcore_getCoreVar();
 8101fb6:	637b      	str	r3, [r7, #52]	; 0x34
 8101fb8:	6bbb      	ldr	r3, [r7, #56]	; 0x38
 8101fba:	613b      	str	r3, [r7, #16]
    return (osVar->cfg->numberOfSpinlocks);
 8101fbc:	693b      	ldr	r3, [r7, #16]
 8101fbe:	681b      	ldr	r3, [r3, #0]
 8101fc0:	695b      	ldr	r3, [r3, #20]

	numberOfSpinlocks = os_getOsNumberOfSpinlocks(osVar);
 8101fc2:	633b      	str	r3, [r7, #48]	; 0x30

	cosmosAssert( id < numberOfSpinlocks );
 8101fc4:	687a      	ldr	r2, [r7, #4]
 8101fc6:	6b3b      	ldr	r3, [r7, #48]	; 0x30
 8101fc8:	429a      	cmp	r2, r3
 8101fca:	bf34      	ite	cc
 8101fcc:	2301      	movcc	r3, #1
 8101fce:	2300      	movcs	r3, #0
 8101fd0:	b2db      	uxtb	r3, r3
 8101fd2:	617b      	str	r3, [r7, #20]
    if ( IS_NOT( result ) )
 8101fd4:	697b      	ldr	r3, [r7, #20]
 8101fd6:	2b00      	cmp	r3, #0
 8101fd8:	d101      	bne.n	8101fde <spinlock_getSpinlock+0x3c>
        os_kernelPanic();
 8101fda:	f7ff fb55 	bl	8101688 <os_kernelPanic>
}
 8101fde:	bf00      	nop
 8101fe0:	6bbb      	ldr	r3, [r7, #56]	; 0x38
 8101fe2:	61fb      	str	r3, [r7, #28]
 8101fe4:	687b      	ldr	r3, [r7, #4]
 8101fe6:	61bb      	str	r3, [r7, #24]
  *
  * @return CosmOS_SpinlockVariableType *
********************************************************************************/
__STATIC_FORCEINLINE CosmOS_SpinlockVariableType * os_getOsSpinlockVar(CosmOS_OsVariableType * osVar, BitWidthType spinlockId)
{
    return (&(osVar->spinlockVars[spinlockId]));
 8101fe8:	69fb      	ldr	r3, [r7, #28]
 8101fea:	691a      	ldr	r2, [r3, #16]
 8101fec:	69bb      	ldr	r3, [r7, #24]
 8101fee:	00db      	lsls	r3, r3, #3
 8101ff0:	4413      	add	r3, r2
	spinlockVar = os_getOsSpinlockVar(osVar, id);
 8101ff2:	62fb      	str	r3, [r7, #44]	; 0x2c
 8101ff4:	6b7b      	ldr	r3, [r7, #52]	; 0x34
 8101ff6:	627b      	str	r3, [r7, #36]	; 0x24
 8101ff8:	6afb      	ldr	r3, [r7, #44]	; 0x2c
 8101ffa:	623b      	str	r3, [r7, #32]
	*
  * @return CosmOS_BufferStateType
********************************************************************************/
__STATIC_FORCEINLINE CosmOS_BooleanType spinlock_willCauseDeadlock(CosmOS_CoreVariableType * coreVar, CosmOS_SpinlockVariableType * spinlockVar)
{
    return ((spinlockVar->spinlock IS_EQUAL_TO (BitWidthType)SPINLOCK_STATE_ENUM__OCCUPIED)\
 8101ffc:	6a3b      	ldr	r3, [r7, #32]
 8101ffe:	681b      	ldr	r3, [r3, #0]
			AND (coreVar->schedulableInExecution IS_EQUAL_TO spinlockVar->schedulableOwner)) ? True : False;
 8102000:	2b01      	cmp	r3, #1
 8102002:	d107      	bne.n	8102014 <spinlock_getSpinlock+0x72>
 8102004:	6a7b      	ldr	r3, [r7, #36]	; 0x24
 8102006:	685a      	ldr	r2, [r3, #4]
 8102008:	6a3b      	ldr	r3, [r7, #32]
 810200a:	685b      	ldr	r3, [r3, #4]
 810200c:	429a      	cmp	r2, r3
 810200e:	d101      	bne.n	8102014 <spinlock_getSpinlock+0x72>
 8102010:	2301      	movs	r3, #1
 8102012:	e000      	b.n	8102016 <spinlock_getSpinlock+0x74>
 8102014:	2300      	movs	r3, #0
 8102016:	b2db      	uxtb	r3, r3

	willCauseDeadlock = spinlock_willCauseDeadlock(coreVar, spinlockVar);
 8102018:	f887 302b 	strb.w	r3, [r7, #43]	; 0x2b

	if( willCauseDeadlock )
 810201c:	f897 302b 	ldrb.w	r3, [r7, #43]	; 0x2b
 8102020:	2b00      	cmp	r3, #0
 8102022:	d002      	beq.n	810202a <spinlock_getSpinlock+0x88>
	{
		spinlockState = SPINLOCK_STATE_ENUM__ERROR;
 8102024:	23ff      	movs	r3, #255	; 0xff
 8102026:	63fb      	str	r3, [r7, #60]	; 0x3c
 8102028:	e009      	b.n	810203e <spinlock_getSpinlock+0x9c>
	}
	else
	{
		spinlockState = CILspinlock_getSpinlock( &(spinlockVar->spinlock), id );
 810202a:	6afb      	ldr	r3, [r7, #44]	; 0x2c
 810202c:	6879      	ldr	r1, [r7, #4]
 810202e:	4618      	mov	r0, r3
 8102030:	f000 fbf4 	bl	810281c <CILspinlock_getSpinlock>
 8102034:	63f8      	str	r0, [r7, #60]	; 0x3c
		spinlockVar->schedulableOwner = coreVar->schedulableInExecution;
 8102036:	6b7b      	ldr	r3, [r7, #52]	; 0x34
 8102038:	685a      	ldr	r2, [r3, #4]
 810203a:	6afb      	ldr	r3, [r7, #44]	; 0x2c
 810203c:	605a      	str	r2, [r3, #4]
	}

    return spinlockState;
 810203e:	6bfb      	ldr	r3, [r7, #60]	; 0x3c
}
 8102040:	4618      	mov	r0, r3
 8102042:	3740      	adds	r7, #64	; 0x40
 8102044:	46bd      	mov	sp, r7
 8102046:	bd80      	pop	{r7, pc}

08102048 <spinlock_trySpinlock>:
********************************************************************************/
/* @cond S */
__SEC_START(__OS_FUNC_SECTION_START)
/* @endcond*/
__OS_FUNC_SECTION CosmOS_BufferStateType spinlock_trySpinlock(BitWidthType id)
{
 8102048:	b580      	push	{r7, lr}
 810204a:	b08c      	sub	sp, #48	; 0x30
 810204c:	af00      	add	r7, sp, #0
 810204e:	6078      	str	r0, [r7, #4]
	CosmOS_OsVariableType * osVar;
	CosmOS_CoreVariableType * coreVar;
	CosmOS_SpinlockVariableType * spinlockVar;


    osVar = os_getOsVar();
 8102050:	f7ff fb10 	bl	8101674 <os_getOsVar>
 8102054:	62f8      	str	r0, [r7, #44]	; 0x2c
    __asm volatile ("MOV %[resultVariable], R9":  [resultVariable] "=r" (result) );
 8102056:	464b      	mov	r3, r9
 8102058:	60bb      	str	r3, [r7, #8]
    return (CosmOS_CoreVariableType *)result;
 810205a:	68bb      	ldr	r3, [r7, #8]
    coreVar = CILcore_getCoreVar();
 810205c:	62bb      	str	r3, [r7, #40]	; 0x28
 810205e:	6afb      	ldr	r3, [r7, #44]	; 0x2c
 8102060:	60fb      	str	r3, [r7, #12]
    return (osVar->cfg->numberOfSpinlocks);
 8102062:	68fb      	ldr	r3, [r7, #12]
 8102064:	681b      	ldr	r3, [r3, #0]
 8102066:	695b      	ldr	r3, [r3, #20]

	numberOfSpinlocks = os_getOsNumberOfSpinlocks(osVar);
 8102068:	627b      	str	r3, [r7, #36]	; 0x24

	cosmosAssert( id < numberOfSpinlocks );
 810206a:	687a      	ldr	r2, [r7, #4]
 810206c:	6a7b      	ldr	r3, [r7, #36]	; 0x24
 810206e:	429a      	cmp	r2, r3
 8102070:	bf34      	ite	cc
 8102072:	2301      	movcc	r3, #1
 8102074:	2300      	movcs	r3, #0
 8102076:	b2db      	uxtb	r3, r3
 8102078:	613b      	str	r3, [r7, #16]
    if ( IS_NOT( result ) )
 810207a:	693b      	ldr	r3, [r7, #16]
 810207c:	2b00      	cmp	r3, #0
 810207e:	d101      	bne.n	8102084 <spinlock_trySpinlock+0x3c>
        os_kernelPanic();
 8102080:	f7ff fb02 	bl	8101688 <os_kernelPanic>
}
 8102084:	bf00      	nop
 8102086:	6afb      	ldr	r3, [r7, #44]	; 0x2c
 8102088:	61bb      	str	r3, [r7, #24]
 810208a:	687b      	ldr	r3, [r7, #4]
 810208c:	617b      	str	r3, [r7, #20]
    return (&(osVar->spinlockVars[spinlockId]));
 810208e:	69bb      	ldr	r3, [r7, #24]
 8102090:	691a      	ldr	r2, [r3, #16]
 8102092:	697b      	ldr	r3, [r7, #20]
 8102094:	00db      	lsls	r3, r3, #3
 8102096:	4413      	add	r3, r2
	spinlockVar = os_getOsSpinlockVar(osVar, id);
 8102098:	623b      	str	r3, [r7, #32]

	spinlockState = CILspinlock_trySpinlock( &(spinlockVar->spinlock), id );
 810209a:	6a3b      	ldr	r3, [r7, #32]
 810209c:	6879      	ldr	r1, [r7, #4]
 810209e:	4618      	mov	r0, r3
 81020a0:	f000 fbdb 	bl	810285a <CILspinlock_trySpinlock>
 81020a4:	61f8      	str	r0, [r7, #28]

	if ( spinlockState IS_EQUAL_TO SPINLOCK_STATE_ENUM__SUCCESSFULLY_LOCKED )
 81020a6:	69fb      	ldr	r3, [r7, #28]
 81020a8:	2b02      	cmp	r3, #2
 81020aa:	d103      	bne.n	81020b4 <spinlock_trySpinlock+0x6c>
	{
		spinlockVar->schedulableOwner = coreVar->schedulableInExecution;
 81020ac:	6abb      	ldr	r3, [r7, #40]	; 0x28
 81020ae:	685a      	ldr	r2, [r3, #4]
 81020b0:	6a3b      	ldr	r3, [r7, #32]
 81020b2:	605a      	str	r2, [r3, #4]
	}

    return spinlockState;
 81020b4:	69fb      	ldr	r3, [r7, #28]
 81020b6:	b2db      	uxtb	r3, r3
}
 81020b8:	4618      	mov	r0, r3
 81020ba:	3730      	adds	r7, #48	; 0x30
 81020bc:	46bd      	mov	sp, r7
 81020be:	bd80      	pop	{r7, pc}

081020c0 <spinlock_releaseSpinlock>:
********************************************************************************/
/* @cond S */
__SEC_START(__OS_FUNC_SECTION_START)
/* @endcond*/
__OS_FUNC_SECTION CosmOS_SpinlockStateType spinlock_releaseSpinlock(BitWidthType id)
{
 81020c0:	b580      	push	{r7, lr}
 81020c2:	b08a      	sub	sp, #40	; 0x28
 81020c4:	af00      	add	r7, sp, #0
 81020c6:	6078      	str	r0, [r7, #4]
    CosmOS_SpinlockStateType spinlockState;

	CosmOS_OsVariableType * osVar;
	CosmOS_SpinlockVariableType * spinlockVar;

    osVar = os_getOsVar();
 81020c8:	f7ff fad4 	bl	8101674 <os_getOsVar>
 81020cc:	6278      	str	r0, [r7, #36]	; 0x24
 81020ce:	6a7b      	ldr	r3, [r7, #36]	; 0x24
 81020d0:	60bb      	str	r3, [r7, #8]
    return (osVar->cfg->numberOfSpinlocks);
 81020d2:	68bb      	ldr	r3, [r7, #8]
 81020d4:	681b      	ldr	r3, [r3, #0]
 81020d6:	695b      	ldr	r3, [r3, #20]

	numberOfSpinlocks = os_getOsNumberOfSpinlocks(osVar);
 81020d8:	623b      	str	r3, [r7, #32]

	cosmosAssert( id < numberOfSpinlocks );
 81020da:	687a      	ldr	r2, [r7, #4]
 81020dc:	6a3b      	ldr	r3, [r7, #32]
 81020de:	429a      	cmp	r2, r3
 81020e0:	bf34      	ite	cc
 81020e2:	2301      	movcc	r3, #1
 81020e4:	2300      	movcs	r3, #0
 81020e6:	b2db      	uxtb	r3, r3
 81020e8:	60fb      	str	r3, [r7, #12]
    if ( IS_NOT( result ) )
 81020ea:	68fb      	ldr	r3, [r7, #12]
 81020ec:	2b00      	cmp	r3, #0
 81020ee:	d101      	bne.n	81020f4 <spinlock_releaseSpinlock+0x34>
        os_kernelPanic();
 81020f0:	f7ff faca 	bl	8101688 <os_kernelPanic>
}
 81020f4:	bf00      	nop
 81020f6:	6a7b      	ldr	r3, [r7, #36]	; 0x24
 81020f8:	617b      	str	r3, [r7, #20]
 81020fa:	687b      	ldr	r3, [r7, #4]
 81020fc:	613b      	str	r3, [r7, #16]
    return (&(osVar->spinlockVars[spinlockId]));
 81020fe:	697b      	ldr	r3, [r7, #20]
 8102100:	691a      	ldr	r2, [r3, #16]
 8102102:	693b      	ldr	r3, [r7, #16]
 8102104:	00db      	lsls	r3, r3, #3
 8102106:	4413      	add	r3, r2
	spinlockVar = os_getOsSpinlockVar(osVar, id);
 8102108:	61fb      	str	r3, [r7, #28]

	spinlockState = CILspinlock_releaseSpinlock( &(spinlockVar->spinlock), id );
 810210a:	69fb      	ldr	r3, [r7, #28]
 810210c:	6879      	ldr	r1, [r7, #4]
 810210e:	4618      	mov	r0, r3
 8102110:	f000 fbbe 	bl	8102890 <CILspinlock_releaseSpinlock>
 8102114:	61b8      	str	r0, [r7, #24]

	return spinlockState;
 8102116:	69bb      	ldr	r3, [r7, #24]
}
 8102118:	4618      	mov	r0, r3
 810211a:	3728      	adds	r7, #40	; 0x28
 810211c:	46bd      	mov	sp, r7
 810211e:	bd80      	pop	{r7, pc}

08102120 <stackInit_schedulableStackInit>:
********************************************************************************/
/* @cond S */
__SEC_START(__OS_FUNC_SECTION_START)
/* @endcond*/
__OS_FUNC_SECTION StackPointerType stackInit_schedulableStackInit(CosmOS_SchedulableVariableType  * schedulable)
{
 8102120:	b580      	push	{r7, lr}
 8102122:	b08c      	sub	sp, #48	; 0x30
 8102124:	af00      	add	r7, sp, #0
 8102126:	6078      	str	r0, [r7, #4]
 8102128:	687b      	ldr	r3, [r7, #4]
 810212a:	60fb      	str	r3, [r7, #12]
    return (CosmOS_StackConfigurationType *)(schedulable->cfg->stack);
 810212c:	68fb      	ldr	r3, [r7, #12]
 810212e:	681b      	ldr	r3, [r3, #0]
 8102130:	681b      	ldr	r3, [r3, #0]
    StackPointerType stackPointer;

    CosmOS_StackConfigurationType * stack;


    stack = schedulable_getStack( schedulable );
 8102132:	62fb      	str	r3, [r7, #44]	; 0x2c
 8102134:	687b      	ldr	r3, [r7, #4]
 8102136:	613b      	str	r3, [r7, #16]
    return (schedulable->cfg->handler);
 8102138:	693b      	ldr	r3, [r7, #16]
 810213a:	681b      	ldr	r3, [r3, #0]
 810213c:	689b      	ldr	r3, [r3, #8]
    handler = schedulable_getHandler( schedulable );
 810213e:	62bb      	str	r3, [r7, #40]	; 0x28
 8102140:	6afb      	ldr	r3, [r7, #44]	; 0x2c
 8102142:	617b      	str	r3, [r7, #20]
    return (stack->stackLowAddress);
 8102144:	697b      	ldr	r3, [r7, #20]
 8102146:	685b      	ldr	r3, [r3, #4]

    stackLowAddress = stack_getStackLowAddress( stack );
 8102148:	627b      	str	r3, [r7, #36]	; 0x24
 810214a:	6afb      	ldr	r3, [r7, #44]	; 0x2c
 810214c:	61bb      	str	r3, [r7, #24]
    return (stack->stackHighAddress);
 810214e:	69bb      	ldr	r3, [r7, #24]
 8102150:	689b      	ldr	r3, [r3, #8]
    stackHighAddress = stack_getStackHighAddress( stack );
 8102152:	623b      	str	r3, [r7, #32]

    stackPointer = CILstack_stackInit( stackLowAddress, stackHighAddress, (BitWidthType)handler );
 8102154:	6abb      	ldr	r3, [r7, #40]	; 0x28
 8102156:	461a      	mov	r2, r3
 8102158:	6a39      	ldr	r1, [r7, #32]
 810215a:	6a78      	ldr	r0, [r7, #36]	; 0x24
 810215c:	f000 fbab 	bl	81028b6 <CILstack_stackInit>
 8102160:	61f8      	str	r0, [r7, #28]

    return stackPointer;
 8102162:	69fb      	ldr	r3, [r7, #28]
}
 8102164:	4618      	mov	r0, r3
 8102166:	3730      	adds	r7, #48	; 0x30
 8102168:	46bd      	mov	sp, r7
 810216a:	bd80      	pop	{r7, pc}

0810216c <stackInit_init>:
********************************************************************************/
/* @cond S */
__SEC_START(__OS_FUNC_SECTION_START)
/* @endcond*/
__OS_FUNC_SECTION void stackInit_init(CosmOS_CoreVariableType * coreVar)
{
 810216c:	b580      	push	{r7, lr}
 810216e:	b094      	sub	sp, #80	; 0x50
 8102170:	af00      	add	r7, sp, #0
 8102172:	6078      	str	r0, [r7, #4]
 8102174:	687b      	ldr	r3, [r7, #4]
 8102176:	62fb      	str	r3, [r7, #44]	; 0x2c
    return (core->cfg->numberOfPrograms);
 8102178:	6afb      	ldr	r3, [r7, #44]	; 0x2c
 810217a:	681b      	ldr	r3, [r3, #0]
 810217c:	685b      	ldr	r3, [r3, #4]
                  stackPointerRetVal;

    CosmOS_ThreadVariableType * threadVar;
    CosmOS_ProgramVariableType * programVar;

    numberOfPrograms = core_getCoreNumberOfPrograms( coreVar );
 810217e:	647b      	str	r3, [r7, #68]	; 0x44

    for ( BitWidthType programIterator = 0; programIterator < numberOfPrograms; programIterator++ )
 8102180:	2300      	movs	r3, #0
 8102182:	64fb      	str	r3, [r7, #76]	; 0x4c
 8102184:	e037      	b.n	81021f6 <stackInit_init+0x8a>
 8102186:	687b      	ldr	r3, [r7, #4]
 8102188:	627b      	str	r3, [r7, #36]	; 0x24
 810218a:	6cfb      	ldr	r3, [r7, #76]	; 0x4c
 810218c:	623b      	str	r3, [r7, #32]
    return (&(core->programVars[programIterator]));
 810218e:	6a7b      	ldr	r3, [r7, #36]	; 0x24
 8102190:	68da      	ldr	r2, [r3, #12]
 8102192:	6a3b      	ldr	r3, [r7, #32]
 8102194:	011b      	lsls	r3, r3, #4
 8102196:	4413      	add	r3, r2
    {
        programVar = core_getCoreProgramVar( coreVar, programIterator );
 8102198:	643b      	str	r3, [r7, #64]	; 0x40
 810219a:	6c3b      	ldr	r3, [r7, #64]	; 0x40
 810219c:	62bb      	str	r3, [r7, #40]	; 0x28
    return (program->cfg->numberOfThreads);
 810219e:	6abb      	ldr	r3, [r7, #40]	; 0x28
 81021a0:	681b      	ldr	r3, [r3, #0]
 81021a2:	689b      	ldr	r3, [r3, #8]
        numberOfThreads = program_getProgramNumberOfThreads( programVar );
 81021a4:	63fb      	str	r3, [r7, #60]	; 0x3c

        for( BitWidthType threadIterator = 0; threadIterator < numberOfThreads; threadIterator++ )
 81021a6:	2300      	movs	r3, #0
 81021a8:	64bb      	str	r3, [r7, #72]	; 0x48
 81021aa:	e01d      	b.n	81021e8 <stackInit_init+0x7c>
 81021ac:	6c3b      	ldr	r3, [r7, #64]	; 0x40
 81021ae:	613b      	str	r3, [r7, #16]
 81021b0:	6cbb      	ldr	r3, [r7, #72]	; 0x48
 81021b2:	60fb      	str	r3, [r7, #12]
  *
  * @return CosmOS_ThreadVariableType *
********************************************************************************/
__STATIC_FORCEINLINE CosmOS_ThreadVariableType * program_getProgramThread(CosmOS_ProgramVariableType * program, BitWidthType threadIterator)
{
    return (&(program->threadVars[threadIterator]));
 81021b4:	693b      	ldr	r3, [r7, #16]
 81021b6:	689a      	ldr	r2, [r3, #8]
 81021b8:	68fb      	ldr	r3, [r7, #12]
 81021ba:	00db      	lsls	r3, r3, #3
 81021bc:	4413      	add	r3, r2
        {
            CosmOS_SchedulableVariableType * schedulableVar;


            threadVar = program_getProgramThread( programVar, threadIterator );
 81021be:	63bb      	str	r3, [r7, #56]	; 0x38
 81021c0:	6bbb      	ldr	r3, [r7, #56]	; 0x38
 81021c2:	617b      	str	r3, [r7, #20]
 81021c4:	697b      	ldr	r3, [r7, #20]
 81021c6:	685b      	ldr	r3, [r3, #4]
            schedulableVar = thread_getThreadSchedulable( threadVar );
 81021c8:	637b      	str	r3, [r7, #52]	; 0x34

            stackPointerRetVal = stackInit_schedulableStackInit( schedulableVar );
 81021ca:	6b78      	ldr	r0, [r7, #52]	; 0x34
 81021cc:	f7ff ffa8 	bl	8102120 <stackInit_schedulableStackInit>
 81021d0:	6338      	str	r0, [r7, #48]	; 0x30
 81021d2:	6b7b      	ldr	r3, [r7, #52]	; 0x34
 81021d4:	61fb      	str	r3, [r7, #28]
 81021d6:	6b3b      	ldr	r3, [r7, #48]	; 0x30
 81021d8:	61bb      	str	r3, [r7, #24]
    schedulable->stackPointer = stackPointerParam;
 81021da:	69fb      	ldr	r3, [r7, #28]
 81021dc:	69ba      	ldr	r2, [r7, #24]
 81021de:	609a      	str	r2, [r3, #8]
}
 81021e0:	bf00      	nop
        for( BitWidthType threadIterator = 0; threadIterator < numberOfThreads; threadIterator++ )
 81021e2:	6cbb      	ldr	r3, [r7, #72]	; 0x48
 81021e4:	3301      	adds	r3, #1
 81021e6:	64bb      	str	r3, [r7, #72]	; 0x48
 81021e8:	6cba      	ldr	r2, [r7, #72]	; 0x48
 81021ea:	6bfb      	ldr	r3, [r7, #60]	; 0x3c
 81021ec:	429a      	cmp	r2, r3
 81021ee:	d3dd      	bcc.n	81021ac <stackInit_init+0x40>
    for ( BitWidthType programIterator = 0; programIterator < numberOfPrograms; programIterator++ )
 81021f0:	6cfb      	ldr	r3, [r7, #76]	; 0x4c
 81021f2:	3301      	adds	r3, #1
 81021f4:	64fb      	str	r3, [r7, #76]	; 0x4c
 81021f6:	6cfa      	ldr	r2, [r7, #76]	; 0x4c
 81021f8:	6c7b      	ldr	r3, [r7, #68]	; 0x44
 81021fa:	429a      	cmp	r2, r3
 81021fc:	d3c3      	bcc.n	8102186 <stackInit_init+0x1a>
            schedulable_setStackPointer( schedulableVar, stackPointerRetVal );
        }
    }
}
 81021fe:	bf00      	nop
 8102200:	bf00      	nop
 8102202:	3750      	adds	r7, #80	; 0x50
 8102204:	46bd      	mov	sp, r7
 8102206:	bd80      	pop	{r7, pc}

08102208 <sysCalls_bitWidthType_ret_void>:
********************************************************************************/
/* @cond S */
__SEC_START(__OS_FUNC_SECTION_START)
/* @endcond*/
__OS_FUNC_SECTION void sysCalls_bitWidthType_ret_void(BitWidthType id)
{
 8102208:	b580      	push	{r7, lr}
 810220a:	b082      	sub	sp, #8
 810220c:	af00      	add	r7, sp, #0
 810220e:	6078      	str	r0, [r7, #4]
    CILsysCalls_bitWidthType_ret_void( id );
 8102210:	6878      	ldr	r0, [r7, #4]
 8102212:	f000 fc09 	bl	8102a28 <CILsysCalls_bitWidthType_ret_void>
};
 8102216:	bf00      	nop
 8102218:	3708      	adds	r7, #8
 810221a:	46bd      	mov	sp, r7
 810221c:	bd80      	pop	{r7, pc}

0810221e <sysCalls_bitWidthType_ret_bitWidthType>:
********************************************************************************/
/* @cond S */
__SEC_START(__OS_FUNC_SECTION_START)
/* @endcond*/
__OS_FUNC_SECTION BitWidthType sysCalls_bitWidthType_ret_bitWidthType(BitWidthType id)
{
 810221e:	b580      	push	{r7, lr}
 8102220:	b084      	sub	sp, #16
 8102222:	af00      	add	r7, sp, #0
 8102224:	6078      	str	r0, [r7, #4]
    BitWidthType returnValue;

    returnValue = CILsysCalls_bitWidthType_ret_bitWidthType( id );
 8102226:	6878      	ldr	r0, [r7, #4]
 8102228:	f000 fc09 	bl	8102a3e <CILsysCalls_bitWidthType_ret_bitWidthType>
 810222c:	60f8      	str	r0, [r7, #12]

    return returnValue;
 810222e:	68fb      	ldr	r3, [r7, #12]
};
 8102230:	4618      	mov	r0, r3
 8102232:	3710      	adds	r7, #16
 8102234:	46bd      	mov	sp, r7
 8102236:	bd80      	pop	{r7, pc}

08102238 <sysCalls_bitWidthType_bitWidthType_ret_bitWidthType>:
********************************************************************************/
/* @cond S */
__SEC_START(__OS_FUNC_SECTION_START)
/* @endcond*/
__OS_FUNC_SECTION BitWidthType sysCalls_bitWidthType_bitWidthType_ret_bitWidthType(BitWidthType id, BitWidthType arg)
{
 8102238:	b580      	push	{r7, lr}
 810223a:	b084      	sub	sp, #16
 810223c:	af00      	add	r7, sp, #0
 810223e:	6078      	str	r0, [r7, #4]
 8102240:	6039      	str	r1, [r7, #0]
    BitWidthType returnValue;

    returnValue = CILsysCalls_bitWidthType_bitWidthType_ret_bitWidthType( id, arg );
 8102242:	6839      	ldr	r1, [r7, #0]
 8102244:	6878      	ldr	r0, [r7, #4]
 8102246:	f000 fc08 	bl	8102a5a <CILsysCalls_bitWidthType_bitWidthType_ret_bitWidthType>
 810224a:	60f8      	str	r0, [r7, #12]

    return returnValue;
 810224c:	68fb      	ldr	r3, [r7, #12]
};
 810224e:	4618      	mov	r0, r3
 8102250:	3710      	adds	r7, #16
 8102252:	46bd      	mov	sp, r7
 8102254:	bd80      	pop	{r7, pc}

08102256 <sysCalls_bitWidthType_voidPtr_bitWidthType_ret_bitWidthType>:
********************************************************************************/
/* @cond S */
__SEC_START(__OS_FUNC_SECTION_START)
/* @endcond*/
__OS_FUNC_SECTION BitWidthType sysCalls_bitWidthType_voidPtr_bitWidthType_ret_bitWidthType(BitWidthType id, void * ptr, BitWidthType arg)
{
 8102256:	b580      	push	{r7, lr}
 8102258:	b086      	sub	sp, #24
 810225a:	af00      	add	r7, sp, #0
 810225c:	60f8      	str	r0, [r7, #12]
 810225e:	60b9      	str	r1, [r7, #8]
 8102260:	607a      	str	r2, [r7, #4]
    BitWidthType returnValue;

    returnValue = CILsysCalls_bitWidthType_voidPtr_bitWidthType_ret_bitWidthType( id, ptr, arg );
 8102262:	687a      	ldr	r2, [r7, #4]
 8102264:	68b9      	ldr	r1, [r7, #8]
 8102266:	68f8      	ldr	r0, [r7, #12]
 8102268:	f000 fc06 	bl	8102a78 <CILsysCalls_bitWidthType_voidPtr_bitWidthType_ret_bitWidthType>
 810226c:	6178      	str	r0, [r7, #20]

    return returnValue;
 810226e:	697b      	ldr	r3, [r7, #20]
};
 8102270:	4618      	mov	r0, r3
 8102272:	3718      	adds	r7, #24
 8102274:	46bd      	mov	sp, r7
 8102276:	bd80      	pop	{r7, pc}

08102278 <sysJobs_dispatcher>:
********************************************************************************/
/* @cond S */
__SEC_START(__OS_FUNC_SECTION_START)
/* @endcond*/
__OS_FUNC_SECTION void sysJobs_dispatcher(BitWidthType entityId)
{
 8102278:	b580      	push	{r7, lr}
 810227a:	b098      	sub	sp, #96	; 0x60
 810227c:	af00      	add	r7, sp, #0
 810227e:	6078      	str	r0, [r7, #4]

    CosmOS_CoreVariableType * coreVar;
    CosmOS_SysJobsVariableType * sysJobsVar;


    coreVar = core_getCoreVar();
 8102280:	f7ff f83e 	bl	8101300 <core_getCoreVar>
 8102284:	6578      	str	r0, [r7, #84]	; 0x54
 8102286:	6d7b      	ldr	r3, [r7, #84]	; 0x54
 8102288:	62fb      	str	r3, [r7, #44]	; 0x2c
    return (core->sysJobs);
 810228a:	6afb      	ldr	r3, [r7, #44]	; 0x2c
 810228c:	69db      	ldr	r3, [r3, #28]
    sysJobsVar = core_getCoreOsSysJobs( coreVar );
 810228e:	653b      	str	r3, [r7, #80]	; 0x50
 8102290:	6d3b      	ldr	r3, [r7, #80]	; 0x50
 8102292:	633b      	str	r3, [r7, #48]	; 0x30
  *
  * @return BitWidthType
********************************************************************************/
__STATIC_FORCEINLINE BitWidthType sysJobs_getSysJobsCurrentTick(CosmOS_SysJobsVariableType * sysJobs)
{
    return (sysJobs->currentTick);
 8102294:	6b3b      	ldr	r3, [r7, #48]	; 0x30
 8102296:	685b      	ldr	r3, [r3, #4]

    sysJobsCurrentTick = sysJobs_getSysJobsCurrentTick( sysJobsVar );
 8102298:	64fb      	str	r3, [r7, #76]	; 0x4c
 810229a:	6d3b      	ldr	r3, [r7, #80]	; 0x50
 810229c:	637b      	str	r3, [r7, #52]	; 0x34
    return (sysJobs->cfg->numOfGroups);
 810229e:	6b7b      	ldr	r3, [r7, #52]	; 0x34
 81022a0:	681b      	ldr	r3, [r3, #0]
 81022a2:	685b      	ldr	r3, [r3, #4]
    numOfGroups = sysJobs_getSysJobsNumOfGroups( sysJobsVar );
 81022a4:	64bb      	str	r3, [r7, #72]	; 0x48

    for ( BitWidthType groupIterator = 0; groupIterator < numOfGroups; groupIterator++ )
 81022a6:	2300      	movs	r3, #0
 81022a8:	65fb      	str	r3, [r7, #92]	; 0x5c
 81022aa:	e049      	b.n	8102340 <sysJobs_dispatcher+0xc8>
 81022ac:	6d3b      	ldr	r3, [r7, #80]	; 0x50
 81022ae:	62bb      	str	r3, [r7, #40]	; 0x28
 81022b0:	6dfb      	ldr	r3, [r7, #92]	; 0x5c
 81022b2:	627b      	str	r3, [r7, #36]	; 0x24
  *
  * @return BitWidthType
********************************************************************************/
__STATIC_FORCEINLINE BitWidthType sysJobs_getSysJobsGroupTickMultiplicator(CosmOS_SysJobsVariableType * sysJobs, BitWidthType groupId)
{
    return (sysJobs->cfg->groups[groupId].tickMultiplicator);
 81022b4:	6abb      	ldr	r3, [r7, #40]	; 0x28
 81022b6:	681b      	ldr	r3, [r3, #0]
 81022b8:	6819      	ldr	r1, [r3, #0]
 81022ba:	6a7a      	ldr	r2, [r7, #36]	; 0x24
 81022bc:	4613      	mov	r3, r2
 81022be:	005b      	lsls	r3, r3, #1
 81022c0:	4413      	add	r3, r2
 81022c2:	009b      	lsls	r3, r3, #2
 81022c4:	440b      	add	r3, r1
 81022c6:	689b      	ldr	r3, [r3, #8]
    {
        BitWidthType  groupTickMultiplicator;


        groupTickMultiplicator = sysJobs_getSysJobsGroupTickMultiplicator( sysJobsVar, groupIterator );
 81022c8:	643b      	str	r3, [r7, #64]	; 0x40

        if ( IS_NOT( sysJobsCurrentTick % groupTickMultiplicator ) )
 81022ca:	6cfb      	ldr	r3, [r7, #76]	; 0x4c
 81022cc:	6c3a      	ldr	r2, [r7, #64]	; 0x40
 81022ce:	fbb3 f2f2 	udiv	r2, r3, r2
 81022d2:	6c39      	ldr	r1, [r7, #64]	; 0x40
 81022d4:	fb01 f202 	mul.w	r2, r1, r2
 81022d8:	1a9b      	subs	r3, r3, r2
 81022da:	2b00      	cmp	r3, #0
 81022dc:	d12d      	bne.n	810233a <sysJobs_dispatcher+0xc2>
 81022de:	6d3b      	ldr	r3, [r7, #80]	; 0x50
 81022e0:	61bb      	str	r3, [r7, #24]
 81022e2:	6dfb      	ldr	r3, [r7, #92]	; 0x5c
 81022e4:	617b      	str	r3, [r7, #20]
    return (CosmOS_GenericVoidType *)(sysJobs->cfg->groups[groupId].handlers);
 81022e6:	69bb      	ldr	r3, [r7, #24]
 81022e8:	681b      	ldr	r3, [r3, #0]
 81022ea:	6819      	ldr	r1, [r3, #0]
 81022ec:	697a      	ldr	r2, [r7, #20]
 81022ee:	4613      	mov	r3, r2
 81022f0:	005b      	lsls	r3, r3, #1
 81022f2:	4413      	add	r3, r2
 81022f4:	009b      	lsls	r3, r3, #2
 81022f6:	440b      	add	r3, r1
 81022f8:	681b      	ldr	r3, [r3, #0]
        {
            BitWidthType numOfHandlers;
            CosmOS_GenericVoidType * handlers;


            handlers = sysJobs_getSysJobsGroupHandlers( sysJobsVar, groupIterator );
 81022fa:	63fb      	str	r3, [r7, #60]	; 0x3c
 81022fc:	6d3b      	ldr	r3, [r7, #80]	; 0x50
 81022fe:	623b      	str	r3, [r7, #32]
 8102300:	6dfb      	ldr	r3, [r7, #92]	; 0x5c
 8102302:	61fb      	str	r3, [r7, #28]
    return (sysJobs->cfg->groups[groupId].numOfHandlers);
 8102304:	6a3b      	ldr	r3, [r7, #32]
 8102306:	681b      	ldr	r3, [r3, #0]
 8102308:	6819      	ldr	r1, [r3, #0]
 810230a:	69fa      	ldr	r2, [r7, #28]
 810230c:	4613      	mov	r3, r2
 810230e:	005b      	lsls	r3, r3, #1
 8102310:	4413      	add	r3, r2
 8102312:	009b      	lsls	r3, r3, #2
 8102314:	440b      	add	r3, r1
 8102316:	685b      	ldr	r3, [r3, #4]
            numOfHandlers = sysJobs_getSysJobsGroupNumOfHandlers( sysJobsVar, groupIterator );
 8102318:	63bb      	str	r3, [r7, #56]	; 0x38

            for ( BitWidthType handlerIterator = 0; handlerIterator < numOfHandlers; handlerIterator++ )
 810231a:	2300      	movs	r3, #0
 810231c:	65bb      	str	r3, [r7, #88]	; 0x58
 810231e:	e008      	b.n	8102332 <sysJobs_dispatcher+0xba>
            {
                handlers[handlerIterator]();
 8102320:	6dbb      	ldr	r3, [r7, #88]	; 0x58
 8102322:	009b      	lsls	r3, r3, #2
 8102324:	6bfa      	ldr	r2, [r7, #60]	; 0x3c
 8102326:	4413      	add	r3, r2
 8102328:	681b      	ldr	r3, [r3, #0]
 810232a:	4798      	blx	r3
            for ( BitWidthType handlerIterator = 0; handlerIterator < numOfHandlers; handlerIterator++ )
 810232c:	6dbb      	ldr	r3, [r7, #88]	; 0x58
 810232e:	3301      	adds	r3, #1
 8102330:	65bb      	str	r3, [r7, #88]	; 0x58
 8102332:	6dba      	ldr	r2, [r7, #88]	; 0x58
 8102334:	6bbb      	ldr	r3, [r7, #56]	; 0x38
 8102336:	429a      	cmp	r2, r3
 8102338:	d3f2      	bcc.n	8102320 <sysJobs_dispatcher+0xa8>
    for ( BitWidthType groupIterator = 0; groupIterator < numOfGroups; groupIterator++ )
 810233a:	6dfb      	ldr	r3, [r7, #92]	; 0x5c
 810233c:	3301      	adds	r3, #1
 810233e:	65fb      	str	r3, [r7, #92]	; 0x5c
 8102340:	6dfa      	ldr	r2, [r7, #92]	; 0x5c
 8102342:	6cbb      	ldr	r3, [r7, #72]	; 0x48
 8102344:	429a      	cmp	r2, r3
 8102346:	d3b1      	bcc.n	81022ac <sysJobs_dispatcher+0x34>
 8102348:	6d3b      	ldr	r3, [r7, #80]	; 0x50
 810234a:	60bb      	str	r3, [r7, #8]
    return (sysJobs->cfg->hyperTick);
 810234c:	68bb      	ldr	r3, [r7, #8]
 810234e:	681b      	ldr	r3, [r3, #0]
 8102350:	689b      	ldr	r3, [r3, #8]
            }
        }
    }

    hyperTick = sysJobs_getSysJobsHyperTick( sysJobsVar );
 8102352:	647b      	str	r3, [r7, #68]	; 0x44

    sysJobsCurrentTick = ( ( sysJobsCurrentTick + 1 ) % hyperTick );
 8102354:	6cfb      	ldr	r3, [r7, #76]	; 0x4c
 8102356:	3301      	adds	r3, #1
 8102358:	6c7a      	ldr	r2, [r7, #68]	; 0x44
 810235a:	fbb3 f2f2 	udiv	r2, r3, r2
 810235e:	6c79      	ldr	r1, [r7, #68]	; 0x44
 8102360:	fb01 f202 	mul.w	r2, r1, r2
 8102364:	1a9b      	subs	r3, r3, r2
 8102366:	64fb      	str	r3, [r7, #76]	; 0x4c
 8102368:	6d3b      	ldr	r3, [r7, #80]	; 0x50
 810236a:	613b      	str	r3, [r7, #16]
 810236c:	6cfb      	ldr	r3, [r7, #76]	; 0x4c
 810236e:	60fb      	str	r3, [r7, #12]
  *
  * @return none
********************************************************************************/
__STATIC_FORCEINLINE void sysJobs_setSysJobsCurrentTick(CosmOS_SysJobsVariableType * sysJobs, BitWidthType currentTickParam)
{
    sysJobs->currentTick = currentTickParam;
 8102370:	693b      	ldr	r3, [r7, #16]
 8102372:	68fa      	ldr	r2, [r7, #12]
 8102374:	605a      	str	r2, [r3, #4]
}
 8102376:	bf00      	nop
    sysJobs_setSysJobsCurrentTick( sysJobsVar, sysJobsCurrentTick );

	__SUPRESS_UNUSED_VAR(entityId);

};
 8102378:	bf00      	nop
 810237a:	3760      	adds	r7, #96	; 0x60
 810237c:	46bd      	mov	sp, r7
 810237e:	bd80      	pop	{r7, pc}

08102380 <CILcore_getCoreId>:
********************************************************************************/
/* @cond S */
__SEC_START(__OS_FUNC_SECTION_START)
/* @endcond*/
__OS_FUNC_SECTION BitWidthType CILcore_getCoreId(void)
{
 8102380:	b580      	push	{r7, lr}
 8102382:	af00      	add	r7, sp, #0
    return (HAL_GetCurrentCPUID() == CM7_CPUID) ? CORE_0_ID : CORE_1_ID;
 8102384:	f003 fae2 	bl	810594c <HAL_GetCurrentCPUID>
 8102388:	4603      	mov	r3, r0
 810238a:	2b03      	cmp	r3, #3
 810238c:	bf14      	ite	ne
 810238e:	2301      	movne	r3, #1
 8102390:	2300      	moveq	r3, #0
 8102392:	b2db      	uxtb	r3, r3
}
 8102394:	4618      	mov	r0, r3
 8102396:	bd80      	pop	{r7, pc}

08102398 <CILcore_setCoreVar>:
********************************************************************************/
/* @cond S */
__SEC_START(__OS_FUNC_SECTION_START)
/* @endcond*/
__OS_FUNC_SECTION void CILcore_setCoreVar(CosmOS_OsVariableType * osVar)
{
 8102398:	b580      	push	{r7, lr}
 810239a:	b08a      	sub	sp, #40	; 0x28
 810239c:	af00      	add	r7, sp, #0
 810239e:	6078      	str	r0, [r7, #4]
    BitWidthType coreId,
                numberOfCores;

    CosmOS_CoreVariableType * coreVar;

    coreId = CILcore_getCoreId();
 81023a0:	f7ff ffee 	bl	8102380 <CILcore_getCoreId>
 81023a4:	6278      	str	r0, [r7, #36]	; 0x24
 81023a6:	687b      	ldr	r3, [r7, #4]
 81023a8:	60fb      	str	r3, [r7, #12]
    return (osVar->cfg->numberOfCores);
 81023aa:	68fb      	ldr	r3, [r7, #12]
 81023ac:	681b      	ldr	r3, [r3, #0]
 81023ae:	685b      	ldr	r3, [r3, #4]
    numberOfCores = os_getOsNumberOfCores( osVar );
 81023b0:	623b      	str	r3, [r7, #32]

    cosmosAssert( coreId < numberOfCores );
 81023b2:	6a7a      	ldr	r2, [r7, #36]	; 0x24
 81023b4:	6a3b      	ldr	r3, [r7, #32]
 81023b6:	429a      	cmp	r2, r3
 81023b8:	bf34      	ite	cc
 81023ba:	2301      	movcc	r3, #1
 81023bc:	2300      	movcs	r3, #0
 81023be:	b2db      	uxtb	r3, r3
 81023c0:	613b      	str	r3, [r7, #16]
    if ( IS_NOT( result ) )
 81023c2:	693b      	ldr	r3, [r7, #16]
 81023c4:	2b00      	cmp	r3, #0
 81023c6:	d101      	bne.n	81023cc <CILcore_setCoreVar+0x34>
        os_kernelPanic();
 81023c8:	f7ff f95e 	bl	8101688 <os_kernelPanic>
}
 81023cc:	bf00      	nop
 81023ce:	687b      	ldr	r3, [r7, #4]
 81023d0:	61bb      	str	r3, [r7, #24]
 81023d2:	6a7b      	ldr	r3, [r7, #36]	; 0x24
 81023d4:	617b      	str	r3, [r7, #20]
    return (&(osVar->coreVars[coreId]));
 81023d6:	69bb      	ldr	r3, [r7, #24]
 81023d8:	685a      	ldr	r2, [r3, #4]
 81023da:	697b      	ldr	r3, [r7, #20]
 81023dc:	015b      	lsls	r3, r3, #5
 81023de:	4413      	add	r3, r2

    coreVar = os_getCoreVar( osVar, coreId );
 81023e0:	61fb      	str	r3, [r7, #28]

    //must be changed, not valid for all compilers
    __asm volatile("MOV R9,%[coreVariable]" : [coreVariable] "=r" (coreVar));
 81023e2:	4699      	mov	r9, r3
 81023e4:	61fb      	str	r3, [r7, #28]
}
 81023e6:	bf00      	nop
 81023e8:	3728      	adds	r7, #40	; 0x28
 81023ea:	46bd      	mov	sp, r7
 81023ec:	bd80      	pop	{r7, pc}

081023ee <CILGPIO_togglePin>:
********************************************************************************/
/* @cond S */
__SEC_START(__OS_FUNC_SECTION_START)
/* @endcond*/
__OS_FUNC_SECTION void CILGPIO_togglePin(void *GPIOx, BitWidthType GPIO_Pin)
{
 81023ee:	b580      	push	{r7, lr}
 81023f0:	b082      	sub	sp, #8
 81023f2:	af00      	add	r7, sp, #0
 81023f4:	6078      	str	r0, [r7, #4]
 81023f6:	6039      	str	r1, [r7, #0]
    HAL_GPIO_TogglePin( GPIOx, (uint16_t)GPIO_Pin );
 81023f8:	683b      	ldr	r3, [r7, #0]
 81023fa:	b29b      	uxth	r3, r3
 81023fc:	4619      	mov	r1, r3
 81023fe:	6878      	ldr	r0, [r7, #4]
 8102400:	f003 fc81 	bl	8105d06 <HAL_GPIO_TogglePin>
}
 8102404:	bf00      	nop
 8102406:	3708      	adds	r7, #8
 8102408:	46bd      	mov	sp, r7
 810240a:	bd80      	pop	{r7, pc}

0810240c <CILmemoryProtection_init>:
/* @endcond*/
__OS_FUNC_SECTION void CILmemoryProtection_init(AddressType codeMemoryHighAddress,\
												AddressType codeMemoryLowAddress, \
												AddressType stackMemoryHighAddress, \
												AddressType stackMemoryLowAddress)
{
 810240c:	b580      	push	{r7, lr}
 810240e:	b090      	sub	sp, #64	; 0x40
 8102410:	af00      	add	r7, sp, #0
 8102412:	60f8      	str	r0, [r7, #12]
 8102414:	60b9      	str	r1, [r7, #8]
 8102416:	607a      	str	r2, [r7, #4]
 8102418:	603b      	str	r3, [r7, #0]
    MPU_Region_InitTypeDef MPU_InitStruct = {0};
 810241a:	f107 0310 	add.w	r3, r7, #16
 810241e:	2200      	movs	r2, #0
 8102420:	601a      	str	r2, [r3, #0]
 8102422:	605a      	str	r2, [r3, #4]
 8102424:	609a      	str	r2, [r3, #8]
 8102426:	60da      	str	r2, [r3, #12]

    HAL_MPU_Disable();
 8102428:	f003 fa14 	bl	8105854 <HAL_MPU_Disable>
    //MPU_InitStruct.IsShareable = MPU_ACCESS_SHAREABLE;
    //MPU_InitStruct.IsCacheable = MPU_ACCESS_CACHEABLE;
    //MPU_InitStruct.IsBufferable = MPU_ACCESS_BUFFERABLE;

	//TODO: Patched cause MPU should take in count whole FLASH - functions from the routes are used from the local core flash bank which booted the os consts to RAM
	MPU_InitStruct.Enable = MPU_REGION_ENABLE;
 810242c:	2301      	movs	r3, #1
 810242e:	743b      	strb	r3, [r7, #16]
    MPU_InitStruct.Number = MPU_REGION_NUMBER0;
 8102430:	2300      	movs	r3, #0
 8102432:	747b      	strb	r3, [r7, #17]
    MPU_InitStruct.BaseAddress = 0x08000000;
 8102434:	f04f 6300 	mov.w	r3, #134217728	; 0x8000000
 8102438:	617b      	str	r3, [r7, #20]
    MPU_InitStruct.Size = MPU_REGION_SIZE_2MB;
 810243a:	2314      	movs	r3, #20
 810243c:	763b      	strb	r3, [r7, #24]
    MPU_InitStruct.SubRegionDisable = 0x00;
 810243e:	2300      	movs	r3, #0
 8102440:	767b      	strb	r3, [r7, #25]
    MPU_InitStruct.TypeExtField = MPU_TEX_LEVEL1;
 8102442:	2301      	movs	r3, #1
 8102444:	76bb      	strb	r3, [r7, #26]
    MPU_InitStruct.AccessPermission = MPU_REGION_PRIV_RO_URO;
 8102446:	2306      	movs	r3, #6
 8102448:	76fb      	strb	r3, [r7, #27]
    MPU_InitStruct.DisableExec = MPU_INSTRUCTION_ACCESS_ENABLE;
 810244a:	2300      	movs	r3, #0
 810244c:	773b      	strb	r3, [r7, #28]
    MPU_InitStruct.IsShareable = MPU_ACCESS_SHAREABLE;
 810244e:	2301      	movs	r3, #1
 8102450:	777b      	strb	r3, [r7, #29]
    MPU_InitStruct.IsCacheable = MPU_ACCESS_CACHEABLE;
 8102452:	2301      	movs	r3, #1
 8102454:	77bb      	strb	r3, [r7, #30]
    MPU_InitStruct.IsBufferable = MPU_ACCESS_BUFFERABLE;
 8102456:	2301      	movs	r3, #1
 8102458:	77fb      	strb	r3, [r7, #31]

    HAL_MPU_ConfigRegion(&MPU_InitStruct);
 810245a:	f107 0310 	add.w	r3, r7, #16
 810245e:	4618      	mov	r0, r3
 8102460:	f003 fa30 	bl	81058c4 <HAL_MPU_ConfigRegion>

    MPU_InitStruct.Enable = MPU_REGION_ENABLE;
 8102464:	2301      	movs	r3, #1
 8102466:	743b      	strb	r3, [r7, #16]
    MPU_InitStruct.Number = MPU_REGION_NUMBER1;
 8102468:	2301      	movs	r3, #1
 810246a:	747b      	strb	r3, [r7, #17]
    MPU_InitStruct.BaseAddress = stackMemoryLowAddress;
 810246c:	683b      	ldr	r3, [r7, #0]
 810246e:	617b      	str	r3, [r7, #20]
    MPU_InitStruct.Size = (CILmemoryProtection_fastLogBase2( (BitWidthType)( stackMemoryHighAddress - stackMemoryLowAddress )));
 8102470:	687a      	ldr	r2, [r7, #4]
 8102472:	683b      	ldr	r3, [r7, #0]
 8102474:	1ad3      	subs	r3, r2, r3
 8102476:	627b      	str	r3, [r7, #36]	; 0x24
    size |= size >> 1;
 8102478:	6a7b      	ldr	r3, [r7, #36]	; 0x24
 810247a:	085b      	lsrs	r3, r3, #1
 810247c:	6a7a      	ldr	r2, [r7, #36]	; 0x24
 810247e:	4313      	orrs	r3, r2
 8102480:	627b      	str	r3, [r7, #36]	; 0x24
    size |= size >> 2;
 8102482:	6a7b      	ldr	r3, [r7, #36]	; 0x24
 8102484:	089b      	lsrs	r3, r3, #2
 8102486:	6a7a      	ldr	r2, [r7, #36]	; 0x24
 8102488:	4313      	orrs	r3, r2
 810248a:	627b      	str	r3, [r7, #36]	; 0x24
    size |= size >> 4;
 810248c:	6a7b      	ldr	r3, [r7, #36]	; 0x24
 810248e:	091b      	lsrs	r3, r3, #4
 8102490:	6a7a      	ldr	r2, [r7, #36]	; 0x24
 8102492:	4313      	orrs	r3, r2
 8102494:	627b      	str	r3, [r7, #36]	; 0x24
    size |= size >> 8;
 8102496:	6a7b      	ldr	r3, [r7, #36]	; 0x24
 8102498:	0a1b      	lsrs	r3, r3, #8
 810249a:	6a7a      	ldr	r2, [r7, #36]	; 0x24
 810249c:	4313      	orrs	r3, r2
 810249e:	627b      	str	r3, [r7, #36]	; 0x24
    size |= size >> 16;
 81024a0:	6a7b      	ldr	r3, [r7, #36]	; 0x24
 81024a2:	0c1b      	lsrs	r3, r3, #16
 81024a4:	6a7a      	ldr	r2, [r7, #36]	; 0x24
 81024a6:	4313      	orrs	r3, r2
 81024a8:	627b      	str	r3, [r7, #36]	; 0x24
    result = MultiplyDeBruijnBitPosition[(uint32_t)(size * 0x07C4ACDDU) >> 27];
 81024aa:	6a7b      	ldr	r3, [r7, #36]	; 0x24
 81024ac:	4a77      	ldr	r2, [pc, #476]	; (810268c <CILmemoryProtection_init+0x280>)
 81024ae:	fb02 f303 	mul.w	r3, r2, r3
 81024b2:	0edb      	lsrs	r3, r3, #27
 81024b4:	4a76      	ldr	r2, [pc, #472]	; (8102690 <CILmemoryProtection_init+0x284>)
 81024b6:	f852 3023 	ldr.w	r3, [r2, r3, lsl #2]
 81024ba:	623b      	str	r3, [r7, #32]
    return (result-1);
 81024bc:	6a3b      	ldr	r3, [r7, #32]
 81024be:	3b01      	subs	r3, #1
    MPU_InitStruct.Size = (CILmemoryProtection_fastLogBase2( (BitWidthType)( stackMemoryHighAddress - stackMemoryLowAddress )));
 81024c0:	b2db      	uxtb	r3, r3
 81024c2:	763b      	strb	r3, [r7, #24]
    MPU_InitStruct.SubRegionDisable = 0x00;
 81024c4:	2300      	movs	r3, #0
 81024c6:	767b      	strb	r3, [r7, #25]
    MPU_InitStruct.TypeExtField = MPU_TEX_LEVEL1;
 81024c8:	2301      	movs	r3, #1
 81024ca:	76bb      	strb	r3, [r7, #26]
    MPU_InitStruct.AccessPermission = MPU_REGION_PRIV_RW_URO;
 81024cc:	2302      	movs	r3, #2
 81024ce:	76fb      	strb	r3, [r7, #27]
    MPU_InitStruct.DisableExec = MPU_INSTRUCTION_ACCESS_ENABLE;
 81024d0:	2300      	movs	r3, #0
 81024d2:	773b      	strb	r3, [r7, #28]
    MPU_InitStruct.IsShareable = MPU_ACCESS_SHAREABLE;
 81024d4:	2301      	movs	r3, #1
 81024d6:	777b      	strb	r3, [r7, #29]
    MPU_InitStruct.IsCacheable = MPU_ACCESS_CACHEABLE;
 81024d8:	2301      	movs	r3, #1
 81024da:	77bb      	strb	r3, [r7, #30]
    MPU_InitStruct.IsBufferable = MPU_ACCESS_BUFFERABLE;
 81024dc:	2301      	movs	r3, #1
 81024de:	77fb      	strb	r3, [r7, #31]

    HAL_MPU_ConfigRegion(&MPU_InitStruct);
 81024e0:	f107 0310 	add.w	r3, r7, #16
 81024e4:	4618      	mov	r0, r3
 81024e6:	f003 f9ed 	bl	81058c4 <HAL_MPU_ConfigRegion>

    MPU_InitStruct.Enable = MPU_REGION_ENABLE;
 81024ea:	2301      	movs	r3, #1
 81024ec:	743b      	strb	r3, [r7, #16]
    MPU_InitStruct.Number = MPU_REGION_NUMBER2;
 81024ee:	2302      	movs	r3, #2
 81024f0:	747b      	strb	r3, [r7, #17]
    MPU_InitStruct.BaseAddress =  (BitWidthType)_s_os_section_consts;
 81024f2:	4b68      	ldr	r3, [pc, #416]	; (8102694 <CILmemoryProtection_init+0x288>)
 81024f4:	617b      	str	r3, [r7, #20]
    MPU_InitStruct.Size = (CILmemoryProtection_fastLogBase2( (BitWidthType)( _e_os_section_consts - _s_os_section_consts )));
 81024f6:	4a68      	ldr	r2, [pc, #416]	; (8102698 <CILmemoryProtection_init+0x28c>)
 81024f8:	4b66      	ldr	r3, [pc, #408]	; (8102694 <CILmemoryProtection_init+0x288>)
 81024fa:	1ad3      	subs	r3, r2, r3
 81024fc:	62fb      	str	r3, [r7, #44]	; 0x2c
    size |= size >> 1;
 81024fe:	6afb      	ldr	r3, [r7, #44]	; 0x2c
 8102500:	085b      	lsrs	r3, r3, #1
 8102502:	6afa      	ldr	r2, [r7, #44]	; 0x2c
 8102504:	4313      	orrs	r3, r2
 8102506:	62fb      	str	r3, [r7, #44]	; 0x2c
    size |= size >> 2;
 8102508:	6afb      	ldr	r3, [r7, #44]	; 0x2c
 810250a:	089b      	lsrs	r3, r3, #2
 810250c:	6afa      	ldr	r2, [r7, #44]	; 0x2c
 810250e:	4313      	orrs	r3, r2
 8102510:	62fb      	str	r3, [r7, #44]	; 0x2c
    size |= size >> 4;
 8102512:	6afb      	ldr	r3, [r7, #44]	; 0x2c
 8102514:	091b      	lsrs	r3, r3, #4
 8102516:	6afa      	ldr	r2, [r7, #44]	; 0x2c
 8102518:	4313      	orrs	r3, r2
 810251a:	62fb      	str	r3, [r7, #44]	; 0x2c
    size |= size >> 8;
 810251c:	6afb      	ldr	r3, [r7, #44]	; 0x2c
 810251e:	0a1b      	lsrs	r3, r3, #8
 8102520:	6afa      	ldr	r2, [r7, #44]	; 0x2c
 8102522:	4313      	orrs	r3, r2
 8102524:	62fb      	str	r3, [r7, #44]	; 0x2c
    size |= size >> 16;
 8102526:	6afb      	ldr	r3, [r7, #44]	; 0x2c
 8102528:	0c1b      	lsrs	r3, r3, #16
 810252a:	6afa      	ldr	r2, [r7, #44]	; 0x2c
 810252c:	4313      	orrs	r3, r2
 810252e:	62fb      	str	r3, [r7, #44]	; 0x2c
    result = MultiplyDeBruijnBitPosition[(uint32_t)(size * 0x07C4ACDDU) >> 27];
 8102530:	6afb      	ldr	r3, [r7, #44]	; 0x2c
 8102532:	4a56      	ldr	r2, [pc, #344]	; (810268c <CILmemoryProtection_init+0x280>)
 8102534:	fb02 f303 	mul.w	r3, r2, r3
 8102538:	0edb      	lsrs	r3, r3, #27
 810253a:	4a55      	ldr	r2, [pc, #340]	; (8102690 <CILmemoryProtection_init+0x284>)
 810253c:	f852 3023 	ldr.w	r3, [r2, r3, lsl #2]
 8102540:	62bb      	str	r3, [r7, #40]	; 0x28
    return (result-1);
 8102542:	6abb      	ldr	r3, [r7, #40]	; 0x28
 8102544:	3b01      	subs	r3, #1
    MPU_InitStruct.Size = (CILmemoryProtection_fastLogBase2( (BitWidthType)( _e_os_section_consts - _s_os_section_consts )));
 8102546:	b2db      	uxtb	r3, r3
 8102548:	763b      	strb	r3, [r7, #24]
    MPU_InitStruct.SubRegionDisable = 0x00;
 810254a:	2300      	movs	r3, #0
 810254c:	767b      	strb	r3, [r7, #25]
    MPU_InitStruct.TypeExtField = MPU_TEX_LEVEL1;
 810254e:	2301      	movs	r3, #1
 8102550:	76bb      	strb	r3, [r7, #26]
    MPU_InitStruct.AccessPermission = MPU_REGION_PRIV_RO_URO;
 8102552:	2306      	movs	r3, #6
 8102554:	76fb      	strb	r3, [r7, #27]
    MPU_InitStruct.DisableExec = MPU_INSTRUCTION_ACCESS_ENABLE;
 8102556:	2300      	movs	r3, #0
 8102558:	773b      	strb	r3, [r7, #28]
    MPU_InitStruct.IsShareable = MPU_ACCESS_SHAREABLE;
 810255a:	2301      	movs	r3, #1
 810255c:	777b      	strb	r3, [r7, #29]
    MPU_InitStruct.IsCacheable = MPU_ACCESS_CACHEABLE;
 810255e:	2301      	movs	r3, #1
 8102560:	77bb      	strb	r3, [r7, #30]
    MPU_InitStruct.IsBufferable = MPU_ACCESS_BUFFERABLE;
 8102562:	2301      	movs	r3, #1
 8102564:	77fb      	strb	r3, [r7, #31]

    HAL_MPU_ConfigRegion(&MPU_InitStruct);
 8102566:	f107 0310 	add.w	r3, r7, #16
 810256a:	4618      	mov	r0, r3
 810256c:	f003 f9aa 	bl	81058c4 <HAL_MPU_ConfigRegion>

    MPU_InitStruct.Enable = MPU_REGION_ENABLE;
 8102570:	2301      	movs	r3, #1
 8102572:	743b      	strb	r3, [r7, #16]
    MPU_InitStruct.Number = MPU_REGION_NUMBER3;
 8102574:	2303      	movs	r3, #3
 8102576:	747b      	strb	r3, [r7, #17]
    MPU_InitStruct.BaseAddress = (BitWidthType)_s_os_section_vars;
 8102578:	4b48      	ldr	r3, [pc, #288]	; (810269c <CILmemoryProtection_init+0x290>)
 810257a:	617b      	str	r3, [r7, #20]
    MPU_InitStruct.Size = (CILmemoryProtection_fastLogBase2( (BitWidthType)(_e_os_section_vars - _s_os_section_vars )));
 810257c:	4a48      	ldr	r2, [pc, #288]	; (81026a0 <CILmemoryProtection_init+0x294>)
 810257e:	4b47      	ldr	r3, [pc, #284]	; (810269c <CILmemoryProtection_init+0x290>)
 8102580:	1ad3      	subs	r3, r2, r3
 8102582:	637b      	str	r3, [r7, #52]	; 0x34
    size |= size >> 1;
 8102584:	6b7b      	ldr	r3, [r7, #52]	; 0x34
 8102586:	085b      	lsrs	r3, r3, #1
 8102588:	6b7a      	ldr	r2, [r7, #52]	; 0x34
 810258a:	4313      	orrs	r3, r2
 810258c:	637b      	str	r3, [r7, #52]	; 0x34
    size |= size >> 2;
 810258e:	6b7b      	ldr	r3, [r7, #52]	; 0x34
 8102590:	089b      	lsrs	r3, r3, #2
 8102592:	6b7a      	ldr	r2, [r7, #52]	; 0x34
 8102594:	4313      	orrs	r3, r2
 8102596:	637b      	str	r3, [r7, #52]	; 0x34
    size |= size >> 4;
 8102598:	6b7b      	ldr	r3, [r7, #52]	; 0x34
 810259a:	091b      	lsrs	r3, r3, #4
 810259c:	6b7a      	ldr	r2, [r7, #52]	; 0x34
 810259e:	4313      	orrs	r3, r2
 81025a0:	637b      	str	r3, [r7, #52]	; 0x34
    size |= size >> 8;
 81025a2:	6b7b      	ldr	r3, [r7, #52]	; 0x34
 81025a4:	0a1b      	lsrs	r3, r3, #8
 81025a6:	6b7a      	ldr	r2, [r7, #52]	; 0x34
 81025a8:	4313      	orrs	r3, r2
 81025aa:	637b      	str	r3, [r7, #52]	; 0x34
    size |= size >> 16;
 81025ac:	6b7b      	ldr	r3, [r7, #52]	; 0x34
 81025ae:	0c1b      	lsrs	r3, r3, #16
 81025b0:	6b7a      	ldr	r2, [r7, #52]	; 0x34
 81025b2:	4313      	orrs	r3, r2
 81025b4:	637b      	str	r3, [r7, #52]	; 0x34
    result = MultiplyDeBruijnBitPosition[(uint32_t)(size * 0x07C4ACDDU) >> 27];
 81025b6:	6b7b      	ldr	r3, [r7, #52]	; 0x34
 81025b8:	4a34      	ldr	r2, [pc, #208]	; (810268c <CILmemoryProtection_init+0x280>)
 81025ba:	fb02 f303 	mul.w	r3, r2, r3
 81025be:	0edb      	lsrs	r3, r3, #27
 81025c0:	4a33      	ldr	r2, [pc, #204]	; (8102690 <CILmemoryProtection_init+0x284>)
 81025c2:	f852 3023 	ldr.w	r3, [r2, r3, lsl #2]
 81025c6:	633b      	str	r3, [r7, #48]	; 0x30
    return (result-1);
 81025c8:	6b3b      	ldr	r3, [r7, #48]	; 0x30
 81025ca:	3b01      	subs	r3, #1
    MPU_InitStruct.Size = (CILmemoryProtection_fastLogBase2( (BitWidthType)(_e_os_section_vars - _s_os_section_vars )));
 81025cc:	b2db      	uxtb	r3, r3
 81025ce:	763b      	strb	r3, [r7, #24]
    MPU_InitStruct.SubRegionDisable = 0x00;
 81025d0:	2300      	movs	r3, #0
 81025d2:	767b      	strb	r3, [r7, #25]
    MPU_InitStruct.TypeExtField = MPU_TEX_LEVEL1;
 81025d4:	2301      	movs	r3, #1
 81025d6:	76bb      	strb	r3, [r7, #26]
    MPU_InitStruct.AccessPermission = MPU_REGION_PRIV_RW_URO;
 81025d8:	2302      	movs	r3, #2
 81025da:	76fb      	strb	r3, [r7, #27]
    MPU_InitStruct.DisableExec = MPU_INSTRUCTION_ACCESS_ENABLE;
 81025dc:	2300      	movs	r3, #0
 81025de:	773b      	strb	r3, [r7, #28]
    MPU_InitStruct.IsShareable = MPU_ACCESS_SHAREABLE;
 81025e0:	2301      	movs	r3, #1
 81025e2:	777b      	strb	r3, [r7, #29]
    MPU_InitStruct.IsCacheable = MPU_ACCESS_CACHEABLE;
 81025e4:	2301      	movs	r3, #1
 81025e6:	77bb      	strb	r3, [r7, #30]
    MPU_InitStruct.IsBufferable = MPU_ACCESS_BUFFERABLE;
 81025e8:	2301      	movs	r3, #1
 81025ea:	77fb      	strb	r3, [r7, #31]

    HAL_MPU_ConfigRegion(&MPU_InitStruct);
 81025ec:	f107 0310 	add.w	r3, r7, #16
 81025f0:	4618      	mov	r0, r3
 81025f2:	f003 f967 	bl	81058c4 <HAL_MPU_ConfigRegion>

	MPU_InitStruct.Enable = MPU_REGION_ENABLE;
 81025f6:	2301      	movs	r3, #1
 81025f8:	743b      	strb	r3, [r7, #16]
    MPU_InitStruct.Number = MPU_REGION_NUMBER4;
 81025fa:	2304      	movs	r3, #4
 81025fc:	747b      	strb	r3, [r7, #17]
    MPU_InitStruct.BaseAddress = (BitWidthType)_s_unprotected_section;
 81025fe:	4b29      	ldr	r3, [pc, #164]	; (81026a4 <CILmemoryProtection_init+0x298>)
 8102600:	617b      	str	r3, [r7, #20]
    MPU_InitStruct.Size = (CILmemoryProtection_fastLogBase2( (BitWidthType)(_e_unprotected_section - _s_unprotected_section )));
 8102602:	4a29      	ldr	r2, [pc, #164]	; (81026a8 <CILmemoryProtection_init+0x29c>)
 8102604:	4b27      	ldr	r3, [pc, #156]	; (81026a4 <CILmemoryProtection_init+0x298>)
 8102606:	1ad3      	subs	r3, r2, r3
 8102608:	63fb      	str	r3, [r7, #60]	; 0x3c
    size |= size >> 1;
 810260a:	6bfb      	ldr	r3, [r7, #60]	; 0x3c
 810260c:	085b      	lsrs	r3, r3, #1
 810260e:	6bfa      	ldr	r2, [r7, #60]	; 0x3c
 8102610:	4313      	orrs	r3, r2
 8102612:	63fb      	str	r3, [r7, #60]	; 0x3c
    size |= size >> 2;
 8102614:	6bfb      	ldr	r3, [r7, #60]	; 0x3c
 8102616:	089b      	lsrs	r3, r3, #2
 8102618:	6bfa      	ldr	r2, [r7, #60]	; 0x3c
 810261a:	4313      	orrs	r3, r2
 810261c:	63fb      	str	r3, [r7, #60]	; 0x3c
    size |= size >> 4;
 810261e:	6bfb      	ldr	r3, [r7, #60]	; 0x3c
 8102620:	091b      	lsrs	r3, r3, #4
 8102622:	6bfa      	ldr	r2, [r7, #60]	; 0x3c
 8102624:	4313      	orrs	r3, r2
 8102626:	63fb      	str	r3, [r7, #60]	; 0x3c
    size |= size >> 8;
 8102628:	6bfb      	ldr	r3, [r7, #60]	; 0x3c
 810262a:	0a1b      	lsrs	r3, r3, #8
 810262c:	6bfa      	ldr	r2, [r7, #60]	; 0x3c
 810262e:	4313      	orrs	r3, r2
 8102630:	63fb      	str	r3, [r7, #60]	; 0x3c
    size |= size >> 16;
 8102632:	6bfb      	ldr	r3, [r7, #60]	; 0x3c
 8102634:	0c1b      	lsrs	r3, r3, #16
 8102636:	6bfa      	ldr	r2, [r7, #60]	; 0x3c
 8102638:	4313      	orrs	r3, r2
 810263a:	63fb      	str	r3, [r7, #60]	; 0x3c
    result = MultiplyDeBruijnBitPosition[(uint32_t)(size * 0x07C4ACDDU) >> 27];
 810263c:	6bfb      	ldr	r3, [r7, #60]	; 0x3c
 810263e:	4a13      	ldr	r2, [pc, #76]	; (810268c <CILmemoryProtection_init+0x280>)
 8102640:	fb02 f303 	mul.w	r3, r2, r3
 8102644:	0edb      	lsrs	r3, r3, #27
 8102646:	4a12      	ldr	r2, [pc, #72]	; (8102690 <CILmemoryProtection_init+0x284>)
 8102648:	f852 3023 	ldr.w	r3, [r2, r3, lsl #2]
 810264c:	63bb      	str	r3, [r7, #56]	; 0x38
    return (result-1);
 810264e:	6bbb      	ldr	r3, [r7, #56]	; 0x38
 8102650:	3b01      	subs	r3, #1
    MPU_InitStruct.Size = (CILmemoryProtection_fastLogBase2( (BitWidthType)(_e_unprotected_section - _s_unprotected_section )));
 8102652:	b2db      	uxtb	r3, r3
 8102654:	763b      	strb	r3, [r7, #24]
    MPU_InitStruct.SubRegionDisable = 0x00;
 8102656:	2300      	movs	r3, #0
 8102658:	767b      	strb	r3, [r7, #25]
    MPU_InitStruct.TypeExtField = MPU_TEX_LEVEL1;
 810265a:	2301      	movs	r3, #1
 810265c:	76bb      	strb	r3, [r7, #26]
    MPU_InitStruct.AccessPermission = MPU_REGION_FULL_ACCESS;
 810265e:	2303      	movs	r3, #3
 8102660:	76fb      	strb	r3, [r7, #27]
    MPU_InitStruct.DisableExec = MPU_INSTRUCTION_ACCESS_ENABLE;
 8102662:	2300      	movs	r3, #0
 8102664:	773b      	strb	r3, [r7, #28]
    MPU_InitStruct.IsShareable = MPU_ACCESS_SHAREABLE;
 8102666:	2301      	movs	r3, #1
 8102668:	777b      	strb	r3, [r7, #29]
    MPU_InitStruct.IsCacheable = MPU_ACCESS_CACHEABLE;
 810266a:	2301      	movs	r3, #1
 810266c:	77bb      	strb	r3, [r7, #30]
    MPU_InitStruct.IsBufferable = MPU_ACCESS_BUFFERABLE;
 810266e:	2301      	movs	r3, #1
 8102670:	77fb      	strb	r3, [r7, #31]

    HAL_MPU_ConfigRegion(&MPU_InitStruct);
 8102672:	f107 0310 	add.w	r3, r7, #16
 8102676:	4618      	mov	r0, r3
 8102678:	f003 f924 	bl	81058c4 <HAL_MPU_ConfigRegion>

    HAL_MPU_Enable(MPU_HFNMI_PRIVDEF);
 810267c:	2006      	movs	r0, #6
 810267e:	f003 f901 	bl	8105884 <HAL_MPU_Enable>

	__SUPRESS_UNUSED_VAR(codeMemoryHighAddress);
 8102682:	bf00      	nop
 8102684:	3740      	adds	r7, #64	; 0x40
 8102686:	46bd      	mov	sp, r7
 8102688:	bd80      	pop	{r7, pc}
 810268a:	bf00      	nop
 810268c:	07c4acdd 	.word	0x07c4acdd
 8102690:	380005f4 	.word	0x380005f4
 8102694:	38000000 	.word	0x38000000
 8102698:	38000800 	.word	0x38000800
 810269c:	38008000 	.word	0x38008000
 81026a0:	38008400 	.word	0x38008400
 81026a4:	10001800 	.word	0x10001800
 81026a8:	10001900 	.word	0x10001900

081026ac <CILmemoryProtection_setStackOverflowProtection>:
  *
  * @return none
********************************************************************************/
/* @cond S */
__SEC_START(__OS_FUNC_SECTION_START)
/* @endcond*/
 81026ac:	b580      	push	{r7, lr}
 81026ae:	b088      	sub	sp, #32
 81026b0:	af00      	add	r7, sp, #0
 81026b2:	6078      	str	r0, [r7, #4]
 81026b4:	6039      	str	r1, [r7, #0]
__OS_FUNC_SECTION void CILmemoryProtection_setStackOverflowProtection(AddressType stackLowAddress, AddressType stackHighAddress)
 81026b6:	f107 0308 	add.w	r3, r7, #8
 81026ba:	2200      	movs	r2, #0
 81026bc:	601a      	str	r2, [r3, #0]
 81026be:	605a      	str	r2, [r3, #4]
 81026c0:	609a      	str	r2, [r3, #8]
 81026c2:	60da      	str	r2, [r3, #12]
{
    MPU_Region_InitTypeDef MPU_InitStruct = {0};
 81026c4:	f003 f8c6 	bl	8105854 <HAL_MPU_Disable>

    HAL_MPU_Disable();

    /** Initializes and configures the Region and the memory to be protected
 81026c8:	2301      	movs	r3, #1
 81026ca:	723b      	strb	r3, [r7, #8]
    */
 81026cc:	2307      	movs	r3, #7
 81026ce:	727b      	strb	r3, [r7, #9]
    MPU_InitStruct.Enable = MPU_REGION_ENABLE;
 81026d0:	687b      	ldr	r3, [r7, #4]
 81026d2:	60fb      	str	r3, [r7, #12]
    MPU_InitStruct.Number = MPU_REGION_NUMBER7;
 81026d4:	683a      	ldr	r2, [r7, #0]
 81026d6:	687b      	ldr	r3, [r7, #4]
 81026d8:	1ad3      	subs	r3, r2, r3
 81026da:	61fb      	str	r3, [r7, #28]
    size |= size >> 1;
 81026dc:	69fb      	ldr	r3, [r7, #28]
 81026de:	085b      	lsrs	r3, r3, #1
 81026e0:	69fa      	ldr	r2, [r7, #28]
 81026e2:	4313      	orrs	r3, r2
 81026e4:	61fb      	str	r3, [r7, #28]
    size |= size >> 2;
 81026e6:	69fb      	ldr	r3, [r7, #28]
 81026e8:	089b      	lsrs	r3, r3, #2
 81026ea:	69fa      	ldr	r2, [r7, #28]
 81026ec:	4313      	orrs	r3, r2
 81026ee:	61fb      	str	r3, [r7, #28]
    size |= size >> 4;
 81026f0:	69fb      	ldr	r3, [r7, #28]
 81026f2:	091b      	lsrs	r3, r3, #4
 81026f4:	69fa      	ldr	r2, [r7, #28]
 81026f6:	4313      	orrs	r3, r2
 81026f8:	61fb      	str	r3, [r7, #28]
    size |= size >> 8;
 81026fa:	69fb      	ldr	r3, [r7, #28]
 81026fc:	0a1b      	lsrs	r3, r3, #8
 81026fe:	69fa      	ldr	r2, [r7, #28]
 8102700:	4313      	orrs	r3, r2
 8102702:	61fb      	str	r3, [r7, #28]
    size |= size >> 16;
 8102704:	69fb      	ldr	r3, [r7, #28]
 8102706:	0c1b      	lsrs	r3, r3, #16
 8102708:	69fa      	ldr	r2, [r7, #28]
 810270a:	4313      	orrs	r3, r2
 810270c:	61fb      	str	r3, [r7, #28]
    result = MultiplyDeBruijnBitPosition[(uint32_t)(size * 0x07C4ACDDU) >> 27];
 810270e:	69fb      	ldr	r3, [r7, #28]
 8102710:	4a12      	ldr	r2, [pc, #72]	; (810275c <CILmemoryProtection_setStackOverflowProtection+0xb0>)
 8102712:	fb02 f303 	mul.w	r3, r2, r3
 8102716:	0edb      	lsrs	r3, r3, #27
 8102718:	4a11      	ldr	r2, [pc, #68]	; (8102760 <CILmemoryProtection_setStackOverflowProtection+0xb4>)
 810271a:	f852 3023 	ldr.w	r3, [r2, r3, lsl #2]
 810271e:	61bb      	str	r3, [r7, #24]
    return (result-1);
 8102720:	69bb      	ldr	r3, [r7, #24]
 8102722:	3b01      	subs	r3, #1
    MPU_InitStruct.Number = MPU_REGION_NUMBER7;
 8102724:	b2db      	uxtb	r3, r3
 8102726:	743b      	strb	r3, [r7, #16]
    MPU_InitStruct.BaseAddress = (stackLowAddress);
 8102728:	2300      	movs	r3, #0
 810272a:	747b      	strb	r3, [r7, #17]
    MPU_InitStruct.Size = (CILmemoryProtection_fastLogBase2( stackHighAddress - stackLowAddress ));
 810272c:	2301      	movs	r3, #1
 810272e:	74bb      	strb	r3, [r7, #18]
    MPU_InitStruct.SubRegionDisable = 0x00;
 8102730:	2303      	movs	r3, #3
 8102732:	74fb      	strb	r3, [r7, #19]
    MPU_InitStruct.TypeExtField = MPU_TEX_LEVEL1;
 8102734:	2300      	movs	r3, #0
 8102736:	753b      	strb	r3, [r7, #20]
    MPU_InitStruct.AccessPermission = MPU_REGION_FULL_ACCESS;
 8102738:	2301      	movs	r3, #1
 810273a:	757b      	strb	r3, [r7, #21]
    MPU_InitStruct.DisableExec = MPU_INSTRUCTION_ACCESS_ENABLE;
 810273c:	2301      	movs	r3, #1
 810273e:	75bb      	strb	r3, [r7, #22]
    MPU_InitStruct.IsShareable = MPU_ACCESS_SHAREABLE;
 8102740:	2301      	movs	r3, #1
 8102742:	75fb      	strb	r3, [r7, #23]
    MPU_InitStruct.IsCacheable = MPU_ACCESS_CACHEABLE;
    MPU_InitStruct.IsBufferable = MPU_ACCESS_BUFFERABLE;
 8102744:	f107 0308 	add.w	r3, r7, #8
 8102748:	4618      	mov	r0, r3
 810274a:	f003 f8bb 	bl	81058c4 <HAL_MPU_ConfigRegion>

    HAL_MPU_ConfigRegion(&MPU_InitStruct);
 810274e:	2006      	movs	r0, #6
 8102750:	f003 f898 	bl	8105884 <HAL_MPU_Enable>
    /* Enables the MPU */
 8102754:	bf00      	nop
 8102756:	3720      	adds	r7, #32
 8102758:	46bd      	mov	sp, r7
 810275a:	bd80      	pop	{r7, pc}
 810275c:	07c4acdd 	.word	0x07c4acdd
 8102760:	380005f4 	.word	0x380005f4

08102764 <CILmemoryProtection_setProgramMemoryProtection>:
  *
  * @return none
********************************************************************************/
/* @cond S */
__SEC_START(__OS_FUNC_SECTION_START)
/* @endcond*/
 8102764:	b580      	push	{r7, lr}
 8102766:	b088      	sub	sp, #32
 8102768:	af00      	add	r7, sp, #0
 810276a:	6078      	str	r0, [r7, #4]
 810276c:	6039      	str	r1, [r7, #0]
__OS_FUNC_SECTION void CILmemoryProtection_setProgramMemoryProtection(AddressType lowAddress, AddressType highAddress)
 810276e:	f107 0308 	add.w	r3, r7, #8
 8102772:	2200      	movs	r2, #0
 8102774:	601a      	str	r2, [r3, #0]
 8102776:	605a      	str	r2, [r3, #4]
 8102778:	609a      	str	r2, [r3, #8]
 810277a:	60da      	str	r2, [r3, #12]
{
    MPU_Region_InitTypeDef MPU_InitStruct = {0};
 810277c:	f003 f86a 	bl	8105854 <HAL_MPU_Disable>

    HAL_MPU_Disable();

    /** Initializes and configures the Region and the memory to be protected
 8102780:	2301      	movs	r3, #1
 8102782:	723b      	strb	r3, [r7, #8]
    */
 8102784:	2306      	movs	r3, #6
 8102786:	727b      	strb	r3, [r7, #9]
    MPU_InitStruct.Enable = MPU_REGION_ENABLE;
 8102788:	687b      	ldr	r3, [r7, #4]
 810278a:	60fb      	str	r3, [r7, #12]
    MPU_InitStruct.Number = MPU_REGION_NUMBER6;
 810278c:	683a      	ldr	r2, [r7, #0]
 810278e:	687b      	ldr	r3, [r7, #4]
 8102790:	1ad3      	subs	r3, r2, r3
 8102792:	61fb      	str	r3, [r7, #28]
    size |= size >> 1;
 8102794:	69fb      	ldr	r3, [r7, #28]
 8102796:	085b      	lsrs	r3, r3, #1
 8102798:	69fa      	ldr	r2, [r7, #28]
 810279a:	4313      	orrs	r3, r2
 810279c:	61fb      	str	r3, [r7, #28]
    size |= size >> 2;
 810279e:	69fb      	ldr	r3, [r7, #28]
 81027a0:	089b      	lsrs	r3, r3, #2
 81027a2:	69fa      	ldr	r2, [r7, #28]
 81027a4:	4313      	orrs	r3, r2
 81027a6:	61fb      	str	r3, [r7, #28]
    size |= size >> 4;
 81027a8:	69fb      	ldr	r3, [r7, #28]
 81027aa:	091b      	lsrs	r3, r3, #4
 81027ac:	69fa      	ldr	r2, [r7, #28]
 81027ae:	4313      	orrs	r3, r2
 81027b0:	61fb      	str	r3, [r7, #28]
    size |= size >> 8;
 81027b2:	69fb      	ldr	r3, [r7, #28]
 81027b4:	0a1b      	lsrs	r3, r3, #8
 81027b6:	69fa      	ldr	r2, [r7, #28]
 81027b8:	4313      	orrs	r3, r2
 81027ba:	61fb      	str	r3, [r7, #28]
    size |= size >> 16;
 81027bc:	69fb      	ldr	r3, [r7, #28]
 81027be:	0c1b      	lsrs	r3, r3, #16
 81027c0:	69fa      	ldr	r2, [r7, #28]
 81027c2:	4313      	orrs	r3, r2
 81027c4:	61fb      	str	r3, [r7, #28]
    result = MultiplyDeBruijnBitPosition[(uint32_t)(size * 0x07C4ACDDU) >> 27];
 81027c6:	69fb      	ldr	r3, [r7, #28]
 81027c8:	4a12      	ldr	r2, [pc, #72]	; (8102814 <CILmemoryProtection_setProgramMemoryProtection+0xb0>)
 81027ca:	fb02 f303 	mul.w	r3, r2, r3
 81027ce:	0edb      	lsrs	r3, r3, #27
 81027d0:	4a11      	ldr	r2, [pc, #68]	; (8102818 <CILmemoryProtection_setProgramMemoryProtection+0xb4>)
 81027d2:	f852 3023 	ldr.w	r3, [r2, r3, lsl #2]
 81027d6:	61bb      	str	r3, [r7, #24]
    return (result-1);
 81027d8:	69bb      	ldr	r3, [r7, #24]
 81027da:	3b01      	subs	r3, #1
    MPU_InitStruct.Number = MPU_REGION_NUMBER6;
 81027dc:	b2db      	uxtb	r3, r3
 81027de:	743b      	strb	r3, [r7, #16]
    MPU_InitStruct.BaseAddress = (lowAddress);
 81027e0:	2300      	movs	r3, #0
 81027e2:	747b      	strb	r3, [r7, #17]
    MPU_InitStruct.Size = (CILmemoryProtection_fastLogBase2( highAddress - lowAddress ));
 81027e4:	2301      	movs	r3, #1
 81027e6:	74bb      	strb	r3, [r7, #18]
    MPU_InitStruct.SubRegionDisable = 0x00;
 81027e8:	2303      	movs	r3, #3
 81027ea:	74fb      	strb	r3, [r7, #19]
    MPU_InitStruct.TypeExtField = MPU_TEX_LEVEL1;
 81027ec:	2300      	movs	r3, #0
 81027ee:	753b      	strb	r3, [r7, #20]
    MPU_InitStruct.AccessPermission = MPU_REGION_FULL_ACCESS;
 81027f0:	2301      	movs	r3, #1
 81027f2:	757b      	strb	r3, [r7, #21]
    MPU_InitStruct.DisableExec = MPU_INSTRUCTION_ACCESS_ENABLE;
 81027f4:	2301      	movs	r3, #1
 81027f6:	75bb      	strb	r3, [r7, #22]
    MPU_InitStruct.IsShareable = MPU_ACCESS_SHAREABLE;
 81027f8:	2301      	movs	r3, #1
 81027fa:	75fb      	strb	r3, [r7, #23]
    MPU_InitStruct.IsCacheable = MPU_ACCESS_CACHEABLE;
    MPU_InitStruct.IsBufferable = MPU_ACCESS_BUFFERABLE;
 81027fc:	f107 0308 	add.w	r3, r7, #8
 8102800:	4618      	mov	r0, r3
 8102802:	f003 f85f 	bl	81058c4 <HAL_MPU_ConfigRegion>

    HAL_MPU_ConfigRegion(&MPU_InitStruct);
 8102806:	2006      	movs	r0, #6
 8102808:	f003 f83c 	bl	8105884 <HAL_MPU_Enable>
    /* Enables the MPU */
 810280c:	bf00      	nop
 810280e:	3720      	adds	r7, #32
 8102810:	46bd      	mov	sp, r7
 8102812:	bd80      	pop	{r7, pc}
 8102814:	07c4acdd 	.word	0x07c4acdd
 8102818:	380005f4 	.word	0x380005f4

0810281c <CILspinlock_getSpinlock>:
********************************************************************************/
/* @cond S */
__SEC_START(__OS_FUNC_SECTION_START)
/* @endcond*/
__OS_FUNC_SECTION CosmOS_SpinlockStateType CILspinlock_getSpinlock(AddressType * spinlockPointer, BitWidthType spinlockId)
{
 810281c:	b580      	push	{r7, lr}
 810281e:	b084      	sub	sp, #16
 8102820:	af00      	add	r7, sp, #0
 8102822:	6078      	str	r0, [r7, #4]
 8102824:	6039      	str	r1, [r7, #0]
    CosmOS_SpinlockStateType spinlockState;

	HAL_StatusTypeDef hsem_take_status;


	hsem_take_status = HAL_HSEM_Take(SPINLOCK_HSEM_SEM_ID, spinlockId);
 8102826:	6839      	ldr	r1, [r7, #0]
 8102828:	2000      	movs	r0, #0
 810282a:	f003 fa87 	bl	8105d3c <HAL_HSEM_Take>
 810282e:	4603      	mov	r3, r0
 8102830:	73fb      	strb	r3, [r7, #15]
	while ( hsem_take_status != HAL_OK)
 8102832:	e005      	b.n	8102840 <CILspinlock_getSpinlock+0x24>
	{
		hsem_take_status = HAL_HSEM_Take(SPINLOCK_HSEM_SEM_ID, spinlockId);
 8102834:	6839      	ldr	r1, [r7, #0]
 8102836:	2000      	movs	r0, #0
 8102838:	f003 fa80 	bl	8105d3c <HAL_HSEM_Take>
 810283c:	4603      	mov	r3, r0
 810283e:	73fb      	strb	r3, [r7, #15]
	while ( hsem_take_status != HAL_OK)
 8102840:	7bfb      	ldrb	r3, [r7, #15]
 8102842:	2b00      	cmp	r3, #0
 8102844:	d1f6      	bne.n	8102834 <CILspinlock_getSpinlock+0x18>
	}

	*spinlockPointer = 1;
 8102846:	687b      	ldr	r3, [r7, #4]
 8102848:	2201      	movs	r2, #1
 810284a:	601a      	str	r2, [r3, #0]
	spinlockState = SPINLOCK_STATE_ENUM__SUCCESSFULLY_LOCKED;
 810284c:	2302      	movs	r3, #2
 810284e:	60bb      	str	r3, [r7, #8]
	//__asm volatile("MOVEQ R1, #0x2");
	//__asm volatile("BNE tryLock");
    //__asm volatile("MOV %[value], R1":  [value] "=r" (spinlockState) );
	//__SUPRESS_UNUSED_VAR(spinlockPointer);

    return spinlockState;
 8102850:	68bb      	ldr	r3, [r7, #8]
}
 8102852:	4618      	mov	r0, r3
 8102854:	3710      	adds	r7, #16
 8102856:	46bd      	mov	sp, r7
 8102858:	bd80      	pop	{r7, pc}

0810285a <CILspinlock_trySpinlock>:
********************************************************************************/
/* @cond S */
__SEC_START(__OS_FUNC_SECTION_START)
/* @endcond*/
__OS_FUNC_SECTION CosmOS_SpinlockStateType CILspinlock_trySpinlock(AddressType * spinlockPointer, BitWidthType spinlockId )
{
 810285a:	b580      	push	{r7, lr}
 810285c:	b084      	sub	sp, #16
 810285e:	af00      	add	r7, sp, #0
 8102860:	6078      	str	r0, [r7, #4]
 8102862:	6039      	str	r1, [r7, #0]
    CosmOS_SpinlockStateType spinlockState;

	HAL_StatusTypeDef hsem_take_status;


	hsem_take_status = HAL_HSEM_Take(SPINLOCK_HSEM_SEM_ID, spinlockId);
 8102864:	6839      	ldr	r1, [r7, #0]
 8102866:	2000      	movs	r0, #0
 8102868:	f003 fa68 	bl	8105d3c <HAL_HSEM_Take>
 810286c:	4603      	mov	r3, r0
 810286e:	72fb      	strb	r3, [r7, #11]
	if ( hsem_take_status != HAL_OK)
 8102870:	7afb      	ldrb	r3, [r7, #11]
 8102872:	2b00      	cmp	r3, #0
 8102874:	d005      	beq.n	8102882 <CILspinlock_trySpinlock+0x28>
	{
		*spinlockPointer = 1;
 8102876:	687b      	ldr	r3, [r7, #4]
 8102878:	2201      	movs	r2, #1
 810287a:	601a      	str	r2, [r3, #0]
		spinlockState = SPINLOCK_STATE_ENUM__SUCCESSFULLY_LOCKED;
 810287c:	2302      	movs	r3, #2
 810287e:	60fb      	str	r3, [r7, #12]
 8102880:	e001      	b.n	8102886 <CILspinlock_trySpinlock+0x2c>
	}
	else
	{
		__SUPRESS_UNUSED_VAR(spinlockPointer);
		spinlockState = SPINLOCK_STATE_ENUM__OCCUPIED;
 8102882:	2301      	movs	r3, #1
 8102884:	60fb      	str	r3, [r7, #12]
	//__asm volatile("MOVNE R1, #0x1");
	//__asm volatile("MOVEQ R1, #0x2");
	//__asm volatile("MOV %[value], R1":  [value] "=r" (spinlockState) );
	//__SUPRESS_UNUSED_VAR(spinlockPointer);

    return spinlockState;
 8102886:	68fb      	ldr	r3, [r7, #12]
}
 8102888:	4618      	mov	r0, r3
 810288a:	3710      	adds	r7, #16
 810288c:	46bd      	mov	sp, r7
 810288e:	bd80      	pop	{r7, pc}

08102890 <CILspinlock_releaseSpinlock>:
********************************************************************************/
/* @cond S */
__SEC_START(__OS_FUNC_SECTION_START)
/* @endcond*/
__OS_FUNC_SECTION CosmOS_SpinlockStateType CILspinlock_releaseSpinlock(AddressType * spinlockPointer, BitWidthType spinlockId )
{
 8102890:	b580      	push	{r7, lr}
 8102892:	b084      	sub	sp, #16
 8102894:	af00      	add	r7, sp, #0
 8102896:	6078      	str	r0, [r7, #4]
 8102898:	6039      	str	r1, [r7, #0]
    CosmOS_SpinlockStateType spinlockState;


	HAL_HSEM_Release(SPINLOCK_HSEM_SEM_ID, spinlockId);
 810289a:	6839      	ldr	r1, [r7, #0]
 810289c:	2000      	movs	r0, #0
 810289e:	f003 fa93 	bl	8105dc8 <HAL_HSEM_Release>

	*spinlockPointer = 0;
 81028a2:	687b      	ldr	r3, [r7, #4]
 81028a4:	2200      	movs	r2, #0
 81028a6:	601a      	str	r2, [r3, #0]
	spinlockState = SPINLOCK_STATE_ENUM__OCCUPIED;
 81028a8:	2301      	movs	r3, #1
 81028aa:	60fb      	str	r3, [r7, #12]
	//__asm volatile("BNE tryUnlock");
	//__asm volatile("released:");
    //__asm volatile("MOV %[value], R1":  [value] "=r" (spinlockState) );
	//__SUPRESS_UNUSED_VAR(spinlockPointer);

    return spinlockState;
 81028ac:	68fb      	ldr	r3, [r7, #12]
}
 81028ae:	4618      	mov	r0, r3
 81028b0:	3710      	adds	r7, #16
 81028b2:	46bd      	mov	sp, r7
 81028b4:	bd80      	pop	{r7, pc}

081028b6 <CILstack_stackInit>:
********************************************************************************/
/* @cond S */
__SEC_START(__OS_FUNC_SECTION_START)
/* @endcond*/
__OS_FUNC_SECTION StackPointerType CILstack_stackInit(AddressType stackLowAddress, AddressType stackHighAddress, AddressType handlerAddress)
{
 81028b6:	b480      	push	{r7}
 81028b8:	b087      	sub	sp, #28
 81028ba:	af00      	add	r7, sp, #0
 81028bc:	60f8      	str	r0, [r7, #12]
 81028be:	60b9      	str	r1, [r7, #8]
 81028c0:	607a      	str	r2, [r7, #4]
    CosmOS_StackType *stack = ( CosmOS_StackType* )( stackHighAddress - (AddressType)sizeof(CosmOS_StackType) );
 81028c2:	68bb      	ldr	r3, [r7, #8]
 81028c4:	3b40      	subs	r3, #64	; 0x40
 81028c6:	617b      	str	r3, [r7, #20]

    stack->XPSR  = 0x01000000;
 81028c8:	697b      	ldr	r3, [r7, #20]
 81028ca:	f04f 7280 	mov.w	r2, #16777216	; 0x1000000
 81028ce:	63da      	str	r2, [r3, #60]	; 0x3c
    stack->PC    = handlerAddress;
 81028d0:	697b      	ldr	r3, [r7, #20]
 81028d2:	687a      	ldr	r2, [r7, #4]
 81028d4:	639a      	str	r2, [r3, #56]	; 0x38
    stack->LR    = 0xFFFFFFFD;
 81028d6:	697b      	ldr	r3, [r7, #20]
 81028d8:	f06f 0202 	mvn.w	r2, #2
 81028dc:	635a      	str	r2, [r3, #52]	; 0x34
    stack->R12   = 0;
 81028de:	697b      	ldr	r3, [r7, #20]
 81028e0:	2200      	movs	r2, #0
 81028e2:	631a      	str	r2, [r3, #48]	; 0x30
    stack->R3    = 0;
 81028e4:	697b      	ldr	r3, [r7, #20]
 81028e6:	2200      	movs	r2, #0
 81028e8:	62da      	str	r2, [r3, #44]	; 0x2c
    stack->R2    = 0;
 81028ea:	697b      	ldr	r3, [r7, #20]
 81028ec:	2200      	movs	r2, #0
 81028ee:	629a      	str	r2, [r3, #40]	; 0x28
    stack->R1    = 0;
 81028f0:	697b      	ldr	r3, [r7, #20]
 81028f2:	2200      	movs	r2, #0
 81028f4:	625a      	str	r2, [r3, #36]	; 0x24
    stack->R0    = 0;
 81028f6:	697b      	ldr	r3, [r7, #20]
 81028f8:	2200      	movs	r2, #0
 81028fa:	621a      	str	r2, [r3, #32]
    stack->R14   = 0xFFFFFFFD;
 81028fc:	697b      	ldr	r3, [r7, #20]
 81028fe:	f06f 0202 	mvn.w	r2, #2
 8102902:	61da      	str	r2, [r3, #28]
    stack->R11   = 0;
 8102904:	697b      	ldr	r3, [r7, #20]
 8102906:	2200      	movs	r2, #0
 8102908:	619a      	str	r2, [r3, #24]
    stack->R10   = 0;
 810290a:	697b      	ldr	r3, [r7, #20]
 810290c:	2200      	movs	r2, #0
 810290e:	615a      	str	r2, [r3, #20]
    stack->R8    = 0;
 8102910:	697b      	ldr	r3, [r7, #20]
 8102912:	2200      	movs	r2, #0
 8102914:	611a      	str	r2, [r3, #16]
    stack->R7    = 0;
 8102916:	697b      	ldr	r3, [r7, #20]
 8102918:	2200      	movs	r2, #0
 810291a:	60da      	str	r2, [r3, #12]
    stack->R6    = 0;
 810291c:	697b      	ldr	r3, [r7, #20]
 810291e:	2200      	movs	r2, #0
 8102920:	609a      	str	r2, [r3, #8]
    stack->R5    = 0;
 8102922:	697b      	ldr	r3, [r7, #20]
 8102924:	2200      	movs	r2, #0
 8102926:	605a      	str	r2, [r3, #4]
    stack->R4    = 0;
 8102928:	697b      	ldr	r3, [r7, #20]
 810292a:	2200      	movs	r2, #0
 810292c:	601a      	str	r2, [r3, #0]

	__SUPRESS_UNUSED_VAR(stackLowAddress);
    return (StackPointerType)(&(stack->R4));
 810292e:	697b      	ldr	r3, [r7, #20]
}
 8102930:	4618      	mov	r0, r3
 8102932:	371c      	adds	r7, #28
 8102934:	46bd      	mov	sp, r7
 8102936:	f85d 7b04 	ldr.w	r7, [sp], #4
 810293a:	4770      	bx	lr

0810293c <CILstack_setStackPointer>:
/* @cond S */
__SEC_START(__OS_FUNC_SECTION_START)
/* @endcond*/
__OS_FUNC_SECTION __NAKED void CILstack_setStackPointer(AddressType address)
{
    __asm volatile ("LDMIA R0!,{R4-R8,R10,R11,R14}");
 810293c:	e8b0 4df0 	ldmia.w	r0!, {r4, r5, r6, r7, r8, sl, fp, lr}
	__asm volatile ("MSR PSP,R0");
 8102940:	f380 8809 	msr	PSP, r0
    __asm volatile ("MOV R0, #0x3");
 8102944:	f04f 0003 	mov.w	r0, #3
    __asm volatile ("MSR CONTROL, R0");
 8102948:	f380 8814 	msr	CONTROL, r0
    __asm volatile ("ISB");
 810294c:	f3bf 8f6f 	isb	sy
    __asm volatile ("BX R14");
 8102950:	4770      	bx	lr

	__SUPRESS_UNUSED_VAR(address);
}
 8102952:	bf00      	nop

08102954 <CILsysCalls_dispatcher>:
********************************************************************************/
/* @cond S */
__SEC_START(__OS_FUNC_SECTION_START)
/* @endcond*/
__OS_FUNC_SECTION void CILsysCalls_dispatcher(BitWidthType *sp)
{
 8102954:	b580      	push	{r7, lr}
 8102956:	b08e      	sub	sp, #56	; 0x38
 8102958:	af00      	add	r7, sp, #0
 810295a:	6078      	str	r0, [r7, #4]
    CosmOS_GenericVoidType sysCall;
    CosmOS_OsVariableType * osVar;
    CosmOS_RoutesConfigurationType * routeVar;


    uint8_t *pc = (uint8_t*)(sp[6]);
 810295c:	687b      	ldr	r3, [r7, #4]
 810295e:	3318      	adds	r3, #24
 8102960:	681b      	ldr	r3, [r3, #0]
 8102962:	633b      	str	r3, [r7, #48]	; 0x30

    pc-=2;
 8102964:	6b3b      	ldr	r3, [r7, #48]	; 0x30
 8102966:	3b02      	subs	r3, #2
 8102968:	633b      	str	r3, [r7, #48]	; 0x30

    osVar = os_getOsVar();
 810296a:	f7fe fe83 	bl	8101674 <os_getOsVar>
 810296e:	62f8      	str	r0, [r7, #44]	; 0x2c

    uint8_t sysCallId = *pc;
 8102970:	6b3b      	ldr	r3, [r7, #48]	; 0x30
 8102972:	781b      	ldrb	r3, [r3, #0]
 8102974:	f887 302b 	strb.w	r3, [r7, #43]	; 0x2b
 8102978:	6afb      	ldr	r3, [r7, #44]	; 0x2c
 810297a:	60bb      	str	r3, [r7, #8]
    return (CosmOS_RoutesConfigurationType *)(osVar->cfg->route);
 810297c:	68bb      	ldr	r3, [r7, #8]
 810297e:	681b      	ldr	r3, [r3, #0]
 8102980:	691b      	ldr	r3, [r3, #16]

    routeVar = os_getOsRoutes( osVar );
 8102982:	627b      	str	r3, [r7, #36]	; 0x24

    sysCall = route_getRoutesFunc( routeVar, sp[0] );
 8102984:	687b      	ldr	r3, [r7, #4]
 8102986:	681b      	ldr	r3, [r3, #0]
 8102988:	6a7a      	ldr	r2, [r7, #36]	; 0x24
 810298a:	613a      	str	r2, [r7, #16]
 810298c:	60fb      	str	r3, [r7, #12]
  *
  * @return CosmOS_GenericVoidType
********************************************************************************/
__STATIC_FORCEINLINE CosmOS_GenericVoidType route_getRoutesFunc(CosmOS_RoutesConfigurationType * route, BitWidthType callId)
{
    return (CosmOS_GenericVoidType)(route->routeFunc[route->routeIdToFunc[callId]]);
 810298e:	693b      	ldr	r3, [r7, #16]
 8102990:	681a      	ldr	r2, [r3, #0]
 8102992:	693b      	ldr	r3, [r7, #16]
 8102994:	6859      	ldr	r1, [r3, #4]
 8102996:	68fb      	ldr	r3, [r7, #12]
 8102998:	009b      	lsls	r3, r3, #2
 810299a:	440b      	add	r3, r1
 810299c:	681b      	ldr	r3, [r3, #0]
 810299e:	009b      	lsls	r3, r3, #2
 81029a0:	4413      	add	r3, r2
 81029a2:	681b      	ldr	r3, [r3, #0]
 81029a4:	623b      	str	r3, [r7, #32]
    entityId = route_getRoutesEntityId( routeVar, sp[0] );
 81029a6:	687b      	ldr	r3, [r7, #4]
 81029a8:	681b      	ldr	r3, [r3, #0]
 81029aa:	6a7a      	ldr	r2, [r7, #36]	; 0x24
 81029ac:	61ba      	str	r2, [r7, #24]
 81029ae:	617b      	str	r3, [r7, #20]
  *
  * @return BitWidthType
********************************************************************************/
__STATIC_FORCEINLINE BitWidthType route_getRoutesEntityId(CosmOS_RoutesConfigurationType * route, BitWidthType callId)
{
    return (route->routeIdToEntity[callId]);
 81029b0:	69bb      	ldr	r3, [r7, #24]
 81029b2:	689a      	ldr	r2, [r3, #8]
 81029b4:	697b      	ldr	r3, [r7, #20]
 81029b6:	009b      	lsls	r3, r3, #2
 81029b8:	4413      	add	r3, r2
 81029ba:	681b      	ldr	r3, [r3, #0]
 81029bc:	61fb      	str	r3, [r7, #28]

    switch ( sysCallId )
 81029be:	f897 302b 	ldrb.w	r3, [r7, #43]	; 0x2b
 81029c2:	2b03      	cmp	r3, #3
 81029c4:	d828      	bhi.n	8102a18 <CILsysCalls_dispatcher+0xc4>
 81029c6:	a201      	add	r2, pc, #4	; (adr r2, 81029cc <CILsysCalls_dispatcher+0x78>)
 81029c8:	f852 f023 	ldr.w	pc, [r2, r3, lsl #2]
 81029cc:	081029dd 	.word	0x081029dd
 81029d0:	081029e5 	.word	0x081029e5
 81029d4:	081029ef 	.word	0x081029ef
 81029d8:	08102a01 	.word	0x08102a01
    {
        case 0 :
        {
            ((CosmOS_Generic_bitWidthType_ret_void)sysCall)(entityId);
 81029dc:	6a3b      	ldr	r3, [r7, #32]
 81029de:	69f8      	ldr	r0, [r7, #28]
 81029e0:	4798      	blx	r3
            break;
 81029e2:	e01a      	b.n	8102a1a <CILsysCalls_dispatcher+0xc6>
        }

		case 1 :
        {
            returnValue = ((CosmOS_Generic_bitWidthType_ret_bitWidthType)sysCall)(entityId);
 81029e4:	6a3b      	ldr	r3, [r7, #32]
 81029e6:	69f8      	ldr	r0, [r7, #28]
 81029e8:	4798      	blx	r3
 81029ea:	6378      	str	r0, [r7, #52]	; 0x34
            break;
 81029ec:	e015      	b.n	8102a1a <CILsysCalls_dispatcher+0xc6>
        }

        case 2 :
        {
            returnValue = ((CosmOS_Generic_bitWidthType_bitWidthType_ret_bitWidthType)sysCall)(entityId, (BitWidthType)sp[1]);
 81029ee:	687b      	ldr	r3, [r7, #4]
 81029f0:	3304      	adds	r3, #4
 81029f2:	681a      	ldr	r2, [r3, #0]
 81029f4:	6a3b      	ldr	r3, [r7, #32]
 81029f6:	4611      	mov	r1, r2
 81029f8:	69f8      	ldr	r0, [r7, #28]
 81029fa:	4798      	blx	r3
 81029fc:	6378      	str	r0, [r7, #52]	; 0x34
            break;
 81029fe:	e00c      	b.n	8102a1a <CILsysCalls_dispatcher+0xc6>
        }

        case 3 :
        {
			returnValue = ((CosmOS_Generic_bitWidthType_voidPtr_bitWidthType_ret_bitWidthType)sysCall)(entityId, (void *)sp[1], sp[2]);
 8102a00:	687b      	ldr	r3, [r7, #4]
 8102a02:	3304      	adds	r3, #4
 8102a04:	681b      	ldr	r3, [r3, #0]
 8102a06:	4619      	mov	r1, r3
 8102a08:	687b      	ldr	r3, [r7, #4]
 8102a0a:	3308      	adds	r3, #8
 8102a0c:	681a      	ldr	r2, [r3, #0]
 8102a0e:	6a3b      	ldr	r3, [r7, #32]
 8102a10:	69f8      	ldr	r0, [r7, #28]
 8102a12:	4798      	blx	r3
 8102a14:	6378      	str	r0, [r7, #52]	; 0x34
            break;
 8102a16:	e000      	b.n	8102a1a <CILsysCalls_dispatcher+0xc6>
        }

        default :
        {
            /* PANIC */
            break;
 8102a18:	bf00      	nop
        }
    }

    sp[0] = returnValue;
 8102a1a:	687b      	ldr	r3, [r7, #4]
 8102a1c:	6b7a      	ldr	r2, [r7, #52]	; 0x34
 8102a1e:	601a      	str	r2, [r3, #0]
}
 8102a20:	bf00      	nop
 8102a22:	3738      	adds	r7, #56	; 0x38
 8102a24:	46bd      	mov	sp, r7
 8102a26:	bd80      	pop	{r7, pc}

08102a28 <CILsysCalls_bitWidthType_ret_void>:
********************************************************************************/
/* @cond S */
__SEC_START(__OS_FUNC_SECTION_START)
/* @endcond*/
__OS_FUNC_SECTION void CILsysCalls_bitWidthType_ret_void(BitWidthType id)
{
 8102a28:	b480      	push	{r7}
 8102a2a:	b083      	sub	sp, #12
 8102a2c:	af00      	add	r7, sp, #0
 8102a2e:	6078      	str	r0, [r7, #4]
    __asm volatile("SVC #0");
 8102a30:	df00      	svc	0

	__SUPRESS_UNUSED_VAR(id);
}
 8102a32:	bf00      	nop
 8102a34:	370c      	adds	r7, #12
 8102a36:	46bd      	mov	sp, r7
 8102a38:	f85d 7b04 	ldr.w	r7, [sp], #4
 8102a3c:	4770      	bx	lr

08102a3e <CILsysCalls_bitWidthType_ret_bitWidthType>:
  * @return BitWidthType
********************************************************************************/
__SEC_START(__OS_FUNC_SECTION_START)
/* @endcond*/
__OS_FUNC_SECTION BitWidthType CILsysCalls_bitWidthType_ret_bitWidthType(BitWidthType id)
{
 8102a3e:	b480      	push	{r7}
 8102a40:	b085      	sub	sp, #20
 8102a42:	af00      	add	r7, sp, #0
 8102a44:	6078      	str	r0, [r7, #4]
    BitWidthType returnValue;

    __asm volatile("SVC #1");
 8102a46:	df01      	svc	1
    __asm volatile("MOV %0, R0": "=r" (returnValue) ::);
 8102a48:	4603      	mov	r3, r0
 8102a4a:	60fb      	str	r3, [r7, #12]

	__SUPRESS_UNUSED_VAR(id);
    return returnValue;
 8102a4c:	68fb      	ldr	r3, [r7, #12]
}
 8102a4e:	4618      	mov	r0, r3
 8102a50:	3714      	adds	r7, #20
 8102a52:	46bd      	mov	sp, r7
 8102a54:	f85d 7b04 	ldr.w	r7, [sp], #4
 8102a58:	4770      	bx	lr

08102a5a <CILsysCalls_bitWidthType_bitWidthType_ret_bitWidthType>:
  * @return BitWidthType
********************************************************************************/
__SEC_START(__OS_FUNC_SECTION_START)
/* @endcond*/
__OS_FUNC_SECTION BitWidthType CILsysCalls_bitWidthType_bitWidthType_ret_bitWidthType(BitWidthType id, BitWidthType arg)
{
 8102a5a:	b480      	push	{r7}
 8102a5c:	b085      	sub	sp, #20
 8102a5e:	af00      	add	r7, sp, #0
 8102a60:	6078      	str	r0, [r7, #4]
 8102a62:	6039      	str	r1, [r7, #0]
    BitWidthType returnValue;

    __asm volatile("SVC #2");
 8102a64:	df02      	svc	2
    __asm volatile("MOV %0, R0": "=r" (returnValue) ::);
 8102a66:	4603      	mov	r3, r0
 8102a68:	60fb      	str	r3, [r7, #12]

	__SUPRESS_UNUSED_VAR(id);
	__SUPRESS_UNUSED_VAR(arg);
    return returnValue;
 8102a6a:	68fb      	ldr	r3, [r7, #12]
}
 8102a6c:	4618      	mov	r0, r3
 8102a6e:	3714      	adds	r7, #20
 8102a70:	46bd      	mov	sp, r7
 8102a72:	f85d 7b04 	ldr.w	r7, [sp], #4
 8102a76:	4770      	bx	lr

08102a78 <CILsysCalls_bitWidthType_voidPtr_bitWidthType_ret_bitWidthType>:
  * @return BitWidthType
********************************************************************************/
__SEC_START(__OS_FUNC_SECTION_START)
/* @endcond*/
__OS_FUNC_SECTION BitWidthType CILsysCalls_bitWidthType_voidPtr_bitWidthType_ret_bitWidthType(BitWidthType id, void * ptr, BitWidthType arg)
{
 8102a78:	b480      	push	{r7}
 8102a7a:	b087      	sub	sp, #28
 8102a7c:	af00      	add	r7, sp, #0
 8102a7e:	60f8      	str	r0, [r7, #12]
 8102a80:	60b9      	str	r1, [r7, #8]
 8102a82:	607a      	str	r2, [r7, #4]
    BitWidthType returnValue;

    __asm volatile("SVC #3");
 8102a84:	df03      	svc	3
    __asm volatile("MOV %0, R0": "=r" (returnValue) ::);
 8102a86:	4603      	mov	r3, r0
 8102a88:	617b      	str	r3, [r7, #20]

	__SUPRESS_UNUSED_VAR(id);
	__SUPRESS_UNUSED_VAR(ptr);
	__SUPRESS_UNUSED_VAR(arg);
    return returnValue;
 8102a8a:	697b      	ldr	r3, [r7, #20]
}
 8102a8c:	4618      	mov	r0, r3
 8102a8e:	371c      	adds	r7, #28
 8102a90:	46bd      	mov	sp, r7
 8102a92:	f85d 7b04 	ldr.w	r7, [sp], #4
 8102a96:	4770      	bx	lr

08102a98 <CILsysTimer_startTimer>:
********************************************************************************/
/* @cond S */
__SEC_START(__OS_FUNC_SECTION_START)
/* @endcond*/
__OS_FUNC_SECTION void CILsysTimer_startTimer(BitWidthType ticks, BitWidthType timerTickCount)
{
 8102a98:	b480      	push	{r7}
 8102a9a:	b083      	sub	sp, #12
 8102a9c:	af00      	add	r7, sp, #0
 8102a9e:	6078      	str	r0, [r7, #4]
 8102aa0:	6039      	str	r1, [r7, #0]

	SysTick->LOAD  = (uint32_t)(((ticks*timerTickCount)) - 1UL);
 8102aa2:	687b      	ldr	r3, [r7, #4]
 8102aa4:	683a      	ldr	r2, [r7, #0]
 8102aa6:	fb02 f303 	mul.w	r3, r2, r3
 8102aaa:	4a07      	ldr	r2, [pc, #28]	; (8102ac8 <CILsysTimer_startTimer+0x30>)
 8102aac:	3b01      	subs	r3, #1
 8102aae:	6053      	str	r3, [r2, #4]
	SysTick->VAL   = 0UL;
 8102ab0:	4b05      	ldr	r3, [pc, #20]	; (8102ac8 <CILsysTimer_startTimer+0x30>)
 8102ab2:	2200      	movs	r2, #0
 8102ab4:	609a      	str	r2, [r3, #8]
	SysTick->CTRL  = 	SysTick_CTRL_CLKSOURCE_Msk |
 8102ab6:	4b04      	ldr	r3, [pc, #16]	; (8102ac8 <CILsysTimer_startTimer+0x30>)
 8102ab8:	2207      	movs	r2, #7
 8102aba:	601a      	str	r2, [r3, #0]
						SysTick_CTRL_TICKINT_Msk   |
						SysTick_CTRL_ENABLE_Msk;
}
 8102abc:	bf00      	nop
 8102abe:	370c      	adds	r7, #12
 8102ac0:	46bd      	mov	sp, r7
 8102ac2:	f85d 7b04 	ldr.w	r7, [sp], #4
 8102ac6:	4770      	bx	lr
 8102ac8:	e000e010 	.word	0xe000e010

08102acc <CILsysTimer_setTicks>:
********************************************************************************/
/* @cond S */
__SEC_START(__OS_FUNC_SECTION_START)
/* @endcond*/
__OS_FUNC_SECTION void CILsysTimer_setTicks(BitWidthType ticks, BitWidthType timerTickCount)
{
 8102acc:	b480      	push	{r7}
 8102ace:	b083      	sub	sp, #12
 8102ad0:	af00      	add	r7, sp, #0
 8102ad2:	6078      	str	r0, [r7, #4]
 8102ad4:	6039      	str	r1, [r7, #0]
	SysTick->CTRL = 0;
 8102ad6:	4b0e      	ldr	r3, [pc, #56]	; (8102b10 <CILsysTimer_setTicks+0x44>)
 8102ad8:	2200      	movs	r2, #0
 8102ada:	601a      	str	r2, [r3, #0]

	SysTick->LOAD  = (uint32_t)(((ticks*timerTickCount)-\
 8102adc:	687b      	ldr	r3, [r7, #4]
 8102ade:	683a      	ldr	r2, [r7, #0]
 8102ae0:	fb02 f203 	mul.w	r2, r2, r3
								(SysTick->LOAD - SysTick->VAL)) - 1UL);
 8102ae4:	4b0a      	ldr	r3, [pc, #40]	; (8102b10 <CILsysTimer_setTicks+0x44>)
 8102ae6:	6899      	ldr	r1, [r3, #8]
 8102ae8:	4b09      	ldr	r3, [pc, #36]	; (8102b10 <CILsysTimer_setTicks+0x44>)
 8102aea:	685b      	ldr	r3, [r3, #4]
 8102aec:	1acb      	subs	r3, r1, r3
	SysTick->LOAD  = (uint32_t)(((ticks*timerTickCount)-\
 8102aee:	4413      	add	r3, r2
 8102af0:	4a07      	ldr	r2, [pc, #28]	; (8102b10 <CILsysTimer_setTicks+0x44>)
 8102af2:	3b01      	subs	r3, #1
 8102af4:	6053      	str	r3, [r2, #4]

	SysTick->VAL   = 0UL;
 8102af6:	4b06      	ldr	r3, [pc, #24]	; (8102b10 <CILsysTimer_setTicks+0x44>)
 8102af8:	2200      	movs	r2, #0
 8102afa:	609a      	str	r2, [r3, #8]
	SysTick->CTRL  = 	SysTick_CTRL_CLKSOURCE_Msk |
 8102afc:	4b04      	ldr	r3, [pc, #16]	; (8102b10 <CILsysTimer_setTicks+0x44>)
 8102afe:	2207      	movs	r2, #7
 8102b00:	601a      	str	r2, [r3, #0]
						SysTick_CTRL_TICKINT_Msk   |
						SysTick_CTRL_ENABLE_Msk;
}
 8102b02:	bf00      	nop
 8102b04:	370c      	adds	r7, #12
 8102b06:	46bd      	mov	sp, r7
 8102b08:	f85d 7b04 	ldr.w	r7, [sp], #4
 8102b0c:	4770      	bx	lr
 8102b0e:	bf00      	nop
 8102b10:	e000e010 	.word	0xe000e010

08102b14 <CILuart_sysJob>:
********************************************************************************/
/* @cond S */
__SEC_START(__OS_FUNC_SECTION_START)
/* @endcond*/
__OS_FUNC_SECTION void CILuart_sysJob()
{
 8102b14:	b480      	push	{r7}
 8102b16:	af00      	add	r7, sp, #0

    //TX SIDE
    //check where is DMA and switch it if its buffer is empty
    //check if user is in red zone, if yes check if DMA is on the same buffer, then switch to the other
    //HAL_UART_Receive_DMA()
}
 8102b18:	bf00      	nop
 8102b1a:	46bd      	mov	sp, r7
 8102b1c:	f85d 7b04 	ldr.w	r7, [sp], #4
 8102b20:	4770      	bx	lr

08102b22 <_e_funcs_align_helper>:
	...

Disassembly of section .application_section_funcs_CM7:

08080000 <Idle_CM7>:
  * @{
********************************************************************************/
/* @cond S */
__SEC_START(__APPLICATION_FUNC_SECTION_START_CM7)
/* @endcond*/
__APPLICATION_FUNC_SECTION_CM7 __WEAK void Idle_CM7(void){};
 8080000:	b480      	push	{r7}
 8080002:	af00      	add	r7, sp, #0
 8080004:	bf00      	nop
 8080006:	46bd      	mov	sp, r7
 8080008:	f85d 7b04 	ldr.w	r7, [sp], #4
 808000c:	4770      	bx	lr

0808000e <wrapped_Idle_CM7>:
********************************************************************************/
/* @cond S */
__SEC_START(__APPLICATION_FUNC_SECTION_START_CM7)
/* @endcond*/
__APPLICATION_FUNC_SECTION_CM7 void wrapped_Idle_CM7(void)
{
 808000e:	b580      	push	{r7, lr}
 8080010:	af00      	add	r7, sp, #0
    Idle_CM7();
 8080012:	f7ff fff5 	bl	8080000 <Idle_CM7>
    for(;;);
 8080016:	e7fe      	b.n	8080016 <wrapped_Idle_CM7+0x8>

08080018 <sysJobs_CM7>:
__SEC_STOP(__APPLICATION_FUNC_SECTION_STOP_CM7)
/* @endcond*/
/* @cond S */
__SEC_START(__APPLICATION_FUNC_SECTION_START_CM7)
/* @endcond*/
__APPLICATION_FUNC_SECTION_CM7 __WEAK void sysJobs_CM7(void){};
 8080018:	b480      	push	{r7}
 808001a:	af00      	add	r7, sp, #0
 808001c:	bf00      	nop
 808001e:	46bd      	mov	sp, r7
 8080020:	f85d 7b04 	ldr.w	r7, [sp], #4
 8080024:	4770      	bx	lr

08080026 <wrapped_sysJobs_CM7>:
/* @endcond*/
/* @cond S */
__SEC_START(__APPLICATION_FUNC_SECTION_START_CM7)
/* @endcond*/
__APPLICATION_FUNC_SECTION_CM7 void wrapped_sysJobs_CM7(void)
{
 8080026:	b580      	push	{r7, lr}
 8080028:	af00      	add	r7, sp, #0
    sysCalls_bitWidthType_ret_void(SYSCALL_SYSJOBS_DISPATCHER);
 808002a:	201c      	movs	r0, #28
 808002c:	f082 f8ec 	bl	8102208 <sysCalls_bitWidthType_ret_void>
    sysCalls_bitWidthType_ret_void(SYSCALL_SCHEDULABLE_SETEXECUTIONSTATETOFINISHED);
 8080030:	201b      	movs	r0, #27
 8080032:	f082 f8e9 	bl	8102208 <sysCalls_bitWidthType_ret_void>
    for(;;);
 8080036:	e7fe      	b.n	8080036 <wrapped_sysJobs_CM7+0x10>
__SEC_STOP(__APPLICATION_FUNC_SECTION_STOP_CM7)
/* @endcond*/
/* @cond S */
__SEC_START(__APPLICATION_FUNC_SECTION_START_CM7)
/* @endcond*/
__APPLICATION_FUNC_SECTION_CM7 __WEAK void Task_0_Core_0_Handler(void){};
 8080038:	b480      	push	{r7}
 808003a:	af00      	add	r7, sp, #0
 808003c:	bf00      	nop
 808003e:	46bd      	mov	sp, r7
 8080040:	f85d 7b04 	ldr.w	r7, [sp], #4
 8080044:	4770      	bx	lr

08080046 <wrapped_Task_0_Core_0_Handler>:
/* @endcond*/
/* @cond S */
__SEC_START(__APPLICATION_FUNC_SECTION_START_CM7)
/* @endcond*/
__APPLICATION_FUNC_SECTION_CM7 void wrapped_Task_0_Core_0_Handler(void)
{
 8080046:	b580      	push	{r7, lr}
 8080048:	af00      	add	r7, sp, #0
    Task_0_Core_0_Handler();
 808004a:	f000 f869 	bl	8080120 <Task_0_Core_0_Handler>
    sysCalls_bitWidthType_ret_void(SYSCALL_SCHEDULABLE_SETEXECUTIONSTATETOFINISHED);
 808004e:	201b      	movs	r0, #27
 8080050:	f082 f8da 	bl	8102208 <sysCalls_bitWidthType_ret_void>
    for(;;);
 8080054:	e7fe      	b.n	8080054 <wrapped_Task_0_Core_0_Handler+0xe>

08080056 <IdleThread_CM7>:
__SEC_STOP(__APPLICATION_FUNC_SECTION_STOP_CM4)
/* @endcond*/
/* @cond S */
__SEC_START(__APPLICATION_FUNC_SECTION_START_CM7)
/* @endcond*/
__APPLICATION_FUNC_SECTION_CM7 __WEAK void IdleThread_CM7(void){};
 8080056:	b480      	push	{r7}
 8080058:	af00      	add	r7, sp, #0
 808005a:	bf00      	nop
 808005c:	46bd      	mov	sp, r7
 808005e:	f85d 7b04 	ldr.w	r7, [sp], #4
 8080062:	4770      	bx	lr

08080064 <wrapped_IdleThread_CM7>:
/* @endcond*/
/* @cond S */
__SEC_START(__APPLICATION_FUNC_SECTION_START_CM7)
/* @endcond*/
__APPLICATION_FUNC_SECTION_CM7 void wrapped_IdleThread_CM7(void)
{
 8080064:	b580      	push	{r7, lr}
 8080066:	af00      	add	r7, sp, #0
    while ( 1 )
    {
        IdleThread_CM7();
 8080068:	f7ff fff5 	bl	8080056 <IdleThread_CM7>
 808006c:	e7fc      	b.n	8080068 <wrapped_IdleThread_CM7+0x4>
__SEC_STOP(__APPLICATION_FUNC_SECTION_STOP_CM7)
/* @endcond*/
/* @cond S */
__SEC_START(__APPLICATION_FUNC_SECTION_START_CM7)
/* @endcond*/
__APPLICATION_FUNC_SECTION_CM7 __WEAK void Thread_Core_0(void){};
 808006e:	b480      	push	{r7}
 8080070:	af00      	add	r7, sp, #0
 8080072:	bf00      	nop
 8080074:	46bd      	mov	sp, r7
 8080076:	f85d 7b04 	ldr.w	r7, [sp], #4
 808007a:	4770      	bx	lr

0808007c <wrapped_Thread_Core_0>:
/* @endcond*/
/* @cond S */
__SEC_START(__APPLICATION_FUNC_SECTION_START_CM7)
/* @endcond*/
__APPLICATION_FUNC_SECTION_CM7 void wrapped_Thread_Core_0(void)
{
 808007c:	b580      	push	{r7, lr}
 808007e:	af00      	add	r7, sp, #0
    while ( 1 )
    {
        Thread_Core_0();
 8080080:	f000 f878 	bl	8080174 <Thread_Core_0>
 8080084:	e7fc      	b.n	8080080 <wrapped_Thread_Core_0+0x4>
__APPLICATION_FUNC_SECTION_CM7 __WEAK void Idle_CM7(void){};
 8080086:	b480      	push	{r7}
 8080088:	af00      	add	r7, sp, #0
 808008a:	bf00      	nop
 808008c:	46bd      	mov	sp, r7
 808008e:	f85d 7b04 	ldr.w	r7, [sp], #4
 8080092:	4770      	bx	lr
__APPLICATION_FUNC_SECTION_CM7 __WEAK void sysJobs_CM7(void){};
 8080094:	b480      	push	{r7}
 8080096:	af00      	add	r7, sp, #0
 8080098:	bf00      	nop
 808009a:	46bd      	mov	sp, r7
 808009c:	f85d 7b04 	ldr.w	r7, [sp], #4
 80800a0:	4770      	bx	lr
__APPLICATION_FUNC_SECTION_CM7 __WEAK void Task_0_Core_0_Handler(void){};
 80800a2:	b480      	push	{r7}
 80800a4:	af00      	add	r7, sp, #0
 80800a6:	bf00      	nop
 80800a8:	46bd      	mov	sp, r7
 80800aa:	f85d 7b04 	ldr.w	r7, [sp], #4
 80800ae:	4770      	bx	lr
__APPLICATION_FUNC_SECTION_CM7 __WEAK void IdleThread_CM7(void){};
 80800b0:	b480      	push	{r7}
 80800b2:	af00      	add	r7, sp, #0
 80800b4:	bf00      	nop
 80800b6:	46bd      	mov	sp, r7
 80800b8:	f85d 7b04 	ldr.w	r7, [sp], #4
 80800bc:	4770      	bx	lr
__APPLICATION_FUNC_SECTION_CM7 __WEAK void Thread_Core_0(void){};
 80800be:	b480      	push	{r7}
 80800c0:	af00      	add	r7, sp, #0
 80800c2:	bf00      	nop
 80800c4:	46bd      	mov	sp, r7
 80800c6:	f85d 7b04 	ldr.w	r7, [sp], #4
 80800ca:	4770      	bx	lr
__APPLICATION_FUNC_SECTION_CM7 __WEAK void Idle_CM7(void){};
 80800cc:	b480      	push	{r7}
 80800ce:	af00      	add	r7, sp, #0
 80800d0:	bf00      	nop
 80800d2:	46bd      	mov	sp, r7
 80800d4:	f85d 7b04 	ldr.w	r7, [sp], #4
 80800d8:	4770      	bx	lr
__APPLICATION_FUNC_SECTION_CM7 __WEAK void sysJobs_CM7(void){};
 80800da:	b480      	push	{r7}
 80800dc:	af00      	add	r7, sp, #0
 80800de:	bf00      	nop
 80800e0:	46bd      	mov	sp, r7
 80800e2:	f85d 7b04 	ldr.w	r7, [sp], #4
 80800e6:	4770      	bx	lr
__APPLICATION_FUNC_SECTION_CM7 __WEAK void Task_0_Core_0_Handler(void){};
 80800e8:	b480      	push	{r7}
 80800ea:	af00      	add	r7, sp, #0
 80800ec:	bf00      	nop
 80800ee:	46bd      	mov	sp, r7
 80800f0:	f85d 7b04 	ldr.w	r7, [sp], #4
 80800f4:	4770      	bx	lr
__APPLICATION_FUNC_SECTION_CM7 __WEAK void IdleThread_CM7(void){};
 80800f6:	b480      	push	{r7}
 80800f8:	af00      	add	r7, sp, #0
 80800fa:	bf00      	nop
 80800fc:	46bd      	mov	sp, r7
 80800fe:	f85d 7b04 	ldr.w	r7, [sp], #4
 8080102:	4770      	bx	lr
__APPLICATION_FUNC_SECTION_CM7 __WEAK void Thread_Core_0(void){};
 8080104:	b480      	push	{r7}
 8080106:	af00      	add	r7, sp, #0
 8080108:	bf00      	nop
 808010a:	46bd      	mov	sp, r7
 808010c:	f85d 7b04 	ldr.w	r7, [sp], #4
 8080110:	4770      	bx	lr

08080112 <userKernelPanicHook_CM7>:
********************************************************************************/
/* @cond S */
__SEC_START(__APPLICATION_FUNC_SECTION_START_CM7)
/* @endcond*/
__APPLICATION_FUNC_SECTION_CM7 void userKernelPanicHook_CM7(void)
{
 8080112:	b480      	push	{r7}
 8080114:	af00      	add	r7, sp, #0

/********************************************************************************
** stop_name =userKernelPanicHook_CM7.cfunc
** DO NOT MODIFY THIS COMMENT !                      USER SECTION | Stop       **
********************************************************************************/
};
 8080116:	bf00      	nop
 8080118:	46bd      	mov	sp, r7
 808011a:	f85d 7b04 	ldr.w	r7, [sp], #4
 808011e:	4770      	bx	lr

08080120 <Task_0_Core_0_Handler>:
********************************************************************************/
/* @cond S */
__SEC_START(__APPLICATION_FUNC_SECTION_START_CM7)
/* @endcond*/
__APPLICATION_FUNC_SECTION_CM7 void Task_0_Core_0_Handler(void)
{
 8080120:	b580      	push	{r7, lr}
 8080122:	af00      	add	r7, sp, #0
/********************************************************************************
** DO NOT MODIFY THIS COMMENT !                      USER SECTION | Start      **
** start_name =Task_0_Core_0_Handler
********************************************************************************/
cosmosApi_deviceIO_togglePin(GPIOF, GPIO_PIN_11); //Timing measurement with logic analyzer, pls dont remove
 8080124:	f44f 6200 	mov.w	r2, #2048	; 0x800
 8080128:	490f      	ldr	r1, [pc, #60]	; (8080168 <Task_0_Core_0_Handler+0x48>)
 808012a:	2018      	movs	r0, #24
 808012c:	f082 f893 	bl	8102256 <sysCalls_bitWidthType_voidPtr_bitWidthType_ret_bitWidthType>
if (counter > 100)
 8080130:	4b0e      	ldr	r3, [pc, #56]	; (808016c <Task_0_Core_0_Handler+0x4c>)
 8080132:	681b      	ldr	r3, [r3, #0]
 8080134:	2b64      	cmp	r3, #100	; 0x64
 8080136:	dd08      	ble.n	808014a <Task_0_Core_0_Handler+0x2a>
{
	counter = 0;
 8080138:	4b0c      	ldr	r3, [pc, #48]	; (808016c <Task_0_Core_0_Handler+0x4c>)
 808013a:	2200      	movs	r2, #0
 808013c:	601a      	str	r2, [r3, #0]
	cosmosApi_deviceIO_togglePin(GPIOE, GPIO_PIN_1); //ORANGE LED
 808013e:	2202      	movs	r2, #2
 8080140:	490b      	ldr	r1, [pc, #44]	; (8080170 <Task_0_Core_0_Handler+0x50>)
 8080142:	2018      	movs	r0, #24
 8080144:	f082 f887 	bl	8102256 <sysCalls_bitWidthType_voidPtr_bitWidthType_ret_bitWidthType>
 8080148:	e004      	b.n	8080154 <Task_0_Core_0_Handler+0x34>
	// cosmosApi_release_spinlock_uart_buffer_read();

}
else
{
    counter++;
 808014a:	4b08      	ldr	r3, [pc, #32]	; (808016c <Task_0_Core_0_Handler+0x4c>)
 808014c:	681b      	ldr	r3, [r3, #0]
 808014e:	3301      	adds	r3, #1
 8080150:	4a06      	ldr	r2, [pc, #24]	; (808016c <Task_0_Core_0_Handler+0x4c>)
 8080152:	6013      	str	r3, [r2, #0]
}
__asm volatile ("VMUL.F32 s0, s0, s1"); //testing FPU context switch
 8080154:	ee20 0a20 	vmul.f32	s0, s0, s1
cosmosApi_deviceIO_togglePin(GPIOF, GPIO_PIN_11); //Timing measurement with logic analyzer, pls dont remove
 8080158:	f44f 6200 	mov.w	r2, #2048	; 0x800
 808015c:	4902      	ldr	r1, [pc, #8]	; (8080168 <Task_0_Core_0_Handler+0x48>)
 808015e:	2018      	movs	r0, #24
 8080160:	f082 f879 	bl	8102256 <sysCalls_bitWidthType_voidPtr_bitWidthType_ret_bitWidthType>
/********************************************************************************
** stop_name =Task_0_Core_0_Handler
** DO NOT MODIFY THIS COMMENT !                      USER SECTION | Stop       **
********************************************************************************/
};
 8080164:	bf00      	nop
 8080166:	bd80      	pop	{r7, pc}
 8080168:	58021400 	.word	0x58021400
 808016c:	20001400 	.word	0x20001400
 8080170:	58021000 	.word	0x58021000

08080174 <Thread_Core_0>:
********************************************************************************/
/* @cond S */
__SEC_START(__APPLICATION_FUNC_SECTION_START_CM7)
/* @endcond*/
__APPLICATION_FUNC_SECTION_CM7 void Thread_Core_0(void)
{
 8080174:	b480      	push	{r7}
 8080176:	af00      	add	r7, sp, #0
	//delete integerPointer;
/********************************************************************************
** stop_name =Thread_Core_0
** DO NOT MODIFY THIS COMMENT !                      USER SECTION | Stop       **
********************************************************************************/
};
 8080178:	bf00      	nop
 808017a:	46bd      	mov	sp, r7
 808017c:	f85d 7b04 	ldr.w	r7, [sp], #4
 8080180:	4770      	bx	lr
 8080182:	bf00      	nop

Disassembly of section .application_section_funcs_CM4:

08180000 <Idle_CM4>:
__APPLICATION_FUNC_SECTION_CM4 __WEAK void Idle_CM4(void){};
 8180000:	b480      	push	{r7}
 8180002:	af00      	add	r7, sp, #0
 8180004:	bf00      	nop
 8180006:	46bd      	mov	sp, r7
 8180008:	f85d 7b04 	ldr.w	r7, [sp], #4
 818000c:	4770      	bx	lr

0818000e <wrapped_Idle_CM4>:
{
 818000e:	b580      	push	{r7, lr}
 8180010:	af00      	add	r7, sp, #0
    Idle_CM4();
 8180012:	f7ff fff5 	bl	8180000 <Idle_CM4>
    for(;;);
 8180016:	e7fe      	b.n	8180016 <wrapped_Idle_CM4+0x8>

08180018 <sysJobs_CM4>:
__APPLICATION_FUNC_SECTION_CM4 __WEAK void sysJobs_CM4(void){};
 8180018:	b480      	push	{r7}
 818001a:	af00      	add	r7, sp, #0
 818001c:	bf00      	nop
 818001e:	46bd      	mov	sp, r7
 8180020:	f85d 7b04 	ldr.w	r7, [sp], #4
 8180024:	4770      	bx	lr

08180026 <wrapped_sysJobs_CM4>:
{
 8180026:	b580      	push	{r7, lr}
 8180028:	af00      	add	r7, sp, #0
    sysCalls_bitWidthType_ret_void(SYSCALL_SYSJOBS_DISPATCHER);
 818002a:	201c      	movs	r0, #28
 818002c:	f782 f8ec 	bl	8102208 <sysCalls_bitWidthType_ret_void>
    sysCalls_bitWidthType_ret_void(SYSCALL_SCHEDULABLE_SETEXECUTIONSTATETOFINISHED);
 8180030:	201b      	movs	r0, #27
 8180032:	f782 f8e9 	bl	8102208 <sysCalls_bitWidthType_ret_void>
    for(;;);
 8180036:	e7fe      	b.n	8180036 <wrapped_sysJobs_CM4+0x10>
__APPLICATION_FUNC_SECTION_CM4 __WEAK void Task_0_Core_1_Handler(void){};
 8180038:	b480      	push	{r7}
 818003a:	af00      	add	r7, sp, #0
 818003c:	bf00      	nop
 818003e:	46bd      	mov	sp, r7
 8180040:	f85d 7b04 	ldr.w	r7, [sp], #4
 8180044:	4770      	bx	lr

08180046 <wrapped_Task_0_Core_1_Handler>:
{
 8180046:	b580      	push	{r7, lr}
 8180048:	af00      	add	r7, sp, #0
    Task_0_Core_1_Handler();
 818004a:	f000 f869 	bl	8180120 <Task_0_Core_1_Handler>
    sysCalls_bitWidthType_ret_void(SYSCALL_SCHEDULABLE_SETEXECUTIONSTATETOFINISHED);
 818004e:	201b      	movs	r0, #27
 8180050:	f782 f8da 	bl	8102208 <sysCalls_bitWidthType_ret_void>
    for(;;);
 8180054:	e7fe      	b.n	8180054 <wrapped_Task_0_Core_1_Handler+0xe>

08180056 <IdleThread_CM4>:
__SEC_STOP(__APPLICATION_FUNC_SECTION_STOP_CM7)
/* @endcond*/
/* @cond S */
__SEC_START(__APPLICATION_FUNC_SECTION_START_CM4)
/* @endcond*/
__APPLICATION_FUNC_SECTION_CM4 __WEAK void IdleThread_CM4(void){};
 8180056:	b480      	push	{r7}
 8180058:	af00      	add	r7, sp, #0
 818005a:	bf00      	nop
 818005c:	46bd      	mov	sp, r7
 818005e:	f85d 7b04 	ldr.w	r7, [sp], #4
 8180062:	4770      	bx	lr

08180064 <wrapped_IdleThread_CM4>:
/* @endcond*/
/* @cond S */
__SEC_START(__APPLICATION_FUNC_SECTION_START_CM4)
/* @endcond*/
__APPLICATION_FUNC_SECTION_CM4 void wrapped_IdleThread_CM4(void)
{
 8180064:	b580      	push	{r7, lr}
 8180066:	af00      	add	r7, sp, #0
    while ( 1 )
    {
        IdleThread_CM4();
 8180068:	f7ff fff5 	bl	8180056 <IdleThread_CM4>
 818006c:	e7fc      	b.n	8180068 <wrapped_IdleThread_CM4+0x4>
__SEC_STOP(__APPLICATION_FUNC_SECTION_STOP_CM4)
/* @endcond*/
/* @cond S */
__SEC_START(__APPLICATION_FUNC_SECTION_START_CM4)
/* @endcond*/
__APPLICATION_FUNC_SECTION_CM4 __WEAK void Thread_Core_1(void){};
 818006e:	b480      	push	{r7}
 8180070:	af00      	add	r7, sp, #0
 8180072:	bf00      	nop
 8180074:	46bd      	mov	sp, r7
 8180076:	f85d 7b04 	ldr.w	r7, [sp], #4
 818007a:	4770      	bx	lr

0818007c <wrapped_Thread_Core_1>:
/* @endcond*/
/* @cond S */
__SEC_START(__APPLICATION_FUNC_SECTION_START_CM4)
/* @endcond*/
__APPLICATION_FUNC_SECTION_CM4 void wrapped_Thread_Core_1(void)
{
 818007c:	b580      	push	{r7, lr}
 818007e:	af00      	add	r7, sp, #0
    while ( 1 )
    {
        Thread_Core_1();
 8180080:	f000 f898 	bl	81801b4 <Thread_Core_1>
 8180084:	e7fc      	b.n	8180080 <wrapped_Thread_Core_1+0x4>
__APPLICATION_FUNC_SECTION_CM4 __WEAK void Idle_CM4(void){};
 8180086:	b480      	push	{r7}
 8180088:	af00      	add	r7, sp, #0
 818008a:	bf00      	nop
 818008c:	46bd      	mov	sp, r7
 818008e:	f85d 7b04 	ldr.w	r7, [sp], #4
 8180092:	4770      	bx	lr
__APPLICATION_FUNC_SECTION_CM4 __WEAK void sysJobs_CM4(void){};
 8180094:	b480      	push	{r7}
 8180096:	af00      	add	r7, sp, #0
 8180098:	bf00      	nop
 818009a:	46bd      	mov	sp, r7
 818009c:	f85d 7b04 	ldr.w	r7, [sp], #4
 81800a0:	4770      	bx	lr
__APPLICATION_FUNC_SECTION_CM4 __WEAK void Task_0_Core_1_Handler(void){};
 81800a2:	b480      	push	{r7}
 81800a4:	af00      	add	r7, sp, #0
 81800a6:	bf00      	nop
 81800a8:	46bd      	mov	sp, r7
 81800aa:	f85d 7b04 	ldr.w	r7, [sp], #4
 81800ae:	4770      	bx	lr
__APPLICATION_FUNC_SECTION_CM4 __WEAK void IdleThread_CM4(void){};
 81800b0:	b480      	push	{r7}
 81800b2:	af00      	add	r7, sp, #0
 81800b4:	bf00      	nop
 81800b6:	46bd      	mov	sp, r7
 81800b8:	f85d 7b04 	ldr.w	r7, [sp], #4
 81800bc:	4770      	bx	lr
__APPLICATION_FUNC_SECTION_CM4 __WEAK void Thread_Core_1(void){};
 81800be:	b480      	push	{r7}
 81800c0:	af00      	add	r7, sp, #0
 81800c2:	bf00      	nop
 81800c4:	46bd      	mov	sp, r7
 81800c6:	f85d 7b04 	ldr.w	r7, [sp], #4
 81800ca:	4770      	bx	lr
__APPLICATION_FUNC_SECTION_CM4 __WEAK void Idle_CM4(void){};
 81800cc:	b480      	push	{r7}
 81800ce:	af00      	add	r7, sp, #0
 81800d0:	bf00      	nop
 81800d2:	46bd      	mov	sp, r7
 81800d4:	f85d 7b04 	ldr.w	r7, [sp], #4
 81800d8:	4770      	bx	lr
__APPLICATION_FUNC_SECTION_CM4 __WEAK void sysJobs_CM4(void){};
 81800da:	b480      	push	{r7}
 81800dc:	af00      	add	r7, sp, #0
 81800de:	bf00      	nop
 81800e0:	46bd      	mov	sp, r7
 81800e2:	f85d 7b04 	ldr.w	r7, [sp], #4
 81800e6:	4770      	bx	lr
__APPLICATION_FUNC_SECTION_CM4 __WEAK void Task_0_Core_1_Handler(void){};
 81800e8:	b480      	push	{r7}
 81800ea:	af00      	add	r7, sp, #0
 81800ec:	bf00      	nop
 81800ee:	46bd      	mov	sp, r7
 81800f0:	f85d 7b04 	ldr.w	r7, [sp], #4
 81800f4:	4770      	bx	lr
__APPLICATION_FUNC_SECTION_CM4 __WEAK void IdleThread_CM4(void){};
 81800f6:	b480      	push	{r7}
 81800f8:	af00      	add	r7, sp, #0
 81800fa:	bf00      	nop
 81800fc:	46bd      	mov	sp, r7
 81800fe:	f85d 7b04 	ldr.w	r7, [sp], #4
 8180102:	4770      	bx	lr
__APPLICATION_FUNC_SECTION_CM4 __WEAK void Thread_Core_1(void){};
 8180104:	b480      	push	{r7}
 8180106:	af00      	add	r7, sp, #0
 8180108:	bf00      	nop
 818010a:	46bd      	mov	sp, r7
 818010c:	f85d 7b04 	ldr.w	r7, [sp], #4
 8180110:	4770      	bx	lr

08180112 <userKernelPanicHook_CM4>:
********************************************************************************/
/* @cond S */
__SEC_START(__APPLICATION_FUNC_SECTION_START_CM4)
/* @endcond*/
__APPLICATION_FUNC_SECTION_CM4 void userKernelPanicHook_CM4(void)
{
 8180112:	b480      	push	{r7}
 8180114:	af00      	add	r7, sp, #0

/********************************************************************************
** stop_name =userKernelPanicHook_CM4.cfunc
** DO NOT MODIFY THIS COMMENT !                      USER SECTION | Stop       **
********************************************************************************/
};
 8180116:	bf00      	nop
 8180118:	46bd      	mov	sp, r7
 818011a:	f85d 7b04 	ldr.w	r7, [sp], #4
 818011e:	4770      	bx	lr

08180120 <Task_0_Core_1_Handler>:
********************************************************************************/
/* @cond S */
__SEC_START(__APPLICATION_FUNC_SECTION_START_CM4)
/* @endcond*/
__APPLICATION_FUNC_SECTION_CM4 void Task_0_Core_1_Handler(void)
{
 8180120:	b580      	push	{r7, lr}
 8180122:	b082      	sub	sp, #8
 8180124:	af00      	add	r7, sp, #0
/********************************************************************************
** DO NOT MODIFY THIS COMMENT !                      USER SECTION | Start      **
** start_name =Task_0_Core_1_Handler
********************************************************************************/
cosmosApi_deviceIO_togglePin(GPIOA, GPIO_PIN_4); //Timing measurement with logic analyzer, pls dont remove
 8180126:	2210      	movs	r2, #16
 8180128:	491e      	ldr	r1, [pc, #120]	; (81801a4 <Task_0_Core_1_Handler+0x84>)
 818012a:	2018      	movs	r0, #24
 818012c:	f782 f893 	bl	8102256 <sysCalls_bitWidthType_voidPtr_bitWidthType_ret_bitWidthType>
if (counter_cm4 > 100)
 8180130:	4b1d      	ldr	r3, [pc, #116]	; (81801a8 <Task_0_Core_1_Handler+0x88>)
 8180132:	681b      	ldr	r3, [r3, #0]
 8180134:	2b64      	cmp	r3, #100	; 0x64
 8180136:	dd26      	ble.n	8180186 <Task_0_Core_1_Handler+0x66>
{
	CosmOS_SpinlockStateType spinlockState;
	CosmOS_BufferStateType bufferState;


	bufferReader_cm4 = 100;
 8180138:	4b1c      	ldr	r3, [pc, #112]	; (81801ac <Task_0_Core_1_Handler+0x8c>)
 818013a:	2264      	movs	r2, #100	; 0x64
 818013c:	601a      	str	r2, [r3, #0]
	bufferState = cosmosApi_write_buffer_x_core_buffer_1(&bufferReader_cm4,sizeof(bufferReader_cm4));
 818013e:	2204      	movs	r2, #4
 8180140:	491a      	ldr	r1, [pc, #104]	; (81801ac <Task_0_Core_1_Handler+0x8c>)
 8180142:	2017      	movs	r0, #23
 8180144:	f782 f887 	bl	8102256 <sysCalls_bitWidthType_voidPtr_bitWidthType_ret_bitWidthType>
 8180148:	4603      	mov	r3, r0
 818014a:	71fb      	strb	r3, [r7, #7]

	bufferReader_cm4 = 0;
 818014c:	4b17      	ldr	r3, [pc, #92]	; (81801ac <Task_0_Core_1_Handler+0x8c>)
 818014e:	2200      	movs	r2, #0
 8180150:	601a      	str	r2, [r3, #0]
	bufferState = cosmosApi_read_buffer_x_core_buffer_1(&bufferReader_cm4,sizeof(bufferReader_cm4));
 8180152:	2204      	movs	r2, #4
 8180154:	4915      	ldr	r1, [pc, #84]	; (81801ac <Task_0_Core_1_Handler+0x8c>)
 8180156:	2016      	movs	r0, #22
 8180158:	f782 f87d 	bl	8102256 <sysCalls_bitWidthType_voidPtr_bitWidthType_ret_bitWidthType>
 818015c:	4603      	mov	r3, r0
 818015e:	71fb      	strb	r3, [r7, #7]

	spinlockState = cosmosApi_try_spinlock_uart_buffer_read();
 8180160:	2001      	movs	r0, #1
 8180162:	f782 f85c 	bl	810221e <sysCalls_bitWidthType_ret_bitWidthType>
 8180166:	4603      	mov	r3, r0
 8180168:	603b      	str	r3, [r7, #0]
	//spinlockState = cosmosApi_get_spinlock_uart_buffer_read();

	spinlockState = cosmosApi_release_spinlock_uart_buffer_read();
 818016a:	2002      	movs	r0, #2
 818016c:	f782 f857 	bl	810221e <sysCalls_bitWidthType_ret_bitWidthType>
 8180170:	4603      	mov	r3, r0
 8180172:	603b      	str	r3, [r7, #0]

	counter_cm4 = 0;
 8180174:	4b0c      	ldr	r3, [pc, #48]	; (81801a8 <Task_0_Core_1_Handler+0x88>)
 8180176:	2200      	movs	r2, #0
 8180178:	601a      	str	r2, [r3, #0]
	cosmosApi_deviceIO_togglePin(GPIOB, GPIO_PIN_0); //GREEN LED
 818017a:	2201      	movs	r2, #1
 818017c:	490c      	ldr	r1, [pc, #48]	; (81801b0 <Task_0_Core_1_Handler+0x90>)
 818017e:	2018      	movs	r0, #24
 8180180:	f782 f869 	bl	8102256 <sysCalls_bitWidthType_voidPtr_bitWidthType_ret_bitWidthType>
 8180184:	e004      	b.n	8180190 <Task_0_Core_1_Handler+0x70>
	__SUPRESS_UNUSED_VAR(spinlockState);
	__SUPRESS_UNUSED_VAR(bufferState);
}
else
{
	counter_cm4++;
 8180186:	4b08      	ldr	r3, [pc, #32]	; (81801a8 <Task_0_Core_1_Handler+0x88>)
 8180188:	681b      	ldr	r3, [r3, #0]
 818018a:	3301      	adds	r3, #1
 818018c:	4a06      	ldr	r2, [pc, #24]	; (81801a8 <Task_0_Core_1_Handler+0x88>)
 818018e:	6013      	str	r3, [r2, #0]
}
cosmosApi_deviceIO_togglePin(GPIOA, GPIO_PIN_4); //Timing measurement with logic analyzer, pls dont remove
 8180190:	2210      	movs	r2, #16
 8180192:	4904      	ldr	r1, [pc, #16]	; (81801a4 <Task_0_Core_1_Handler+0x84>)
 8180194:	2018      	movs	r0, #24
 8180196:	f782 f85e 	bl	8102256 <sysCalls_bitWidthType_voidPtr_bitWidthType_ret_bitWidthType>
/********************************************************************************
** stop_name =Task_0_Core_1_Handler
** DO NOT MODIFY THIS COMMENT !                      USER SECTION | Stop       **
********************************************************************************/
};
 818019a:	bf00      	nop
 818019c:	3708      	adds	r7, #8
 818019e:	46bd      	mov	sp, r7
 81801a0:	bd80      	pop	{r7, pc}
 81801a2:	bf00      	nop
 81801a4:	58020000 	.word	0x58020000
 81801a8:	10001400 	.word	0x10001400
 81801ac:	10001404 	.word	0x10001404
 81801b0:	58020400 	.word	0x58020400

081801b4 <Thread_Core_1>:
********************************************************************************/
/* @cond S */
__SEC_START(__APPLICATION_FUNC_SECTION_START_CM4)
/* @endcond*/
__APPLICATION_FUNC_SECTION_CM4 void Thread_Core_1(void)
{
 81801b4:	b580      	push	{r7, lr}
 81801b6:	b082      	sub	sp, #8
 81801b8:	af00      	add	r7, sp, #0
/********************************************************************************
** DO NOT MODIFY THIS COMMENT !                      USER SECTION | Start      **
** start_name =Thread_Core_1
********************************************************************************/
	int *integerPointer = new int(100);
 81801ba:	2004      	movs	r0, #4
 81801bc:	f786 fb88 	bl	81068d0 <_Znwj>
 81801c0:	4603      	mov	r3, r0
 81801c2:	2264      	movs	r2, #100	; 0x64
 81801c4:	601a      	str	r2, [r3, #0]
 81801c6:	607b      	str	r3, [r7, #4]

	int *integerPointer2 = new int(100);
 81801c8:	2004      	movs	r0, #4
 81801ca:	f786 fb81 	bl	81068d0 <_Znwj>
 81801ce:	4603      	mov	r3, r0
 81801d0:	2264      	movs	r2, #100	; 0x64
 81801d2:	601a      	str	r2, [r3, #0]
 81801d4:	603b      	str	r3, [r7, #0]

	delete integerPointer;
 81801d6:	687b      	ldr	r3, [r7, #4]
 81801d8:	2b00      	cmp	r3, #0
 81801da:	d003      	beq.n	81801e4 <Thread_Core_1+0x30>
 81801dc:	2104      	movs	r1, #4
 81801de:	4618      	mov	r0, r3
 81801e0:	f786 fb8a 	bl	81068f8 <_ZdlPvj>
	delete integerPointer2;
 81801e4:	683b      	ldr	r3, [r7, #0]
 81801e6:	2b00      	cmp	r3, #0
 81801e8:	d003      	beq.n	81801f2 <Thread_Core_1+0x3e>
 81801ea:	2104      	movs	r1, #4
 81801ec:	4618      	mov	r0, r3
 81801ee:	f786 fb83 	bl	81068f8 <_ZdlPvj>
/********************************************************************************
** stop_name =Thread_Core_1
** DO NOT MODIFY THIS COMMENT !                      USER SECTION | Stop       **
********************************************************************************/
};
 81801f2:	bf00      	nop
 81801f4:	3708      	adds	r7, #8
 81801f6:	46bd      	mov	sp, r7
 81801f8:	bd80      	pop	{r7, pc}
 81801fa:	bf00      	nop

Disassembly of section .text:

08104000 <__do_global_dtors_aux>:
 8104000:	b510      	push	{r4, lr}
 8104002:	4c05      	ldr	r4, [pc, #20]	; (8104018 <_e_os_section_funcs+0x18>)
 8104004:	7823      	ldrb	r3, [r4, #0]
 8104006:	b933      	cbnz	r3, 8104016 <__do_global_dtors_aux+0x16>
 8104008:	4b04      	ldr	r3, [pc, #16]	; (810401c <_e_os_section_funcs+0x1c>)
 810400a:	b113      	cbz	r3, 8104012 <__do_global_dtors_aux+0x12>
 810400c:	4804      	ldr	r0, [pc, #16]	; (8104020 <_e_os_section_funcs+0x20>)
 810400e:	f3af 8000 	nop.w
 8104012:	2301      	movs	r3, #1
 8104014:	7023      	strb	r3, [r4, #0]
 8104016:	bd10      	pop	{r4, pc}
 8104018:	10001874 	.word	0x10001874
 810401c:	00000000 	.word	0x00000000
 8104020:	08106a30 	.word	0x08106a30

08104024 <frame_dummy>:
 8104024:	b508      	push	{r3, lr}
 8104026:	4b03      	ldr	r3, [pc, #12]	; (8104034 <frame_dummy+0x10>)
 8104028:	b11b      	cbz	r3, 8104032 <frame_dummy+0xe>
 810402a:	4903      	ldr	r1, [pc, #12]	; (8104038 <frame_dummy+0x14>)
 810402c:	4803      	ldr	r0, [pc, #12]	; (810403c <frame_dummy+0x18>)
 810402e:	f3af 8000 	nop.w
 8104032:	bd08      	pop	{r3, pc}
 8104034:	00000000 	.word	0x00000000
 8104038:	10001878 	.word	0x10001878
 810403c:	08106a30 	.word	0x08106a30

08104040 <selfrel_offset31>:
 8104040:	6803      	ldr	r3, [r0, #0]
 8104042:	005a      	lsls	r2, r3, #1
 8104044:	bf4c      	ite	mi
 8104046:	f043 4300 	orrmi.w	r3, r3, #2147483648	; 0x80000000
 810404a:	f023 4300 	bicpl.w	r3, r3, #2147483648	; 0x80000000
 810404e:	4418      	add	r0, r3
 8104050:	4770      	bx	lr
 8104052:	bf00      	nop

08104054 <search_EIT_table>:
 8104054:	e92d 43f8 	stmdb	sp!, {r3, r4, r5, r6, r7, r8, r9, lr}
 8104058:	b329      	cbz	r1, 81040a6 <search_EIT_table+0x52>
 810405a:	1e4f      	subs	r7, r1, #1
 810405c:	4604      	mov	r4, r0
 810405e:	4615      	mov	r5, r2
 8104060:	463e      	mov	r6, r7
 8104062:	f04f 0800 	mov.w	r8, #0
 8104066:	eb08 0106 	add.w	r1, r8, r6
 810406a:	eb01 71d1 	add.w	r1, r1, r1, lsr #31
 810406e:	1049      	asrs	r1, r1, #1
 8104070:	eb04 09c1 	add.w	r9, r4, r1, lsl #3
 8104074:	4648      	mov	r0, r9
 8104076:	f7ff ffe3 	bl	8104040 <selfrel_offset31>
 810407a:	4603      	mov	r3, r0
 810407c:	00c8      	lsls	r0, r1, #3
 810407e:	3008      	adds	r0, #8
 8104080:	428f      	cmp	r7, r1
 8104082:	4420      	add	r0, r4
 8104084:	d009      	beq.n	810409a <search_EIT_table+0x46>
 8104086:	42ab      	cmp	r3, r5
 8104088:	d809      	bhi.n	810409e <search_EIT_table+0x4a>
 810408a:	f7ff ffd9 	bl	8104040 <selfrel_offset31>
 810408e:	3801      	subs	r0, #1
 8104090:	42a8      	cmp	r0, r5
 8104092:	d20a      	bcs.n	81040aa <search_EIT_table+0x56>
 8104094:	f101 0801 	add.w	r8, r1, #1
 8104098:	e7e5      	b.n	8104066 <search_EIT_table+0x12>
 810409a:	42ab      	cmp	r3, r5
 810409c:	d905      	bls.n	81040aa <search_EIT_table+0x56>
 810409e:	4588      	cmp	r8, r1
 81040a0:	d001      	beq.n	81040a6 <search_EIT_table+0x52>
 81040a2:	1e4e      	subs	r6, r1, #1
 81040a4:	e7df      	b.n	8104066 <search_EIT_table+0x12>
 81040a6:	f04f 0900 	mov.w	r9, #0
 81040aa:	4648      	mov	r0, r9
 81040ac:	e8bd 83f8 	ldmia.w	sp!, {r3, r4, r5, r6, r7, r8, r9, pc}

081040b0 <__gnu_unwind_get_pr_addr>:
 81040b0:	2801      	cmp	r0, #1
 81040b2:	d007      	beq.n	81040c4 <__gnu_unwind_get_pr_addr+0x14>
 81040b4:	2802      	cmp	r0, #2
 81040b6:	d007      	beq.n	81040c8 <__gnu_unwind_get_pr_addr+0x18>
 81040b8:	4b04      	ldr	r3, [pc, #16]	; (81040cc <__gnu_unwind_get_pr_addr+0x1c>)
 81040ba:	2800      	cmp	r0, #0
 81040bc:	bf0c      	ite	eq
 81040be:	4618      	moveq	r0, r3
 81040c0:	2000      	movne	r0, #0
 81040c2:	4770      	bx	lr
 81040c4:	4802      	ldr	r0, [pc, #8]	; (81040d0 <__gnu_unwind_get_pr_addr+0x20>)
 81040c6:	4770      	bx	lr
 81040c8:	4802      	ldr	r0, [pc, #8]	; (81040d4 <__gnu_unwind_get_pr_addr+0x24>)
 81040ca:	4770      	bx	lr
 81040cc:	08104775 	.word	0x08104775
 81040d0:	08104779 	.word	0x08104779
 81040d4:	0810477d 	.word	0x0810477d

081040d8 <get_eit_entry>:
 81040d8:	b530      	push	{r4, r5, lr}
 81040da:	4b23      	ldr	r3, [pc, #140]	; (8104168 <get_eit_entry+0x90>)
 81040dc:	b083      	sub	sp, #12
 81040de:	4604      	mov	r4, r0
 81040e0:	1e8d      	subs	r5, r1, #2
 81040e2:	b33b      	cbz	r3, 8104134 <get_eit_entry+0x5c>
 81040e4:	a901      	add	r1, sp, #4
 81040e6:	4628      	mov	r0, r5
 81040e8:	f3af 8000 	nop.w
 81040ec:	b1e8      	cbz	r0, 810412a <get_eit_entry+0x52>
 81040ee:	9901      	ldr	r1, [sp, #4]
 81040f0:	462a      	mov	r2, r5
 81040f2:	f7ff ffaf 	bl	8104054 <search_EIT_table>
 81040f6:	4601      	mov	r1, r0
 81040f8:	b1b8      	cbz	r0, 810412a <get_eit_entry+0x52>
 81040fa:	f7ff ffa1 	bl	8104040 <selfrel_offset31>
 81040fe:	684b      	ldr	r3, [r1, #4]
 8104100:	64a0      	str	r0, [r4, #72]	; 0x48
 8104102:	2b01      	cmp	r3, #1
 8104104:	d02b      	beq.n	810415e <get_eit_entry+0x86>
 8104106:	2b00      	cmp	r3, #0
 8104108:	f101 0004 	add.w	r0, r1, #4
 810410c:	db23      	blt.n	8104156 <get_eit_entry+0x7e>
 810410e:	f7ff ff97 	bl	8104040 <selfrel_offset31>
 8104112:	2300      	movs	r3, #0
 8104114:	e9c4 0313 	strd	r0, r3, [r4, #76]	; 0x4c
 8104118:	6803      	ldr	r3, [r0, #0]
 810411a:	2b00      	cmp	r3, #0
 810411c:	db10      	blt.n	8104140 <get_eit_entry+0x68>
 810411e:	f7ff ff8f 	bl	8104040 <selfrel_offset31>
 8104122:	6120      	str	r0, [r4, #16]
 8104124:	2000      	movs	r0, #0
 8104126:	b003      	add	sp, #12
 8104128:	bd30      	pop	{r4, r5, pc}
 810412a:	2300      	movs	r3, #0
 810412c:	2009      	movs	r0, #9
 810412e:	6123      	str	r3, [r4, #16]
 8104130:	b003      	add	sp, #12
 8104132:	bd30      	pop	{r4, r5, pc}
 8104134:	490d      	ldr	r1, [pc, #52]	; (810416c <get_eit_entry+0x94>)
 8104136:	480e      	ldr	r0, [pc, #56]	; (8104170 <get_eit_entry+0x98>)
 8104138:	1a09      	subs	r1, r1, r0
 810413a:	10c9      	asrs	r1, r1, #3
 810413c:	9101      	str	r1, [sp, #4]
 810413e:	e7d7      	b.n	81040f0 <get_eit_entry+0x18>
 8104140:	f3c3 6003 	ubfx	r0, r3, #24, #4
 8104144:	f7ff ffb4 	bl	81040b0 <__gnu_unwind_get_pr_addr>
 8104148:	2800      	cmp	r0, #0
 810414a:	6120      	str	r0, [r4, #16]
 810414c:	bf14      	ite	ne
 810414e:	2000      	movne	r0, #0
 8104150:	2009      	moveq	r0, #9
 8104152:	b003      	add	sp, #12
 8104154:	bd30      	pop	{r4, r5, pc}
 8104156:	2301      	movs	r3, #1
 8104158:	e9c4 0313 	strd	r0, r3, [r4, #76]	; 0x4c
 810415c:	e7dc      	b.n	8104118 <get_eit_entry+0x40>
 810415e:	2300      	movs	r3, #0
 8104160:	6123      	str	r3, [r4, #16]
 8104162:	2005      	movs	r0, #5
 8104164:	e7df      	b.n	8104126 <get_eit_entry+0x4e>
 8104166:	bf00      	nop
 8104168:	00000000 	.word	0x00000000
 810416c:	08106bb8 	.word	0x08106bb8
 8104170:	08106ae0 	.word	0x08106ae0

08104174 <restore_non_core_regs>:
 8104174:	6803      	ldr	r3, [r0, #0]
 8104176:	07da      	lsls	r2, r3, #31
 8104178:	b510      	push	{r4, lr}
 810417a:	4604      	mov	r4, r0
 810417c:	d406      	bmi.n	810418c <restore_non_core_regs+0x18>
 810417e:	079b      	lsls	r3, r3, #30
 8104180:	f100 0048 	add.w	r0, r0, #72	; 0x48
 8104184:	d509      	bpl.n	810419a <restore_non_core_regs+0x26>
 8104186:	f000 fc4b 	bl	8104a20 <__gnu_Unwind_Restore_VFP_D>
 810418a:	6823      	ldr	r3, [r4, #0]
 810418c:	0759      	lsls	r1, r3, #29
 810418e:	d509      	bpl.n	81041a4 <restore_non_core_regs+0x30>
 8104190:	071a      	lsls	r2, r3, #28
 8104192:	d50e      	bpl.n	81041b2 <restore_non_core_regs+0x3e>
 8104194:	06db      	lsls	r3, r3, #27
 8104196:	d513      	bpl.n	81041c0 <restore_non_core_regs+0x4c>
 8104198:	bd10      	pop	{r4, pc}
 810419a:	f000 fc39 	bl	8104a10 <__gnu_Unwind_Restore_VFP>
 810419e:	6823      	ldr	r3, [r4, #0]
 81041a0:	0759      	lsls	r1, r3, #29
 81041a2:	d4f5      	bmi.n	8104190 <restore_non_core_regs+0x1c>
 81041a4:	f104 00d0 	add.w	r0, r4, #208	; 0xd0
 81041a8:	f000 fc42 	bl	8104a30 <__gnu_Unwind_Restore_VFP_D_16_to_31>
 81041ac:	6823      	ldr	r3, [r4, #0]
 81041ae:	071a      	lsls	r2, r3, #28
 81041b0:	d4f0      	bmi.n	8104194 <restore_non_core_regs+0x20>
 81041b2:	f504 70a8 	add.w	r0, r4, #336	; 0x150
 81041b6:	f000 fc43 	bl	8104a40 <__gnu_Unwind_Restore_WMMXD>
 81041ba:	6823      	ldr	r3, [r4, #0]
 81041bc:	06db      	lsls	r3, r3, #27
 81041be:	d4eb      	bmi.n	8104198 <restore_non_core_regs+0x24>
 81041c0:	f504 70e8 	add.w	r0, r4, #464	; 0x1d0
 81041c4:	e8bd 4010 	ldmia.w	sp!, {r4, lr}
 81041c8:	f000 bc7e 	b.w	8104ac8 <__gnu_Unwind_Restore_WMMXC>

081041cc <_Unwind_decode_typeinfo_ptr.isra.0>:
 81041cc:	4603      	mov	r3, r0
 81041ce:	6800      	ldr	r0, [r0, #0]
 81041d0:	b100      	cbz	r0, 81041d4 <_Unwind_decode_typeinfo_ptr.isra.0+0x8>
 81041d2:	4418      	add	r0, r3
 81041d4:	4770      	bx	lr
 81041d6:	bf00      	nop

081041d8 <__gnu_unwind_24bit.isra.0>:
 81041d8:	2009      	movs	r0, #9
 81041da:	4770      	bx	lr

081041dc <_Unwind_DebugHook>:
 81041dc:	4770      	bx	lr
 81041de:	bf00      	nop

081041e0 <unwind_phase2>:
 81041e0:	b570      	push	{r4, r5, r6, lr}
 81041e2:	4604      	mov	r4, r0
 81041e4:	460e      	mov	r6, r1
 81041e6:	6c31      	ldr	r1, [r6, #64]	; 0x40
 81041e8:	4620      	mov	r0, r4
 81041ea:	f7ff ff75 	bl	81040d8 <get_eit_entry>
 81041ee:	4605      	mov	r5, r0
 81041f0:	b988      	cbnz	r0, 8104216 <unwind_phase2+0x36>
 81041f2:	6c33      	ldr	r3, [r6, #64]	; 0x40
 81041f4:	6163      	str	r3, [r4, #20]
 81041f6:	4632      	mov	r2, r6
 81041f8:	6923      	ldr	r3, [r4, #16]
 81041fa:	4621      	mov	r1, r4
 81041fc:	2001      	movs	r0, #1
 81041fe:	4798      	blx	r3
 8104200:	2808      	cmp	r0, #8
 8104202:	d0f0      	beq.n	81041e6 <unwind_phase2+0x6>
 8104204:	2807      	cmp	r0, #7
 8104206:	d106      	bne.n	8104216 <unwind_phase2+0x36>
 8104208:	4628      	mov	r0, r5
 810420a:	6c31      	ldr	r1, [r6, #64]	; 0x40
 810420c:	f7ff ffe6 	bl	81041dc <_Unwind_DebugHook>
 8104210:	1d30      	adds	r0, r6, #4
 8104212:	f000 fbf1 	bl	81049f8 <__restore_core_regs>
 8104216:	f002 fb9f 	bl	8106958 <abort>
 810421a:	bf00      	nop

0810421c <unwind_phase2_forced>:
 810421c:	e92d 47f0 	stmdb	sp!, {r4, r5, r6, r7, r8, r9, sl, lr}
 8104220:	1d0d      	adds	r5, r1, #4
 8104222:	4606      	mov	r6, r0
 8104224:	4614      	mov	r4, r2
 8104226:	cd0f      	ldmia	r5!, {r0, r1, r2, r3}
 8104228:	f5ad 7d72 	sub.w	sp, sp, #968	; 0x3c8
 810422c:	f10d 0c0c 	add.w	ip, sp, #12
 8104230:	e8ac 000f 	stmia.w	ip!, {r0, r1, r2, r3}
 8104234:	cd0f      	ldmia	r5!, {r0, r1, r2, r3}
 8104236:	e8ac 000f 	stmia.w	ip!, {r0, r1, r2, r3}
 810423a:	cd0f      	ldmia	r5!, {r0, r1, r2, r3}
 810423c:	e8ac 000f 	stmia.w	ip!, {r0, r1, r2, r3}
 8104240:	e895 000f 	ldmia.w	r5, {r0, r1, r2, r3}
 8104244:	ad02      	add	r5, sp, #8
 8104246:	68f7      	ldr	r7, [r6, #12]
 8104248:	f8d6 8018 	ldr.w	r8, [r6, #24]
 810424c:	e88c 000f 	stmia.w	ip, {r0, r1, r2, r3}
 8104250:	2300      	movs	r3, #0
 8104252:	602b      	str	r3, [r5, #0]
 8104254:	e021      	b.n	810429a <unwind_phase2_forced+0x7e>
 8104256:	6c2b      	ldr	r3, [r5, #64]	; 0x40
 8104258:	6173      	str	r3, [r6, #20]
 810425a:	f44f 72f0 	mov.w	r2, #480	; 0x1e0
 810425e:	4629      	mov	r1, r5
 8104260:	a87a      	add	r0, sp, #488	; 0x1e8
 8104262:	f002 fb80 	bl	8106966 <memcpy>
 8104266:	6933      	ldr	r3, [r6, #16]
 8104268:	aa7a      	add	r2, sp, #488	; 0x1e8
 810426a:	4631      	mov	r1, r6
 810426c:	4650      	mov	r0, sl
 810426e:	4798      	blx	r3
 8104270:	9b88      	ldr	r3, [sp, #544]	; 0x220
 8104272:	e9cd 5800 	strd	r5, r8, [sp]
 8104276:	4621      	mov	r1, r4
 8104278:	646b      	str	r3, [r5, #68]	; 0x44
 810427a:	4681      	mov	r9, r0
 810427c:	4633      	mov	r3, r6
 810427e:	4632      	mov	r2, r6
 8104280:	2001      	movs	r0, #1
 8104282:	47b8      	blx	r7
 8104284:	4604      	mov	r4, r0
 8104286:	b9e8      	cbnz	r0, 81042c4 <unwind_phase2_forced+0xa8>
 8104288:	f44f 72f0 	mov.w	r2, #480	; 0x1e0
 810428c:	a97a      	add	r1, sp, #488	; 0x1e8
 810428e:	4628      	mov	r0, r5
 8104290:	f002 fb69 	bl	8106966 <memcpy>
 8104294:	f1b9 0f08 	cmp.w	r9, #8
 8104298:	d11b      	bne.n	81042d2 <unwind_phase2_forced+0xb6>
 810429a:	6c29      	ldr	r1, [r5, #64]	; 0x40
 810429c:	4630      	mov	r0, r6
 810429e:	f7ff ff1b 	bl	81040d8 <get_eit_entry>
 81042a2:	3409      	adds	r4, #9
 81042a4:	fa5f fa84 	uxtb.w	sl, r4
 81042a8:	4681      	mov	r9, r0
 81042aa:	2800      	cmp	r0, #0
 81042ac:	d0d3      	beq.n	8104256 <unwind_phase2_forced+0x3a>
 81042ae:	6bab      	ldr	r3, [r5, #56]	; 0x38
 81042b0:	f04a 0110 	orr.w	r1, sl, #16
 81042b4:	e9cd 5800 	strd	r5, r8, [sp]
 81042b8:	4632      	mov	r2, r6
 81042ba:	646b      	str	r3, [r5, #68]	; 0x44
 81042bc:	2001      	movs	r0, #1
 81042be:	4633      	mov	r3, r6
 81042c0:	47b8      	blx	r7
 81042c2:	b108      	cbz	r0, 81042c8 <unwind_phase2_forced+0xac>
 81042c4:	f04f 0909 	mov.w	r9, #9
 81042c8:	4648      	mov	r0, r9
 81042ca:	f50d 7d72 	add.w	sp, sp, #968	; 0x3c8
 81042ce:	e8bd 87f0 	ldmia.w	sp!, {r4, r5, r6, r7, r8, r9, sl, pc}
 81042d2:	f1b9 0f07 	cmp.w	r9, #7
 81042d6:	d1f5      	bne.n	81042c4 <unwind_phase2_forced+0xa8>
 81042d8:	4620      	mov	r0, r4
 81042da:	6c29      	ldr	r1, [r5, #64]	; 0x40
 81042dc:	f7ff ff7e 	bl	81041dc <_Unwind_DebugHook>
 81042e0:	a803      	add	r0, sp, #12
 81042e2:	f000 fb89 	bl	81049f8 <__restore_core_regs>
 81042e6:	bf00      	nop

081042e8 <_Unwind_GetCFA>:
 81042e8:	6c40      	ldr	r0, [r0, #68]	; 0x44
 81042ea:	4770      	bx	lr

081042ec <__gnu_Unwind_RaiseException>:
 81042ec:	b5f0      	push	{r4, r5, r6, r7, lr}
 81042ee:	6bcb      	ldr	r3, [r1, #60]	; 0x3c
 81042f0:	640b      	str	r3, [r1, #64]	; 0x40
 81042f2:	1d0e      	adds	r6, r1, #4
 81042f4:	460f      	mov	r7, r1
 81042f6:	4605      	mov	r5, r0
 81042f8:	ce0f      	ldmia	r6!, {r0, r1, r2, r3}
 81042fa:	b0f9      	sub	sp, #484	; 0x1e4
 81042fc:	ac01      	add	r4, sp, #4
 81042fe:	c40f      	stmia	r4!, {r0, r1, r2, r3}
 8104300:	ce0f      	ldmia	r6!, {r0, r1, r2, r3}
 8104302:	c40f      	stmia	r4!, {r0, r1, r2, r3}
 8104304:	ce0f      	ldmia	r6!, {r0, r1, r2, r3}
 8104306:	c40f      	stmia	r4!, {r0, r1, r2, r3}
 8104308:	e896 000f 	ldmia.w	r6, {r0, r1, r2, r3}
 810430c:	f04f 36ff 	mov.w	r6, #4294967295
 8104310:	e884 000f 	stmia.w	r4, {r0, r1, r2, r3}
 8104314:	9600      	str	r6, [sp, #0]
 8104316:	e006      	b.n	8104326 <__gnu_Unwind_RaiseException+0x3a>
 8104318:	692b      	ldr	r3, [r5, #16]
 810431a:	466a      	mov	r2, sp
 810431c:	4629      	mov	r1, r5
 810431e:	4798      	blx	r3
 8104320:	2808      	cmp	r0, #8
 8104322:	4604      	mov	r4, r0
 8104324:	d108      	bne.n	8104338 <__gnu_Unwind_RaiseException+0x4c>
 8104326:	9910      	ldr	r1, [sp, #64]	; 0x40
 8104328:	4628      	mov	r0, r5
 810432a:	f7ff fed5 	bl	81040d8 <get_eit_entry>
 810432e:	2800      	cmp	r0, #0
 8104330:	d0f2      	beq.n	8104318 <__gnu_Unwind_RaiseException+0x2c>
 8104332:	2009      	movs	r0, #9
 8104334:	b079      	add	sp, #484	; 0x1e4
 8104336:	bdf0      	pop	{r4, r5, r6, r7, pc}
 8104338:	4668      	mov	r0, sp
 810433a:	f7ff ff1b 	bl	8104174 <restore_non_core_regs>
 810433e:	2c06      	cmp	r4, #6
 8104340:	d1f7      	bne.n	8104332 <__gnu_Unwind_RaiseException+0x46>
 8104342:	4639      	mov	r1, r7
 8104344:	4628      	mov	r0, r5
 8104346:	f7ff ff4b 	bl	81041e0 <unwind_phase2>
 810434a:	bf00      	nop

0810434c <__gnu_Unwind_ForcedUnwind>:
 810434c:	b430      	push	{r4, r5}
 810434e:	6bdd      	ldr	r5, [r3, #60]	; 0x3c
 8104350:	60c1      	str	r1, [r0, #12]
 8104352:	6182      	str	r2, [r0, #24]
 8104354:	4619      	mov	r1, r3
 8104356:	641d      	str	r5, [r3, #64]	; 0x40
 8104358:	2200      	movs	r2, #0
 810435a:	bc30      	pop	{r4, r5}
 810435c:	e75e      	b.n	810421c <unwind_phase2_forced>
 810435e:	bf00      	nop

08104360 <__gnu_Unwind_Resume>:
 8104360:	b570      	push	{r4, r5, r6, lr}
 8104362:	68c6      	ldr	r6, [r0, #12]
 8104364:	6943      	ldr	r3, [r0, #20]
 8104366:	640b      	str	r3, [r1, #64]	; 0x40
 8104368:	b9ae      	cbnz	r6, 8104396 <__gnu_Unwind_Resume+0x36>
 810436a:	6903      	ldr	r3, [r0, #16]
 810436c:	460a      	mov	r2, r1
 810436e:	4604      	mov	r4, r0
 8104370:	460d      	mov	r5, r1
 8104372:	4601      	mov	r1, r0
 8104374:	2002      	movs	r0, #2
 8104376:	4798      	blx	r3
 8104378:	2807      	cmp	r0, #7
 810437a:	d005      	beq.n	8104388 <__gnu_Unwind_Resume+0x28>
 810437c:	2808      	cmp	r0, #8
 810437e:	d10f      	bne.n	81043a0 <__gnu_Unwind_Resume+0x40>
 8104380:	4629      	mov	r1, r5
 8104382:	4620      	mov	r0, r4
 8104384:	f7ff ff2c 	bl	81041e0 <unwind_phase2>
 8104388:	4630      	mov	r0, r6
 810438a:	6c29      	ldr	r1, [r5, #64]	; 0x40
 810438c:	f7ff ff26 	bl	81041dc <_Unwind_DebugHook>
 8104390:	1d28      	adds	r0, r5, #4
 8104392:	f000 fb31 	bl	81049f8 <__restore_core_regs>
 8104396:	2201      	movs	r2, #1
 8104398:	f7ff ff40 	bl	810421c <unwind_phase2_forced>
 810439c:	f002 fadc 	bl	8106958 <abort>
 81043a0:	f002 fada 	bl	8106958 <abort>

081043a4 <__gnu_Unwind_Resume_or_Rethrow>:
 81043a4:	68c2      	ldr	r2, [r0, #12]
 81043a6:	b11a      	cbz	r2, 81043b0 <__gnu_Unwind_Resume_or_Rethrow+0xc>
 81043a8:	6bca      	ldr	r2, [r1, #60]	; 0x3c
 81043aa:	640a      	str	r2, [r1, #64]	; 0x40
 81043ac:	2200      	movs	r2, #0
 81043ae:	e735      	b.n	810421c <unwind_phase2_forced>
 81043b0:	e79c      	b.n	81042ec <__gnu_Unwind_RaiseException>
 81043b2:	bf00      	nop

081043b4 <_Unwind_Complete>:
 81043b4:	4770      	bx	lr
 81043b6:	bf00      	nop

081043b8 <_Unwind_DeleteException>:
 81043b8:	6883      	ldr	r3, [r0, #8]
 81043ba:	4601      	mov	r1, r0
 81043bc:	b10b      	cbz	r3, 81043c2 <_Unwind_DeleteException+0xa>
 81043be:	2001      	movs	r0, #1
 81043c0:	4718      	bx	r3
 81043c2:	4770      	bx	lr

081043c4 <_Unwind_VRS_Get>:
 81043c4:	2901      	cmp	r1, #1
 81043c6:	d012      	beq.n	81043ee <_Unwind_VRS_Get+0x2a>
 81043c8:	d809      	bhi.n	81043de <_Unwind_VRS_Get+0x1a>
 81043ca:	b973      	cbnz	r3, 81043ea <_Unwind_VRS_Get+0x26>
 81043cc:	2a0f      	cmp	r2, #15
 81043ce:	d80c      	bhi.n	81043ea <_Unwind_VRS_Get+0x26>
 81043d0:	eb00 0282 	add.w	r2, r0, r2, lsl #2
 81043d4:	4618      	mov	r0, r3
 81043d6:	6853      	ldr	r3, [r2, #4]
 81043d8:	9a00      	ldr	r2, [sp, #0]
 81043da:	6013      	str	r3, [r2, #0]
 81043dc:	4770      	bx	lr
 81043de:	3903      	subs	r1, #3
 81043e0:	2901      	cmp	r1, #1
 81043e2:	bf94      	ite	ls
 81043e4:	2001      	movls	r0, #1
 81043e6:	2002      	movhi	r0, #2
 81043e8:	4770      	bx	lr
 81043ea:	2002      	movs	r0, #2
 81043ec:	4770      	bx	lr
 81043ee:	4608      	mov	r0, r1
 81043f0:	4770      	bx	lr
 81043f2:	bf00      	nop

081043f4 <_Unwind_GetGR>:
 81043f4:	b510      	push	{r4, lr}
 81043f6:	b084      	sub	sp, #16
 81043f8:	2300      	movs	r3, #0
 81043fa:	ac03      	add	r4, sp, #12
 81043fc:	460a      	mov	r2, r1
 81043fe:	9400      	str	r4, [sp, #0]
 8104400:	4619      	mov	r1, r3
 8104402:	f7ff ffdf 	bl	81043c4 <_Unwind_VRS_Get>
 8104406:	9803      	ldr	r0, [sp, #12]
 8104408:	b004      	add	sp, #16
 810440a:	bd10      	pop	{r4, pc}

0810440c <_Unwind_VRS_Set>:
 810440c:	2901      	cmp	r1, #1
 810440e:	d012      	beq.n	8104436 <_Unwind_VRS_Set+0x2a>
 8104410:	d809      	bhi.n	8104426 <_Unwind_VRS_Set+0x1a>
 8104412:	b973      	cbnz	r3, 8104432 <_Unwind_VRS_Set+0x26>
 8104414:	2a0f      	cmp	r2, #15
 8104416:	d80c      	bhi.n	8104432 <_Unwind_VRS_Set+0x26>
 8104418:	eb00 0082 	add.w	r0, r0, r2, lsl #2
 810441c:	9a00      	ldr	r2, [sp, #0]
 810441e:	6812      	ldr	r2, [r2, #0]
 8104420:	6042      	str	r2, [r0, #4]
 8104422:	4618      	mov	r0, r3
 8104424:	4770      	bx	lr
 8104426:	3903      	subs	r1, #3
 8104428:	2901      	cmp	r1, #1
 810442a:	bf94      	ite	ls
 810442c:	2001      	movls	r0, #1
 810442e:	2002      	movhi	r0, #2
 8104430:	4770      	bx	lr
 8104432:	2002      	movs	r0, #2
 8104434:	4770      	bx	lr
 8104436:	4608      	mov	r0, r1
 8104438:	4770      	bx	lr
 810443a:	bf00      	nop

0810443c <_Unwind_SetGR>:
 810443c:	b510      	push	{r4, lr}
 810443e:	b084      	sub	sp, #16
 8104440:	2300      	movs	r3, #0
 8104442:	ac03      	add	r4, sp, #12
 8104444:	9203      	str	r2, [sp, #12]
 8104446:	9400      	str	r4, [sp, #0]
 8104448:	460a      	mov	r2, r1
 810444a:	4619      	mov	r1, r3
 810444c:	f7ff ffde 	bl	810440c <_Unwind_VRS_Set>
 8104450:	b004      	add	sp, #16
 8104452:	bd10      	pop	{r4, pc}

08104454 <__gnu_Unwind_Backtrace>:
 8104454:	b5f0      	push	{r4, r5, r6, r7, lr}
 8104456:	6bd3      	ldr	r3, [r2, #60]	; 0x3c
 8104458:	6413      	str	r3, [r2, #64]	; 0x40
 810445a:	1d15      	adds	r5, r2, #4
 810445c:	468c      	mov	ip, r1
 810445e:	4606      	mov	r6, r0
 8104460:	cd0f      	ldmia	r5!, {r0, r1, r2, r3}
 8104462:	f5ad 7d0f 	sub.w	sp, sp, #572	; 0x23c
 8104466:	ac17      	add	r4, sp, #92	; 0x5c
 8104468:	c40f      	stmia	r4!, {r0, r1, r2, r3}
 810446a:	cd0f      	ldmia	r5!, {r0, r1, r2, r3}
 810446c:	c40f      	stmia	r4!, {r0, r1, r2, r3}
 810446e:	cd0f      	ldmia	r5!, {r0, r1, r2, r3}
 8104470:	c40f      	stmia	r4!, {r0, r1, r2, r3}
 8104472:	e895 000f 	ldmia.w	r5, {r0, r1, r2, r3}
 8104476:	f04f 37ff 	mov.w	r7, #4294967295
 810447a:	e884 000f 	stmia.w	r4, {r0, r1, r2, r3}
 810447e:	4665      	mov	r5, ip
 8104480:	9716      	str	r7, [sp, #88]	; 0x58
 8104482:	e010      	b.n	81044a6 <__gnu_Unwind_Backtrace+0x52>
 8104484:	f7ff ffda 	bl	810443c <_Unwind_SetGR>
 8104488:	4629      	mov	r1, r5
 810448a:	a816      	add	r0, sp, #88	; 0x58
 810448c:	47b0      	blx	r6
 810448e:	4603      	mov	r3, r0
 8104490:	aa16      	add	r2, sp, #88	; 0x58
 8104492:	4669      	mov	r1, sp
 8104494:	2008      	movs	r0, #8
 8104496:	b983      	cbnz	r3, 81044ba <__gnu_Unwind_Backtrace+0x66>
 8104498:	9b04      	ldr	r3, [sp, #16]
 810449a:	4798      	blx	r3
 810449c:	2805      	cmp	r0, #5
 810449e:	4604      	mov	r4, r0
 81044a0:	d00c      	beq.n	81044bc <__gnu_Unwind_Backtrace+0x68>
 81044a2:	2809      	cmp	r0, #9
 81044a4:	d009      	beq.n	81044ba <__gnu_Unwind_Backtrace+0x66>
 81044a6:	9926      	ldr	r1, [sp, #152]	; 0x98
 81044a8:	4668      	mov	r0, sp
 81044aa:	f7ff fe15 	bl	81040d8 <get_eit_entry>
 81044ae:	4603      	mov	r3, r0
 81044b0:	466a      	mov	r2, sp
 81044b2:	210c      	movs	r1, #12
 81044b4:	a816      	add	r0, sp, #88	; 0x58
 81044b6:	2b00      	cmp	r3, #0
 81044b8:	d0e4      	beq.n	8104484 <__gnu_Unwind_Backtrace+0x30>
 81044ba:	2409      	movs	r4, #9
 81044bc:	a816      	add	r0, sp, #88	; 0x58
 81044be:	f7ff fe59 	bl	8104174 <restore_non_core_regs>
 81044c2:	4620      	mov	r0, r4
 81044c4:	f50d 7d0f 	add.w	sp, sp, #572	; 0x23c
 81044c8:	bdf0      	pop	{r4, r5, r6, r7, pc}
 81044ca:	bf00      	nop

081044cc <__gnu_unwind_pr_common>:
 81044cc:	e92d 4ff0 	stmdb	sp!, {r4, r5, r6, r7, r8, r9, sl, fp, lr}
 81044d0:	6ccc      	ldr	r4, [r1, #76]	; 0x4c
 81044d2:	b089      	sub	sp, #36	; 0x24
 81044d4:	460d      	mov	r5, r1
 81044d6:	f854 1b04 	ldr.w	r1, [r4], #4
 81044da:	9406      	str	r4, [sp, #24]
 81044dc:	4617      	mov	r7, r2
 81044de:	f000 0803 	and.w	r8, r0, #3
 81044e2:	461e      	mov	r6, r3
 81044e4:	2b00      	cmp	r3, #0
 81044e6:	d079      	beq.n	81045dc <__gnu_unwind_pr_common+0x110>
 81044e8:	0c0b      	lsrs	r3, r1, #16
 81044ea:	b2da      	uxtb	r2, r3
 81044ec:	0409      	lsls	r1, r1, #16
 81044ee:	f88d 301d 	strb.w	r3, [sp, #29]
 81044f2:	2302      	movs	r3, #2
 81044f4:	eb04 0482 	add.w	r4, r4, r2, lsl #2
 81044f8:	9105      	str	r1, [sp, #20]
 81044fa:	f88d 301c 	strb.w	r3, [sp, #28]
 81044fe:	6d2b      	ldr	r3, [r5, #80]	; 0x50
 8104500:	f1b8 0f02 	cmp.w	r8, #2
 8104504:	bf08      	it	eq
 8104506:	6bac      	ldreq	r4, [r5, #56]	; 0x38
 8104508:	f013 0301 	ands.w	r3, r3, #1
 810450c:	d00c      	beq.n	8104528 <__gnu_unwind_pr_common+0x5c>
 810450e:	4638      	mov	r0, r7
 8104510:	a905      	add	r1, sp, #20
 8104512:	f000 fb73 	bl	8104bfc <__gnu_unwind_execute>
 8104516:	b918      	cbnz	r0, 8104520 <__gnu_unwind_pr_common+0x54>
 8104518:	2008      	movs	r0, #8
 810451a:	b009      	add	sp, #36	; 0x24
 810451c:	e8bd 8ff0 	ldmia.w	sp!, {r4, r5, r6, r7, r8, r9, sl, fp, pc}
 8104520:	2009      	movs	r0, #9
 8104522:	b009      	add	sp, #36	; 0x24
 8104524:	e8bd 8ff0 	ldmia.w	sp!, {r4, r5, r6, r7, r8, r9, sl, fp, pc}
 8104528:	f8d4 a000 	ldr.w	sl, [r4]
 810452c:	f1ba 0f00 	cmp.w	sl, #0
 8104530:	d0ed      	beq.n	810450e <__gnu_unwind_pr_common+0x42>
 8104532:	9301      	str	r3, [sp, #4]
 8104534:	f000 0308 	and.w	r3, r0, #8
 8104538:	9302      	str	r3, [sp, #8]
 810453a:	2e02      	cmp	r6, #2
 810453c:	d04a      	beq.n	81045d4 <__gnu_unwind_pr_common+0x108>
 810453e:	f8b4 a000 	ldrh.w	sl, [r4]
 8104542:	f8b4 9002 	ldrh.w	r9, [r4, #2]
 8104546:	3404      	adds	r4, #4
 8104548:	6caa      	ldr	r2, [r5, #72]	; 0x48
 810454a:	f029 0b01 	bic.w	fp, r9, #1
 810454e:	210f      	movs	r1, #15
 8104550:	4638      	mov	r0, r7
 8104552:	4493      	add	fp, r2
 8104554:	f7ff ff4e 	bl	81043f4 <_Unwind_GetGR>
 8104558:	4583      	cmp	fp, r0
 810455a:	d839      	bhi.n	81045d0 <__gnu_unwind_pr_common+0x104>
 810455c:	f02a 0201 	bic.w	r2, sl, #1
 8104560:	445a      	add	r2, fp
 8104562:	4282      	cmp	r2, r0
 8104564:	bf94      	ite	ls
 8104566:	2000      	movls	r0, #0
 8104568:	2001      	movhi	r0, #1
 810456a:	ea4f 0349 	mov.w	r3, r9, lsl #1
 810456e:	f003 0302 	and.w	r3, r3, #2
 8104572:	f00a 0a01 	and.w	sl, sl, #1
 8104576:	ea43 030a 	orr.w	r3, r3, sl
 810457a:	2b01      	cmp	r3, #1
 810457c:	d049      	beq.n	8104612 <__gnu_unwind_pr_common+0x146>
 810457e:	2b02      	cmp	r3, #2
 8104580:	d032      	beq.n	81045e8 <__gnu_unwind_pr_common+0x11c>
 8104582:	2b00      	cmp	r3, #0
 8104584:	d1cc      	bne.n	8104520 <__gnu_unwind_pr_common+0x54>
 8104586:	f1b8 0f00 	cmp.w	r8, #0
 810458a:	d002      	beq.n	8104592 <__gnu_unwind_pr_common+0xc6>
 810458c:	2800      	cmp	r0, #0
 810458e:	f040 80cd 	bne.w	810472c <__gnu_unwind_pr_common+0x260>
 8104592:	3404      	adds	r4, #4
 8104594:	f8d4 a000 	ldr.w	sl, [r4]
 8104598:	f1ba 0f00 	cmp.w	sl, #0
 810459c:	d1cd      	bne.n	810453a <__gnu_unwind_pr_common+0x6e>
 810459e:	a905      	add	r1, sp, #20
 81045a0:	4638      	mov	r0, r7
 81045a2:	f000 fb2b 	bl	8104bfc <__gnu_unwind_execute>
 81045a6:	2800      	cmp	r0, #0
 81045a8:	d1ba      	bne.n	8104520 <__gnu_unwind_pr_common+0x54>
 81045aa:	9b01      	ldr	r3, [sp, #4]
 81045ac:	2b00      	cmp	r3, #0
 81045ae:	d0b3      	beq.n	8104518 <__gnu_unwind_pr_common+0x4c>
 81045b0:	210f      	movs	r1, #15
 81045b2:	4638      	mov	r0, r7
 81045b4:	f7ff ff1e 	bl	81043f4 <_Unwind_GetGR>
 81045b8:	210e      	movs	r1, #14
 81045ba:	4602      	mov	r2, r0
 81045bc:	4638      	mov	r0, r7
 81045be:	f7ff ff3d 	bl	810443c <_Unwind_SetGR>
 81045c2:	4638      	mov	r0, r7
 81045c4:	4a6a      	ldr	r2, [pc, #424]	; (8104770 <__gnu_unwind_pr_common+0x2a4>)
 81045c6:	210f      	movs	r1, #15
 81045c8:	f7ff ff38 	bl	810443c <_Unwind_SetGR>
 81045cc:	2007      	movs	r0, #7
 81045ce:	e7a8      	b.n	8104522 <__gnu_unwind_pr_common+0x56>
 81045d0:	2000      	movs	r0, #0
 81045d2:	e7ca      	b.n	810456a <__gnu_unwind_pr_common+0x9e>
 81045d4:	f8d4 9004 	ldr.w	r9, [r4, #4]
 81045d8:	3408      	adds	r4, #8
 81045da:	e7b5      	b.n	8104548 <__gnu_unwind_pr_common+0x7c>
 81045dc:	0209      	lsls	r1, r1, #8
 81045de:	2303      	movs	r3, #3
 81045e0:	9105      	str	r1, [sp, #20]
 81045e2:	f8ad 301c 	strh.w	r3, [sp, #28]
 81045e6:	e78a      	b.n	81044fe <__gnu_unwind_pr_common+0x32>
 81045e8:	6823      	ldr	r3, [r4, #0]
 81045ea:	f023 4b00 	bic.w	fp, r3, #2147483648	; 0x80000000
 81045ee:	f1b8 0f00 	cmp.w	r8, #0
 81045f2:	d145      	bne.n	8104680 <__gnu_unwind_pr_common+0x1b4>
 81045f4:	b128      	cbz	r0, 8104602 <__gnu_unwind_pr_common+0x136>
 81045f6:	9a02      	ldr	r2, [sp, #8]
 81045f8:	2a00      	cmp	r2, #0
 81045fa:	d05c      	beq.n	81046b6 <__gnu_unwind_pr_common+0x1ea>
 81045fc:	f1bb 0f00 	cmp.w	fp, #0
 8104600:	d074      	beq.n	81046ec <__gnu_unwind_pr_common+0x220>
 8104602:	2b00      	cmp	r3, #0
 8104604:	da00      	bge.n	8104608 <__gnu_unwind_pr_common+0x13c>
 8104606:	3404      	adds	r4, #4
 8104608:	f10b 0b01 	add.w	fp, fp, #1
 810460c:	eb04 048b 	add.w	r4, r4, fp, lsl #2
 8104610:	e7c0      	b.n	8104594 <__gnu_unwind_pr_common+0xc8>
 8104612:	f1b8 0f00 	cmp.w	r8, #0
 8104616:	d119      	bne.n	810464c <__gnu_unwind_pr_common+0x180>
 8104618:	b1b0      	cbz	r0, 8104648 <__gnu_unwind_pr_common+0x17c>
 810461a:	e9d4 2300 	ldrd	r2, r3, [r4]
 810461e:	1c99      	adds	r1, r3, #2
 8104620:	ea4f 72d2 	mov.w	r2, r2, lsr #31
 8104624:	f43f af7c 	beq.w	8104520 <__gnu_unwind_pr_common+0x54>
 8104628:	f105 0158 	add.w	r1, r5, #88	; 0x58
 810462c:	3301      	adds	r3, #1
 810462e:	9104      	str	r1, [sp, #16]
 8104630:	f000 8090 	beq.w	8104754 <__gnu_unwind_pr_common+0x288>
 8104634:	1d20      	adds	r0, r4, #4
 8104636:	f7ff fdc9 	bl	81041cc <_Unwind_decode_typeinfo_ptr.isra.0>
 810463a:	ab04      	add	r3, sp, #16
 810463c:	4601      	mov	r1, r0
 810463e:	4628      	mov	r0, r5
 8104640:	f3af 8000 	nop.w
 8104644:	2800      	cmp	r0, #0
 8104646:	d15b      	bne.n	8104700 <__gnu_unwind_pr_common+0x234>
 8104648:	3408      	adds	r4, #8
 810464a:	e7a3      	b.n	8104594 <__gnu_unwind_pr_common+0xc8>
 810464c:	210d      	movs	r1, #13
 810464e:	4638      	mov	r0, r7
 8104650:	f8d5 9020 	ldr.w	r9, [r5, #32]
 8104654:	f7ff fece 	bl	81043f4 <_Unwind_GetGR>
 8104658:	4581      	cmp	r9, r0
 810465a:	d1f5      	bne.n	8104648 <__gnu_unwind_pr_common+0x17c>
 810465c:	6aab      	ldr	r3, [r5, #40]	; 0x28
 810465e:	429c      	cmp	r4, r3
 8104660:	d1f2      	bne.n	8104648 <__gnu_unwind_pr_common+0x17c>
 8104662:	4620      	mov	r0, r4
 8104664:	f7ff fcec 	bl	8104040 <selfrel_offset31>
 8104668:	210f      	movs	r1, #15
 810466a:	4602      	mov	r2, r0
 810466c:	4638      	mov	r0, r7
 810466e:	f7ff fee5 	bl	810443c <_Unwind_SetGR>
 8104672:	4638      	mov	r0, r7
 8104674:	462a      	mov	r2, r5
 8104676:	2100      	movs	r1, #0
 8104678:	f7ff fee0 	bl	810443c <_Unwind_SetGR>
 810467c:	2007      	movs	r0, #7
 810467e:	e750      	b.n	8104522 <__gnu_unwind_pr_common+0x56>
 8104680:	210d      	movs	r1, #13
 8104682:	4638      	mov	r0, r7
 8104684:	f8d5 9020 	ldr.w	r9, [r5, #32]
 8104688:	f7ff feb4 	bl	81043f4 <_Unwind_GetGR>
 810468c:	4581      	cmp	r9, r0
 810468e:	d001      	beq.n	8104694 <__gnu_unwind_pr_common+0x1c8>
 8104690:	6823      	ldr	r3, [r4, #0]
 8104692:	e7b6      	b.n	8104602 <__gnu_unwind_pr_common+0x136>
 8104694:	6aab      	ldr	r3, [r5, #40]	; 0x28
 8104696:	429c      	cmp	r4, r3
 8104698:	d1fa      	bne.n	8104690 <__gnu_unwind_pr_common+0x1c4>
 810469a:	2204      	movs	r2, #4
 810469c:	2100      	movs	r1, #0
 810469e:	e9c5 120b 	strd	r1, r2, [r5, #44]	; 0x2c
 81046a2:	18a3      	adds	r3, r4, r2
 81046a4:	f8c5 b028 	str.w	fp, [r5, #40]	; 0x28
 81046a8:	636b      	str	r3, [r5, #52]	; 0x34
 81046aa:	6823      	ldr	r3, [r4, #0]
 81046ac:	428b      	cmp	r3, r1
 81046ae:	db59      	blt.n	8104764 <__gnu_unwind_pr_common+0x298>
 81046b0:	2301      	movs	r3, #1
 81046b2:	9301      	str	r3, [sp, #4]
 81046b4:	e7a8      	b.n	8104608 <__gnu_unwind_pr_common+0x13c>
 81046b6:	f105 0358 	add.w	r3, r5, #88	; 0x58
 81046ba:	f8cd 800c 	str.w	r8, [sp, #12]
 81046be:	f104 0a04 	add.w	sl, r4, #4
 81046c2:	46b0      	mov	r8, r6
 81046c4:	4691      	mov	r9, r2
 81046c6:	461e      	mov	r6, r3
 81046c8:	e00d      	b.n	81046e6 <__gnu_unwind_pr_common+0x21a>
 81046ca:	9604      	str	r6, [sp, #16]
 81046cc:	f7ff fd7e 	bl	81041cc <_Unwind_decode_typeinfo_ptr.isra.0>
 81046d0:	ab04      	add	r3, sp, #16
 81046d2:	4601      	mov	r1, r0
 81046d4:	2200      	movs	r2, #0
 81046d6:	4628      	mov	r0, r5
 81046d8:	f3af 8000 	nop.w
 81046dc:	f109 0901 	add.w	r9, r9, #1
 81046e0:	f10a 0a04 	add.w	sl, sl, #4
 81046e4:	b9e8      	cbnz	r0, 8104722 <__gnu_unwind_pr_common+0x256>
 81046e6:	45d9      	cmp	r9, fp
 81046e8:	4650      	mov	r0, sl
 81046ea:	d1ee      	bne.n	81046ca <__gnu_unwind_pr_common+0x1fe>
 81046ec:	4638      	mov	r0, r7
 81046ee:	210d      	movs	r1, #13
 81046f0:	f7ff fe80 	bl	81043f4 <_Unwind_GetGR>
 81046f4:	9b04      	ldr	r3, [sp, #16]
 81046f6:	6228      	str	r0, [r5, #32]
 81046f8:	e9c5 3409 	strd	r3, r4, [r5, #36]	; 0x24
 81046fc:	2006      	movs	r0, #6
 81046fe:	e710      	b.n	8104522 <__gnu_unwind_pr_common+0x56>
 8104700:	4681      	mov	r9, r0
 8104702:	210d      	movs	r1, #13
 8104704:	4638      	mov	r0, r7
 8104706:	f7ff fe75 	bl	81043f4 <_Unwind_GetGR>
 810470a:	f1b9 0f02 	cmp.w	r9, #2
 810470e:	6228      	str	r0, [r5, #32]
 8104710:	d125      	bne.n	810475e <__gnu_unwind_pr_common+0x292>
 8104712:	462b      	mov	r3, r5
 8104714:	9a04      	ldr	r2, [sp, #16]
 8104716:	f843 2f2c 	str.w	r2, [r3, #44]!
 810471a:	626b      	str	r3, [r5, #36]	; 0x24
 810471c:	62ac      	str	r4, [r5, #40]	; 0x28
 810471e:	2006      	movs	r0, #6
 8104720:	e6ff      	b.n	8104522 <__gnu_unwind_pr_common+0x56>
 8104722:	4646      	mov	r6, r8
 8104724:	6823      	ldr	r3, [r4, #0]
 8104726:	f8dd 800c 	ldr.w	r8, [sp, #12]
 810472a:	e76a      	b.n	8104602 <__gnu_unwind_pr_common+0x136>
 810472c:	4620      	mov	r0, r4
 810472e:	f7ff fc87 	bl	8104040 <selfrel_offset31>
 8104732:	3404      	adds	r4, #4
 8104734:	4602      	mov	r2, r0
 8104736:	63ac      	str	r4, [r5, #56]	; 0x38
 8104738:	4628      	mov	r0, r5
 810473a:	4614      	mov	r4, r2
 810473c:	f3af 8000 	nop.w
 8104740:	2800      	cmp	r0, #0
 8104742:	f43f aeed 	beq.w	8104520 <__gnu_unwind_pr_common+0x54>
 8104746:	4638      	mov	r0, r7
 8104748:	4622      	mov	r2, r4
 810474a:	210f      	movs	r1, #15
 810474c:	f7ff fe76 	bl	810443c <_Unwind_SetGR>
 8104750:	2007      	movs	r0, #7
 8104752:	e6e6      	b.n	8104522 <__gnu_unwind_pr_common+0x56>
 8104754:	4638      	mov	r0, r7
 8104756:	210d      	movs	r1, #13
 8104758:	f7ff fe4c 	bl	81043f4 <_Unwind_GetGR>
 810475c:	6228      	str	r0, [r5, #32]
 810475e:	9b04      	ldr	r3, [sp, #16]
 8104760:	626b      	str	r3, [r5, #36]	; 0x24
 8104762:	e7db      	b.n	810471c <__gnu_unwind_pr_common+0x250>
 8104764:	f10b 0001 	add.w	r0, fp, #1
 8104768:	eb04 0080 	add.w	r0, r4, r0, lsl #2
 810476c:	e77a      	b.n	8104664 <__gnu_unwind_pr_common+0x198>
 810476e:	bf00      	nop
 8104770:	00000000 	.word	0x00000000

08104774 <__aeabi_unwind_cpp_pr0>:
 8104774:	2300      	movs	r3, #0
 8104776:	e6a9      	b.n	81044cc <__gnu_unwind_pr_common>

08104778 <__aeabi_unwind_cpp_pr1>:
 8104778:	2301      	movs	r3, #1
 810477a:	e6a7      	b.n	81044cc <__gnu_unwind_pr_common>

0810477c <__aeabi_unwind_cpp_pr2>:
 810477c:	2302      	movs	r3, #2
 810477e:	e6a5      	b.n	81044cc <__gnu_unwind_pr_common>

08104780 <_Unwind_VRS_Pop>:
 8104780:	e92d 43f0 	stmdb	sp!, {r4, r5, r6, r7, r8, r9, lr}
 8104784:	4606      	mov	r6, r0
 8104786:	b0c3      	sub	sp, #268	; 0x10c
 8104788:	4615      	mov	r5, r2
 810478a:	461c      	mov	r4, r3
 810478c:	2904      	cmp	r1, #4
 810478e:	f200 80b9 	bhi.w	8104904 <_Unwind_VRS_Pop+0x184>
 8104792:	e8df f001 	tbb	[pc, r1]
 8104796:	539a      	.short	0x539a
 8104798:	29b7      	.short	0x29b7
 810479a:	03          	.byte	0x03
 810479b:	00          	.byte	0x00
 810479c:	2c00      	cmp	r4, #0
 810479e:	f040 80b1 	bne.w	8104904 <_Unwind_VRS_Pop+0x184>
 81047a2:	2a10      	cmp	r2, #16
 81047a4:	f200 80ae 	bhi.w	8104904 <_Unwind_VRS_Pop+0x184>
 81047a8:	6803      	ldr	r3, [r0, #0]
 81047aa:	06d8      	lsls	r0, r3, #27
 81047ac:	f100 80f3 	bmi.w	8104996 <_Unwind_VRS_Pop+0x216>
 81047b0:	af20      	add	r7, sp, #128	; 0x80
 81047b2:	4638      	mov	r0, r7
 81047b4:	f000 f992 	bl	8104adc <__gnu_Unwind_Save_WMMXC>
 81047b8:	6bb0      	ldr	r0, [r6, #56]	; 0x38
 81047ba:	2300      	movs	r3, #0
 81047bc:	2401      	movs	r4, #1
 81047be:	fa04 f203 	lsl.w	r2, r4, r3
 81047c2:	422a      	tst	r2, r5
 81047c4:	4601      	mov	r1, r0
 81047c6:	d004      	beq.n	81047d2 <_Unwind_VRS_Pop+0x52>
 81047c8:	f851 2b04 	ldr.w	r2, [r1], #4
 81047cc:	f847 2023 	str.w	r2, [r7, r3, lsl #2]
 81047d0:	4608      	mov	r0, r1
 81047d2:	3301      	adds	r3, #1
 81047d4:	2b04      	cmp	r3, #4
 81047d6:	d1f2      	bne.n	81047be <_Unwind_VRS_Pop+0x3e>
 81047d8:	63b0      	str	r0, [r6, #56]	; 0x38
 81047da:	4638      	mov	r0, r7
 81047dc:	f000 f974 	bl	8104ac8 <__gnu_Unwind_Restore_WMMXC>
 81047e0:	2000      	movs	r0, #0
 81047e2:	b043      	add	sp, #268	; 0x10c
 81047e4:	e8bd 83f0 	ldmia.w	sp!, {r4, r5, r6, r7, r8, r9, pc}
 81047e8:	2c03      	cmp	r4, #3
 81047ea:	f040 808b 	bne.w	8104904 <_Unwind_VRS_Pop+0x184>
 81047ee:	b294      	uxth	r4, r2
 81047f0:	eb04 4312 	add.w	r3, r4, r2, lsr #16
 81047f4:	2b10      	cmp	r3, #16
 81047f6:	ea4f 4512 	mov.w	r5, r2, lsr #16
 81047fa:	f200 8083 	bhi.w	8104904 <_Unwind_VRS_Pop+0x184>
 81047fe:	6803      	ldr	r3, [r0, #0]
 8104800:	071f      	lsls	r7, r3, #28
 8104802:	f100 80d0 	bmi.w	81049a6 <_Unwind_VRS_Pop+0x226>
 8104806:	af20      	add	r7, sp, #128	; 0x80
 8104808:	4638      	mov	r0, r7
 810480a:	f000 f93b 	bl	8104a84 <__gnu_Unwind_Save_WMMXD>
 810480e:	eb07 01c5 	add.w	r1, r7, r5, lsl #3
 8104812:	6bb5      	ldr	r5, [r6, #56]	; 0x38
 8104814:	b154      	cbz	r4, 810482c <_Unwind_VRS_Pop+0xac>
 8104816:	460b      	mov	r3, r1
 8104818:	1ae8      	subs	r0, r5, r3
 810481a:	eb01 01c4 	add.w	r1, r1, r4, lsl #3
 810481e:	00e4      	lsls	r4, r4, #3
 8104820:	581a      	ldr	r2, [r3, r0]
 8104822:	f843 2b04 	str.w	r2, [r3], #4
 8104826:	428b      	cmp	r3, r1
 8104828:	d1fa      	bne.n	8104820 <_Unwind_VRS_Pop+0xa0>
 810482a:	4425      	add	r5, r4
 810482c:	4638      	mov	r0, r7
 810482e:	63b5      	str	r5, [r6, #56]	; 0x38
 8104830:	f000 f906 	bl	8104a40 <__gnu_Unwind_Restore_WMMXD>
 8104834:	2000      	movs	r0, #0
 8104836:	b043      	add	sp, #268	; 0x10c
 8104838:	e8bd 83f0 	ldmia.w	sp!, {r4, r5, r6, r7, r8, r9, pc}
 810483c:	2c01      	cmp	r4, #1
 810483e:	ea4f 4812 	mov.w	r8, r2, lsr #16
 8104842:	b295      	uxth	r5, r2
 8104844:	d05a      	beq.n	81048fc <_Unwind_VRS_Pop+0x17c>
 8104846:	2c05      	cmp	r4, #5
 8104848:	d15c      	bne.n	8104904 <_Unwind_VRS_Pop+0x184>
 810484a:	eb08 0905 	add.w	r9, r8, r5
 810484e:	f1b9 0f20 	cmp.w	r9, #32
 8104852:	d857      	bhi.n	8104904 <_Unwind_VRS_Pop+0x184>
 8104854:	f1b8 0f0f 	cmp.w	r8, #15
 8104858:	d977      	bls.n	810494a <_Unwind_VRS_Pop+0x1ca>
 810485a:	46a9      	mov	r9, r5
 810485c:	2d00      	cmp	r5, #0
 810485e:	f040 8088 	bne.w	8104972 <_Unwind_VRS_Pop+0x1f2>
 8104862:	6bb3      	ldr	r3, [r6, #56]	; 0x38
 8104864:	b36d      	cbz	r5, 81048c2 <_Unwind_VRS_Pop+0x142>
 8104866:	af20      	add	r7, sp, #128	; 0x80
 8104868:	f04f 0900 	mov.w	r9, #0
 810486c:	eb07 07c8 	add.w	r7, r7, r8, lsl #3
 8104870:	3f04      	subs	r7, #4
 8104872:	eb03 05c5 	add.w	r5, r3, r5, lsl #3
 8104876:	f853 1b04 	ldr.w	r1, [r3], #4
 810487a:	f847 1f04 	str.w	r1, [r7, #4]!
 810487e:	42ab      	cmp	r3, r5
 8104880:	d1f9      	bne.n	8104876 <_Unwind_VRS_Pop+0xf6>
 8104882:	f1b9 0f00 	cmp.w	r9, #0
 8104886:	d00f      	beq.n	81048a8 <_Unwind_VRS_Pop+0x128>
 8104888:	466f      	mov	r7, sp
 810488a:	4641      	mov	r1, r8
 810488c:	2910      	cmp	r1, #16
 810488e:	bf38      	it	cc
 8104890:	2110      	movcc	r1, #16
 8104892:	eb07 01c1 	add.w	r1, r7, r1, lsl #3
 8104896:	3984      	subs	r1, #132	; 0x84
 8104898:	eb03 05c9 	add.w	r5, r3, r9, lsl #3
 810489c:	f853 0b04 	ldr.w	r0, [r3], #4
 81048a0:	f841 0f04 	str.w	r0, [r1, #4]!
 81048a4:	42ab      	cmp	r3, r5
 81048a6:	d1f9      	bne.n	810489c <_Unwind_VRS_Pop+0x11c>
 81048a8:	2c01      	cmp	r4, #1
 81048aa:	f000 8084 	beq.w	81049b6 <_Unwind_VRS_Pop+0x236>
 81048ae:	f1b8 0f0f 	cmp.w	r8, #15
 81048b2:	63b5      	str	r5, [r6, #56]	; 0x38
 81048b4:	d945      	bls.n	8104942 <_Unwind_VRS_Pop+0x1c2>
 81048b6:	f1b9 0f00 	cmp.w	r9, #0
 81048ba:	d002      	beq.n	81048c2 <_Unwind_VRS_Pop+0x142>
 81048bc:	4668      	mov	r0, sp
 81048be:	f000 f8b7 	bl	8104a30 <__gnu_Unwind_Restore_VFP_D_16_to_31>
 81048c2:	2000      	movs	r0, #0
 81048c4:	b043      	add	sp, #268	; 0x10c
 81048c6:	e8bd 83f0 	ldmia.w	sp!, {r4, r5, r6, r7, r8, r9, pc}
 81048ca:	b9dc      	cbnz	r4, 8104904 <_Unwind_VRS_Pop+0x184>
 81048cc:	6b87      	ldr	r7, [r0, #56]	; 0x38
 81048ce:	4623      	mov	r3, r4
 81048d0:	2001      	movs	r0, #1
 81048d2:	b294      	uxth	r4, r2
 81048d4:	f106 0c04 	add.w	ip, r6, #4
 81048d8:	fa00 f203 	lsl.w	r2, r0, r3
 81048dc:	4222      	tst	r2, r4
 81048de:	4639      	mov	r1, r7
 81048e0:	d004      	beq.n	81048ec <_Unwind_VRS_Pop+0x16c>
 81048e2:	f851 2b04 	ldr.w	r2, [r1], #4
 81048e6:	f84c 2023 	str.w	r2, [ip, r3, lsl #2]
 81048ea:	460f      	mov	r7, r1
 81048ec:	3301      	adds	r3, #1
 81048ee:	2b10      	cmp	r3, #16
 81048f0:	d1f2      	bne.n	81048d8 <_Unwind_VRS_Pop+0x158>
 81048f2:	f415 5000 	ands.w	r0, r5, #8192	; 0x2000
 81048f6:	d1e4      	bne.n	81048c2 <_Unwind_VRS_Pop+0x142>
 81048f8:	63b7      	str	r7, [r6, #56]	; 0x38
 81048fa:	e004      	b.n	8104906 <_Unwind_VRS_Pop+0x186>
 81048fc:	eb08 0305 	add.w	r3, r8, r5
 8104900:	2b10      	cmp	r3, #16
 8104902:	d903      	bls.n	810490c <_Unwind_VRS_Pop+0x18c>
 8104904:	2002      	movs	r0, #2
 8104906:	b043      	add	sp, #268	; 0x10c
 8104908:	e8bd 83f0 	ldmia.w	sp!, {r4, r5, r6, r7, r8, r9, pc}
 810490c:	f1b8 0f0f 	cmp.w	r8, #15
 8104910:	d8f8      	bhi.n	8104904 <_Unwind_VRS_Pop+0x184>
 8104912:	6833      	ldr	r3, [r6, #0]
 8104914:	07da      	lsls	r2, r3, #31
 8104916:	d506      	bpl.n	8104926 <_Unwind_VRS_Pop+0x1a6>
 8104918:	4630      	mov	r0, r6
 810491a:	f023 0303 	bic.w	r3, r3, #3
 810491e:	f840 3b48 	str.w	r3, [r0], #72
 8104922:	f000 f879 	bl	8104a18 <__gnu_Unwind_Save_VFP>
 8104926:	af20      	add	r7, sp, #128	; 0x80
 8104928:	4638      	mov	r0, r7
 810492a:	f000 f875 	bl	8104a18 <__gnu_Unwind_Save_VFP>
 810492e:	6bb3      	ldr	r3, [r6, #56]	; 0x38
 8104930:	2d00      	cmp	r5, #0
 8104932:	d199      	bne.n	8104868 <_Unwind_VRS_Pop+0xe8>
 8104934:	461d      	mov	r5, r3
 8104936:	3504      	adds	r5, #4
 8104938:	63b5      	str	r5, [r6, #56]	; 0x38
 810493a:	4638      	mov	r0, r7
 810493c:	f000 f868 	bl	8104a10 <__gnu_Unwind_Restore_VFP>
 8104940:	e7bf      	b.n	81048c2 <_Unwind_VRS_Pop+0x142>
 8104942:	a820      	add	r0, sp, #128	; 0x80
 8104944:	f000 f86c 	bl	8104a20 <__gnu_Unwind_Restore_VFP_D>
 8104948:	e7b5      	b.n	81048b6 <_Unwind_VRS_Pop+0x136>
 810494a:	f1b9 0f10 	cmp.w	r9, #16
 810494e:	d940      	bls.n	81049d2 <_Unwind_VRS_Pop+0x252>
 8104950:	f1a9 0910 	sub.w	r9, r9, #16
 8104954:	6833      	ldr	r3, [r6, #0]
 8104956:	07d9      	lsls	r1, r3, #31
 8104958:	d508      	bpl.n	810496c <_Unwind_VRS_Pop+0x1ec>
 810495a:	f023 0301 	bic.w	r3, r3, #1
 810495e:	4630      	mov	r0, r6
 8104960:	f043 0302 	orr.w	r3, r3, #2
 8104964:	f840 3b48 	str.w	r3, [r0], #72
 8104968:	f000 f85e 	bl	8104a28 <__gnu_Unwind_Save_VFP_D>
 810496c:	f1b9 0f00 	cmp.w	r9, #0
 8104970:	d032      	beq.n	81049d8 <_Unwind_VRS_Pop+0x258>
 8104972:	6833      	ldr	r3, [r6, #0]
 8104974:	075a      	lsls	r2, r3, #29
 8104976:	d420      	bmi.n	81049ba <_Unwind_VRS_Pop+0x23a>
 8104978:	f1b8 0f0f 	cmp.w	r8, #15
 810497c:	d925      	bls.n	81049ca <_Unwind_VRS_Pop+0x24a>
 810497e:	466f      	mov	r7, sp
 8104980:	4638      	mov	r0, r7
 8104982:	f1c8 0510 	rsb	r5, r8, #16
 8104986:	f000 f857 	bl	8104a38 <__gnu_Unwind_Save_VFP_D_16_to_31>
 810498a:	2d00      	cmp	r5, #0
 810498c:	6bb3      	ldr	r3, [r6, #56]	; 0x38
 810498e:	f77f af7c 	ble.w	810488a <_Unwind_VRS_Pop+0x10a>
 8104992:	af20      	add	r7, sp, #128	; 0x80
 8104994:	e76a      	b.n	810486c <_Unwind_VRS_Pop+0xec>
 8104996:	f023 0310 	bic.w	r3, r3, #16
 810499a:	6033      	str	r3, [r6, #0]
 810499c:	f506 70e8 	add.w	r0, r6, #464	; 0x1d0
 81049a0:	f000 f89c 	bl	8104adc <__gnu_Unwind_Save_WMMXC>
 81049a4:	e704      	b.n	81047b0 <_Unwind_VRS_Pop+0x30>
 81049a6:	f023 0308 	bic.w	r3, r3, #8
 81049aa:	6003      	str	r3, [r0, #0]
 81049ac:	f500 70a8 	add.w	r0, r0, #336	; 0x150
 81049b0:	f000 f868 	bl	8104a84 <__gnu_Unwind_Save_WMMXD>
 81049b4:	e727      	b.n	8104806 <_Unwind_VRS_Pop+0x86>
 81049b6:	af20      	add	r7, sp, #128	; 0x80
 81049b8:	e7bd      	b.n	8104936 <_Unwind_VRS_Pop+0x1b6>
 81049ba:	4630      	mov	r0, r6
 81049bc:	f023 0304 	bic.w	r3, r3, #4
 81049c0:	f840 3bd0 	str.w	r3, [r0], #208
 81049c4:	f000 f838 	bl	8104a38 <__gnu_Unwind_Save_VFP_D_16_to_31>
 81049c8:	e7d6      	b.n	8104978 <_Unwind_VRS_Pop+0x1f8>
 81049ca:	a820      	add	r0, sp, #128	; 0x80
 81049cc:	f000 f82c 	bl	8104a28 <__gnu_Unwind_Save_VFP_D>
 81049d0:	e7d5      	b.n	810497e <_Unwind_VRS_Pop+0x1fe>
 81049d2:	f04f 0900 	mov.w	r9, #0
 81049d6:	e7bd      	b.n	8104954 <_Unwind_VRS_Pop+0x1d4>
 81049d8:	f1b8 0f0f 	cmp.w	r8, #15
 81049dc:	f63f af41 	bhi.w	8104862 <_Unwind_VRS_Pop+0xe2>
 81049e0:	af20      	add	r7, sp, #128	; 0x80
 81049e2:	4638      	mov	r0, r7
 81049e4:	f000 f820 	bl	8104a28 <__gnu_Unwind_Save_VFP_D>
 81049e8:	6bb3      	ldr	r3, [r6, #56]	; 0x38
 81049ea:	2d00      	cmp	r5, #0
 81049ec:	f47f af3c 	bne.w	8104868 <_Unwind_VRS_Pop+0xe8>
 81049f0:	4638      	mov	r0, r7
 81049f2:	f000 f815 	bl	8104a20 <__gnu_Unwind_Restore_VFP_D>
 81049f6:	e764      	b.n	81048c2 <_Unwind_VRS_Pop+0x142>

081049f8 <__restore_core_regs>:
 81049f8:	f100 0134 	add.w	r1, r0, #52	; 0x34
 81049fc:	e891 0038 	ldmia.w	r1, {r3, r4, r5}
 8104a00:	469c      	mov	ip, r3
 8104a02:	46a6      	mov	lr, r4
 8104a04:	f84c 5d04 	str.w	r5, [ip, #-4]!
 8104a08:	e890 0fff 	ldmia.w	r0, {r0, r1, r2, r3, r4, r5, r6, r7, r8, r9, sl, fp}
 8104a0c:	46e5      	mov	sp, ip
 8104a0e:	bd00      	pop	{pc}

08104a10 <__gnu_Unwind_Restore_VFP>:
 8104a10:	ec90 0b21 	fldmiax	r0, {d0-d15}	;@ Deprecated
 8104a14:	4770      	bx	lr
 8104a16:	bf00      	nop

08104a18 <__gnu_Unwind_Save_VFP>:
 8104a18:	ec80 0b21 	fstmiax	r0, {d0-d15}	;@ Deprecated
 8104a1c:	4770      	bx	lr
 8104a1e:	bf00      	nop

08104a20 <__gnu_Unwind_Restore_VFP_D>:
 8104a20:	ec90 0b20 	vldmia	r0, {d0-d15}
 8104a24:	4770      	bx	lr
 8104a26:	bf00      	nop

08104a28 <__gnu_Unwind_Save_VFP_D>:
 8104a28:	ec80 0b20 	vstmia	r0, {d0-d15}
 8104a2c:	4770      	bx	lr
 8104a2e:	bf00      	nop

08104a30 <__gnu_Unwind_Restore_VFP_D_16_to_31>:
 8104a30:	ecd0 0b20 	vldmia	r0, {d16-d31}
 8104a34:	4770      	bx	lr
 8104a36:	bf00      	nop

08104a38 <__gnu_Unwind_Save_VFP_D_16_to_31>:
 8104a38:	ecc0 0b20 	vstmia	r0, {d16-d31}
 8104a3c:	4770      	bx	lr
 8104a3e:	bf00      	nop

08104a40 <__gnu_Unwind_Restore_WMMXD>:
 8104a40:	ecf0 0102 	ldfe	f0, [r0], #8
 8104a44:	ecf0 1102 	ldfe	f1, [r0], #8
 8104a48:	ecf0 2102 	ldfe	f2, [r0], #8
 8104a4c:	ecf0 3102 	ldfe	f3, [r0], #8
 8104a50:	ecf0 4102 	ldfe	f4, [r0], #8
 8104a54:	ecf0 5102 	ldfe	f5, [r0], #8
 8104a58:	ecf0 6102 	ldfe	f6, [r0], #8
 8104a5c:	ecf0 7102 	ldfe	f7, [r0], #8
 8104a60:	ecf0 8102 	ldfp	f0, [r0], #8
 8104a64:	ecf0 9102 	ldfp	f1, [r0], #8
 8104a68:	ecf0 a102 	ldfp	f2, [r0], #8
 8104a6c:	ecf0 b102 	ldfp	f3, [r0], #8
 8104a70:	ecf0 c102 	ldfp	f4, [r0], #8
 8104a74:	ecf0 d102 	ldfp	f5, [r0], #8
 8104a78:	ecf0 e102 	ldfp	f6, [r0], #8
 8104a7c:	ecf0 f102 	ldfp	f7, [r0], #8
 8104a80:	4770      	bx	lr
 8104a82:	bf00      	nop

08104a84 <__gnu_Unwind_Save_WMMXD>:
 8104a84:	ece0 0102 	stfe	f0, [r0], #8
 8104a88:	ece0 1102 	stfe	f1, [r0], #8
 8104a8c:	ece0 2102 	stfe	f2, [r0], #8
 8104a90:	ece0 3102 	stfe	f3, [r0], #8
 8104a94:	ece0 4102 	stfe	f4, [r0], #8
 8104a98:	ece0 5102 	stfe	f5, [r0], #8
 8104a9c:	ece0 6102 	stfe	f6, [r0], #8
 8104aa0:	ece0 7102 	stfe	f7, [r0], #8
 8104aa4:	ece0 8102 	stfp	f0, [r0], #8
 8104aa8:	ece0 9102 	stfp	f1, [r0], #8
 8104aac:	ece0 a102 	stfp	f2, [r0], #8
 8104ab0:	ece0 b102 	stfp	f3, [r0], #8
 8104ab4:	ece0 c102 	stfp	f4, [r0], #8
 8104ab8:	ece0 d102 	stfp	f5, [r0], #8
 8104abc:	ece0 e102 	stfp	f6, [r0], #8
 8104ac0:	ece0 f102 	stfp	f7, [r0], #8
 8104ac4:	4770      	bx	lr
 8104ac6:	bf00      	nop

08104ac8 <__gnu_Unwind_Restore_WMMXC>:
 8104ac8:	fcb0 8101 	ldc2	1, cr8, [r0], #4
 8104acc:	fcb0 9101 	ldc2	1, cr9, [r0], #4
 8104ad0:	fcb0 a101 	ldc2	1, cr10, [r0], #4
 8104ad4:	fcb0 b101 	ldc2	1, cr11, [r0], #4
 8104ad8:	4770      	bx	lr
 8104ada:	bf00      	nop

08104adc <__gnu_Unwind_Save_WMMXC>:
 8104adc:	fca0 8101 	stc2	1, cr8, [r0], #4
 8104ae0:	fca0 9101 	stc2	1, cr9, [r0], #4
 8104ae4:	fca0 a101 	stc2	1, cr10, [r0], #4
 8104ae8:	fca0 b101 	stc2	1, cr11, [r0], #4
 8104aec:	4770      	bx	lr
 8104aee:	bf00      	nop

08104af0 <_Unwind_RaiseException>:
 8104af0:	46ec      	mov	ip, sp
 8104af2:	b500      	push	{lr}
 8104af4:	e92d 5000 	stmdb	sp!, {ip, lr}
 8104af8:	e92d 1fff 	stmdb	sp!, {r0, r1, r2, r3, r4, r5, r6, r7, r8, r9, sl, fp, ip}
 8104afc:	f04f 0300 	mov.w	r3, #0
 8104b00:	e92d 000c 	stmdb	sp!, {r2, r3}
 8104b04:	a901      	add	r1, sp, #4
 8104b06:	f7ff fbf1 	bl	81042ec <__gnu_Unwind_RaiseException>
 8104b0a:	f8dd e040 	ldr.w	lr, [sp, #64]	; 0x40
 8104b0e:	b012      	add	sp, #72	; 0x48
 8104b10:	4770      	bx	lr
 8104b12:	bf00      	nop

08104b14 <_Unwind_Resume>:
 8104b14:	46ec      	mov	ip, sp
 8104b16:	b500      	push	{lr}
 8104b18:	e92d 5000 	stmdb	sp!, {ip, lr}
 8104b1c:	e92d 1fff 	stmdb	sp!, {r0, r1, r2, r3, r4, r5, r6, r7, r8, r9, sl, fp, ip}
 8104b20:	f04f 0300 	mov.w	r3, #0
 8104b24:	e92d 000c 	stmdb	sp!, {r2, r3}
 8104b28:	a901      	add	r1, sp, #4
 8104b2a:	f7ff fc19 	bl	8104360 <__gnu_Unwind_Resume>
 8104b2e:	f8dd e040 	ldr.w	lr, [sp, #64]	; 0x40
 8104b32:	b012      	add	sp, #72	; 0x48
 8104b34:	4770      	bx	lr
 8104b36:	bf00      	nop

08104b38 <_Unwind_Resume_or_Rethrow>:
 8104b38:	46ec      	mov	ip, sp
 8104b3a:	b500      	push	{lr}
 8104b3c:	e92d 5000 	stmdb	sp!, {ip, lr}
 8104b40:	e92d 1fff 	stmdb	sp!, {r0, r1, r2, r3, r4, r5, r6, r7, r8, r9, sl, fp, ip}
 8104b44:	f04f 0300 	mov.w	r3, #0
 8104b48:	e92d 000c 	stmdb	sp!, {r2, r3}
 8104b4c:	a901      	add	r1, sp, #4
 8104b4e:	f7ff fc29 	bl	81043a4 <__gnu_Unwind_Resume_or_Rethrow>
 8104b52:	f8dd e040 	ldr.w	lr, [sp, #64]	; 0x40
 8104b56:	b012      	add	sp, #72	; 0x48
 8104b58:	4770      	bx	lr
 8104b5a:	bf00      	nop

08104b5c <_Unwind_ForcedUnwind>:
 8104b5c:	46ec      	mov	ip, sp
 8104b5e:	b500      	push	{lr}
 8104b60:	e92d 5000 	stmdb	sp!, {ip, lr}
 8104b64:	e92d 1fff 	stmdb	sp!, {r0, r1, r2, r3, r4, r5, r6, r7, r8, r9, sl, fp, ip}
 8104b68:	f04f 0300 	mov.w	r3, #0
 8104b6c:	e92d 000c 	stmdb	sp!, {r2, r3}
 8104b70:	ab01      	add	r3, sp, #4
 8104b72:	f7ff fbeb 	bl	810434c <__gnu_Unwind_ForcedUnwind>
 8104b76:	f8dd e040 	ldr.w	lr, [sp, #64]	; 0x40
 8104b7a:	b012      	add	sp, #72	; 0x48
 8104b7c:	4770      	bx	lr
 8104b7e:	bf00      	nop

08104b80 <_Unwind_Backtrace>:
 8104b80:	46ec      	mov	ip, sp
 8104b82:	b500      	push	{lr}
 8104b84:	e92d 5000 	stmdb	sp!, {ip, lr}
 8104b88:	e92d 1fff 	stmdb	sp!, {r0, r1, r2, r3, r4, r5, r6, r7, r8, r9, sl, fp, ip}
 8104b8c:	f04f 0300 	mov.w	r3, #0
 8104b90:	e92d 000c 	stmdb	sp!, {r2, r3}
 8104b94:	aa01      	add	r2, sp, #4
 8104b96:	f7ff fc5d 	bl	8104454 <__gnu_Unwind_Backtrace>
 8104b9a:	f8dd e040 	ldr.w	lr, [sp, #64]	; 0x40
 8104b9e:	b012      	add	sp, #72	; 0x48
 8104ba0:	4770      	bx	lr
 8104ba2:	bf00      	nop

08104ba4 <next_unwind_byte>:
 8104ba4:	7a02      	ldrb	r2, [r0, #8]
 8104ba6:	b97a      	cbnz	r2, 8104bc8 <next_unwind_byte+0x24>
 8104ba8:	7a43      	ldrb	r3, [r0, #9]
 8104baa:	b1a3      	cbz	r3, 8104bd6 <next_unwind_byte+0x32>
 8104bac:	6842      	ldr	r2, [r0, #4]
 8104bae:	3b01      	subs	r3, #1
 8104bb0:	b410      	push	{r4}
 8104bb2:	7243      	strb	r3, [r0, #9]
 8104bb4:	6813      	ldr	r3, [r2, #0]
 8104bb6:	2103      	movs	r1, #3
 8104bb8:	1d14      	adds	r4, r2, #4
 8104bba:	7201      	strb	r1, [r0, #8]
 8104bbc:	021a      	lsls	r2, r3, #8
 8104bbe:	6044      	str	r4, [r0, #4]
 8104bc0:	6002      	str	r2, [r0, #0]
 8104bc2:	bc10      	pop	{r4}
 8104bc4:	0e18      	lsrs	r0, r3, #24
 8104bc6:	4770      	bx	lr
 8104bc8:	6803      	ldr	r3, [r0, #0]
 8104bca:	3a01      	subs	r2, #1
 8104bcc:	7202      	strb	r2, [r0, #8]
 8104bce:	021a      	lsls	r2, r3, #8
 8104bd0:	6002      	str	r2, [r0, #0]
 8104bd2:	0e18      	lsrs	r0, r3, #24
 8104bd4:	4770      	bx	lr
 8104bd6:	20b0      	movs	r0, #176	; 0xb0
 8104bd8:	4770      	bx	lr
 8104bda:	bf00      	nop

08104bdc <_Unwind_GetGR.constprop.0>:
 8104bdc:	b500      	push	{lr}
 8104bde:	b085      	sub	sp, #20
 8104be0:	aa03      	add	r2, sp, #12
 8104be2:	2300      	movs	r3, #0
 8104be4:	9200      	str	r2, [sp, #0]
 8104be6:	4619      	mov	r1, r3
 8104be8:	220c      	movs	r2, #12
 8104bea:	f7ff fbeb 	bl	81043c4 <_Unwind_VRS_Get>
 8104bee:	9803      	ldr	r0, [sp, #12]
 8104bf0:	b005      	add	sp, #20
 8104bf2:	f85d fb04 	ldr.w	pc, [sp], #4
 8104bf6:	bf00      	nop

08104bf8 <unwind_UCB_from_context>:
 8104bf8:	e7f0      	b.n	8104bdc <_Unwind_GetGR.constprop.0>
 8104bfa:	bf00      	nop

08104bfc <__gnu_unwind_execute>:
 8104bfc:	e92d 43f0 	stmdb	sp!, {r4, r5, r6, r7, r8, r9, lr}
 8104c00:	4605      	mov	r5, r0
 8104c02:	b085      	sub	sp, #20
 8104c04:	460e      	mov	r6, r1
 8104c06:	f04f 0800 	mov.w	r8, #0
 8104c0a:	4630      	mov	r0, r6
 8104c0c:	f7ff ffca 	bl	8104ba4 <next_unwind_byte>
 8104c10:	28b0      	cmp	r0, #176	; 0xb0
 8104c12:	4604      	mov	r4, r0
 8104c14:	f000 80b2 	beq.w	8104d7c <__gnu_unwind_execute+0x180>
 8104c18:	0607      	lsls	r7, r0, #24
 8104c1a:	d520      	bpl.n	8104c5e <__gnu_unwind_execute+0x62>
 8104c1c:	f000 03f0 	and.w	r3, r0, #240	; 0xf0
 8104c20:	2b80      	cmp	r3, #128	; 0x80
 8104c22:	d04d      	beq.n	8104cc0 <__gnu_unwind_execute+0xc4>
 8104c24:	2b90      	cmp	r3, #144	; 0x90
 8104c26:	d036      	beq.n	8104c96 <__gnu_unwind_execute+0x9a>
 8104c28:	2ba0      	cmp	r3, #160	; 0xa0
 8104c2a:	d060      	beq.n	8104cee <__gnu_unwind_execute+0xf2>
 8104c2c:	2bb0      	cmp	r3, #176	; 0xb0
 8104c2e:	d074      	beq.n	8104d1a <__gnu_unwind_execute+0x11e>
 8104c30:	2bc0      	cmp	r3, #192	; 0xc0
 8104c32:	f000 808b 	beq.w	8104d4c <__gnu_unwind_execute+0x150>
 8104c36:	f000 03f8 	and.w	r3, r0, #248	; 0xf8
 8104c3a:	2bd0      	cmp	r3, #208	; 0xd0
 8104c3c:	d10b      	bne.n	8104c56 <__gnu_unwind_execute+0x5a>
 8104c3e:	f000 0207 	and.w	r2, r0, #7
 8104c42:	3201      	adds	r2, #1
 8104c44:	f442 2200 	orr.w	r2, r2, #524288	; 0x80000
 8104c48:	2305      	movs	r3, #5
 8104c4a:	2101      	movs	r1, #1
 8104c4c:	4628      	mov	r0, r5
 8104c4e:	f7ff fd97 	bl	8104780 <_Unwind_VRS_Pop>
 8104c52:	2800      	cmp	r0, #0
 8104c54:	d0d9      	beq.n	8104c0a <__gnu_unwind_execute+0xe>
 8104c56:	2009      	movs	r0, #9
 8104c58:	b005      	add	sp, #20
 8104c5a:	e8bd 83f0 	ldmia.w	sp!, {r4, r5, r6, r7, r8, r9, pc}
 8104c5e:	f10d 090c 	add.w	r9, sp, #12
 8104c62:	2300      	movs	r3, #0
 8104c64:	4619      	mov	r1, r3
 8104c66:	0087      	lsls	r7, r0, #2
 8104c68:	f8cd 9000 	str.w	r9, [sp]
 8104c6c:	220d      	movs	r2, #13
 8104c6e:	4628      	mov	r0, r5
 8104c70:	f7ff fba8 	bl	81043c4 <_Unwind_VRS_Get>
 8104c74:	b2ff      	uxtb	r7, r7
 8104c76:	9b03      	ldr	r3, [sp, #12]
 8104c78:	f8cd 9000 	str.w	r9, [sp]
 8104c7c:	3704      	adds	r7, #4
 8104c7e:	0660      	lsls	r0, r4, #25
 8104c80:	bf4c      	ite	mi
 8104c82:	1bdf      	submi	r7, r3, r7
 8104c84:	18ff      	addpl	r7, r7, r3
 8104c86:	2300      	movs	r3, #0
 8104c88:	4619      	mov	r1, r3
 8104c8a:	220d      	movs	r2, #13
 8104c8c:	4628      	mov	r0, r5
 8104c8e:	9703      	str	r7, [sp, #12]
 8104c90:	f7ff fbbc 	bl	810440c <_Unwind_VRS_Set>
 8104c94:	e7b9      	b.n	8104c0a <__gnu_unwind_execute+0xe>
 8104c96:	f000 030d 	and.w	r3, r0, #13
 8104c9a:	2b0d      	cmp	r3, #13
 8104c9c:	d0db      	beq.n	8104c56 <__gnu_unwind_execute+0x5a>
 8104c9e:	af03      	add	r7, sp, #12
 8104ca0:	2300      	movs	r3, #0
 8104ca2:	f000 020f 	and.w	r2, r0, #15
 8104ca6:	4619      	mov	r1, r3
 8104ca8:	9700      	str	r7, [sp, #0]
 8104caa:	4628      	mov	r0, r5
 8104cac:	f7ff fb8a 	bl	81043c4 <_Unwind_VRS_Get>
 8104cb0:	2300      	movs	r3, #0
 8104cb2:	9700      	str	r7, [sp, #0]
 8104cb4:	4619      	mov	r1, r3
 8104cb6:	220d      	movs	r2, #13
 8104cb8:	4628      	mov	r0, r5
 8104cba:	f7ff fba7 	bl	810440c <_Unwind_VRS_Set>
 8104cbe:	e7a4      	b.n	8104c0a <__gnu_unwind_execute+0xe>
 8104cc0:	4630      	mov	r0, r6
 8104cc2:	f7ff ff6f 	bl	8104ba4 <next_unwind_byte>
 8104cc6:	0224      	lsls	r4, r4, #8
 8104cc8:	4320      	orrs	r0, r4
 8104cca:	f5b0 4f00 	cmp.w	r0, #32768	; 0x8000
 8104cce:	d0c2      	beq.n	8104c56 <__gnu_unwind_execute+0x5a>
 8104cd0:	0104      	lsls	r4, r0, #4
 8104cd2:	2300      	movs	r3, #0
 8104cd4:	b2a2      	uxth	r2, r4
 8104cd6:	4619      	mov	r1, r3
 8104cd8:	4628      	mov	r0, r5
 8104cda:	f7ff fd51 	bl	8104780 <_Unwind_VRS_Pop>
 8104cde:	2800      	cmp	r0, #0
 8104ce0:	d1b9      	bne.n	8104c56 <__gnu_unwind_execute+0x5a>
 8104ce2:	f414 4f00 	tst.w	r4, #32768	; 0x8000
 8104ce6:	bf18      	it	ne
 8104ce8:	f04f 0801 	movne.w	r8, #1
 8104cec:	e78d      	b.n	8104c0a <__gnu_unwind_execute+0xe>
 8104cee:	43c2      	mvns	r2, r0
 8104cf0:	f002 0307 	and.w	r3, r2, #7
 8104cf4:	f44f 627f 	mov.w	r2, #4080	; 0xff0
 8104cf8:	411a      	asrs	r2, r3
 8104cfa:	0701      	lsls	r1, r0, #28
 8104cfc:	f402 627f 	and.w	r2, r2, #4080	; 0xff0
 8104d00:	f04f 0300 	mov.w	r3, #0
 8104d04:	bf48      	it	mi
 8104d06:	f442 4280 	orrmi.w	r2, r2, #16384	; 0x4000
 8104d0a:	4619      	mov	r1, r3
 8104d0c:	4628      	mov	r0, r5
 8104d0e:	f7ff fd37 	bl	8104780 <_Unwind_VRS_Pop>
 8104d12:	2800      	cmp	r0, #0
 8104d14:	f43f af79 	beq.w	8104c0a <__gnu_unwind_execute+0xe>
 8104d18:	e79d      	b.n	8104c56 <__gnu_unwind_execute+0x5a>
 8104d1a:	28b1      	cmp	r0, #177	; 0xb1
 8104d1c:	d033      	beq.n	8104d86 <__gnu_unwind_execute+0x18a>
 8104d1e:	28b2      	cmp	r0, #178	; 0xb2
 8104d20:	f000 808b 	beq.w	8104e3a <__gnu_unwind_execute+0x23e>
 8104d24:	28b3      	cmp	r0, #179	; 0xb3
 8104d26:	d039      	beq.n	8104d9c <__gnu_unwind_execute+0x1a0>
 8104d28:	f000 03fc 	and.w	r3, r0, #252	; 0xfc
 8104d2c:	2bb4      	cmp	r3, #180	; 0xb4
 8104d2e:	d092      	beq.n	8104c56 <__gnu_unwind_execute+0x5a>
 8104d30:	f000 0207 	and.w	r2, r0, #7
 8104d34:	3201      	adds	r2, #1
 8104d36:	2301      	movs	r3, #1
 8104d38:	f442 2200 	orr.w	r2, r2, #524288	; 0x80000
 8104d3c:	4619      	mov	r1, r3
 8104d3e:	4628      	mov	r0, r5
 8104d40:	f7ff fd1e 	bl	8104780 <_Unwind_VRS_Pop>
 8104d44:	2800      	cmp	r0, #0
 8104d46:	f43f af60 	beq.w	8104c0a <__gnu_unwind_execute+0xe>
 8104d4a:	e784      	b.n	8104c56 <__gnu_unwind_execute+0x5a>
 8104d4c:	28c6      	cmp	r0, #198	; 0xc6
 8104d4e:	d042      	beq.n	8104dd6 <__gnu_unwind_execute+0x1da>
 8104d50:	28c7      	cmp	r0, #199	; 0xc7
 8104d52:	d04c      	beq.n	8104dee <__gnu_unwind_execute+0x1f2>
 8104d54:	f000 03f8 	and.w	r3, r0, #248	; 0xf8
 8104d58:	2bc0      	cmp	r3, #192	; 0xc0
 8104d5a:	d05b      	beq.n	8104e14 <__gnu_unwind_execute+0x218>
 8104d5c:	28c8      	cmp	r0, #200	; 0xc8
 8104d5e:	d060      	beq.n	8104e22 <__gnu_unwind_execute+0x226>
 8104d60:	28c9      	cmp	r0, #201	; 0xc9
 8104d62:	f47f af78 	bne.w	8104c56 <__gnu_unwind_execute+0x5a>
 8104d66:	4630      	mov	r0, r6
 8104d68:	f7ff ff1c 	bl	8104ba4 <next_unwind_byte>
 8104d6c:	0302      	lsls	r2, r0, #12
 8104d6e:	f000 000f 	and.w	r0, r0, #15
 8104d72:	f402 2270 	and.w	r2, r2, #983040	; 0xf0000
 8104d76:	3001      	adds	r0, #1
 8104d78:	4302      	orrs	r2, r0
 8104d7a:	e765      	b.n	8104c48 <__gnu_unwind_execute+0x4c>
 8104d7c:	f1b8 0f00 	cmp.w	r8, #0
 8104d80:	d018      	beq.n	8104db4 <__gnu_unwind_execute+0x1b8>
 8104d82:	2000      	movs	r0, #0
 8104d84:	e768      	b.n	8104c58 <__gnu_unwind_execute+0x5c>
 8104d86:	4630      	mov	r0, r6
 8104d88:	f7ff ff0c 	bl	8104ba4 <next_unwind_byte>
 8104d8c:	4602      	mov	r2, r0
 8104d8e:	2800      	cmp	r0, #0
 8104d90:	f43f af61 	beq.w	8104c56 <__gnu_unwind_execute+0x5a>
 8104d94:	f010 03f0 	ands.w	r3, r0, #240	; 0xf0
 8104d98:	d0d0      	beq.n	8104d3c <__gnu_unwind_execute+0x140>
 8104d9a:	e75c      	b.n	8104c56 <__gnu_unwind_execute+0x5a>
 8104d9c:	4630      	mov	r0, r6
 8104d9e:	f7ff ff01 	bl	8104ba4 <next_unwind_byte>
 8104da2:	0301      	lsls	r1, r0, #12
 8104da4:	f000 000f 	and.w	r0, r0, #15
 8104da8:	f401 2170 	and.w	r1, r1, #983040	; 0xf0000
 8104dac:	1c42      	adds	r2, r0, #1
 8104dae:	2301      	movs	r3, #1
 8104db0:	430a      	orrs	r2, r1
 8104db2:	e7c3      	b.n	8104d3c <__gnu_unwind_execute+0x140>
 8104db4:	ac03      	add	r4, sp, #12
 8104db6:	4643      	mov	r3, r8
 8104db8:	220e      	movs	r2, #14
 8104dba:	4641      	mov	r1, r8
 8104dbc:	9400      	str	r4, [sp, #0]
 8104dbe:	4628      	mov	r0, r5
 8104dc0:	f7ff fb00 	bl	81043c4 <_Unwind_VRS_Get>
 8104dc4:	9400      	str	r4, [sp, #0]
 8104dc6:	4628      	mov	r0, r5
 8104dc8:	4643      	mov	r3, r8
 8104dca:	220f      	movs	r2, #15
 8104dcc:	4641      	mov	r1, r8
 8104dce:	f7ff fb1d 	bl	810440c <_Unwind_VRS_Set>
 8104dd2:	4640      	mov	r0, r8
 8104dd4:	e740      	b.n	8104c58 <__gnu_unwind_execute+0x5c>
 8104dd6:	4630      	mov	r0, r6
 8104dd8:	f7ff fee4 	bl	8104ba4 <next_unwind_byte>
 8104ddc:	0301      	lsls	r1, r0, #12
 8104dde:	f000 000f 	and.w	r0, r0, #15
 8104de2:	f401 2170 	and.w	r1, r1, #983040	; 0xf0000
 8104de6:	1c42      	adds	r2, r0, #1
 8104de8:	2303      	movs	r3, #3
 8104dea:	430a      	orrs	r2, r1
 8104dec:	e7a6      	b.n	8104d3c <__gnu_unwind_execute+0x140>
 8104dee:	4630      	mov	r0, r6
 8104df0:	f7ff fed8 	bl	8104ba4 <next_unwind_byte>
 8104df4:	4602      	mov	r2, r0
 8104df6:	2800      	cmp	r0, #0
 8104df8:	f43f af2d 	beq.w	8104c56 <__gnu_unwind_execute+0x5a>
 8104dfc:	f010 03f0 	ands.w	r3, r0, #240	; 0xf0
 8104e00:	f47f af29 	bne.w	8104c56 <__gnu_unwind_execute+0x5a>
 8104e04:	2104      	movs	r1, #4
 8104e06:	4628      	mov	r0, r5
 8104e08:	f7ff fcba 	bl	8104780 <_Unwind_VRS_Pop>
 8104e0c:	2800      	cmp	r0, #0
 8104e0e:	f43f aefc 	beq.w	8104c0a <__gnu_unwind_execute+0xe>
 8104e12:	e720      	b.n	8104c56 <__gnu_unwind_execute+0x5a>
 8104e14:	f000 020f 	and.w	r2, r0, #15
 8104e18:	3201      	adds	r2, #1
 8104e1a:	2303      	movs	r3, #3
 8104e1c:	f442 2220 	orr.w	r2, r2, #655360	; 0xa0000
 8104e20:	e78c      	b.n	8104d3c <__gnu_unwind_execute+0x140>
 8104e22:	4630      	mov	r0, r6
 8104e24:	f7ff febe 	bl	8104ba4 <next_unwind_byte>
 8104e28:	f000 02f0 	and.w	r2, r0, #240	; 0xf0
 8104e2c:	f000 030f 	and.w	r3, r0, #15
 8104e30:	3210      	adds	r2, #16
 8104e32:	3301      	adds	r3, #1
 8104e34:	ea43 3202 	orr.w	r2, r3, r2, lsl #12
 8104e38:	e706      	b.n	8104c48 <__gnu_unwind_execute+0x4c>
 8104e3a:	2300      	movs	r3, #0
 8104e3c:	f10d 090c 	add.w	r9, sp, #12
 8104e40:	220d      	movs	r2, #13
 8104e42:	4619      	mov	r1, r3
 8104e44:	f8cd 9000 	str.w	r9, [sp]
 8104e48:	4628      	mov	r0, r5
 8104e4a:	f7ff fabb 	bl	81043c4 <_Unwind_VRS_Get>
 8104e4e:	4630      	mov	r0, r6
 8104e50:	f7ff fea8 	bl	8104ba4 <next_unwind_byte>
 8104e54:	0602      	lsls	r2, r0, #24
 8104e56:	f04f 0702 	mov.w	r7, #2
 8104e5a:	d50c      	bpl.n	8104e76 <__gnu_unwind_execute+0x27a>
 8104e5c:	9b03      	ldr	r3, [sp, #12]
 8104e5e:	f000 007f 	and.w	r0, r0, #127	; 0x7f
 8104e62:	40b8      	lsls	r0, r7
 8104e64:	4403      	add	r3, r0
 8104e66:	4630      	mov	r0, r6
 8104e68:	9303      	str	r3, [sp, #12]
 8104e6a:	f7ff fe9b 	bl	8104ba4 <next_unwind_byte>
 8104e6e:	0603      	lsls	r3, r0, #24
 8104e70:	f107 0707 	add.w	r7, r7, #7
 8104e74:	d4f2      	bmi.n	8104e5c <__gnu_unwind_execute+0x260>
 8104e76:	9b03      	ldr	r3, [sp, #12]
 8104e78:	f8cd 9000 	str.w	r9, [sp]
 8104e7c:	f000 047f 	and.w	r4, r0, #127	; 0x7f
 8104e80:	f503 7201 	add.w	r2, r3, #516	; 0x204
 8104e84:	40bc      	lsls	r4, r7
 8104e86:	2300      	movs	r3, #0
 8104e88:	4414      	add	r4, r2
 8104e8a:	4619      	mov	r1, r3
 8104e8c:	220d      	movs	r2, #13
 8104e8e:	4628      	mov	r0, r5
 8104e90:	9403      	str	r4, [sp, #12]
 8104e92:	f7ff fabb 	bl	810440c <_Unwind_VRS_Set>
 8104e96:	e6b8      	b.n	8104c0a <__gnu_unwind_execute+0xe>

08104e98 <__gnu_unwind_frame>:
 8104e98:	b510      	push	{r4, lr}
 8104e9a:	6cc2      	ldr	r2, [r0, #76]	; 0x4c
 8104e9c:	b084      	sub	sp, #16
 8104e9e:	6853      	ldr	r3, [r2, #4]
 8104ea0:	2403      	movs	r4, #3
 8104ea2:	f88d 400c 	strb.w	r4, [sp, #12]
 8104ea6:	021b      	lsls	r3, r3, #8
 8104ea8:	f102 0408 	add.w	r4, r2, #8
 8104eac:	4608      	mov	r0, r1
 8104eae:	79d2      	ldrb	r2, [r2, #7]
 8104eb0:	9301      	str	r3, [sp, #4]
 8104eb2:	a901      	add	r1, sp, #4
 8104eb4:	9402      	str	r4, [sp, #8]
 8104eb6:	f88d 200d 	strb.w	r2, [sp, #13]
 8104eba:	f7ff fe9f 	bl	8104bfc <__gnu_unwind_execute>
 8104ebe:	b004      	add	sp, #16
 8104ec0:	bd10      	pop	{r4, pc}
 8104ec2:	bf00      	nop

08104ec4 <_Unwind_GetRegionStart>:
 8104ec4:	b508      	push	{r3, lr}
 8104ec6:	f7ff fe97 	bl	8104bf8 <unwind_UCB_from_context>
 8104eca:	6c80      	ldr	r0, [r0, #72]	; 0x48
 8104ecc:	bd08      	pop	{r3, pc}
 8104ece:	bf00      	nop

08104ed0 <_Unwind_GetLanguageSpecificData>:
 8104ed0:	b508      	push	{r3, lr}
 8104ed2:	f7ff fe91 	bl	8104bf8 <unwind_UCB_from_context>
 8104ed6:	6cc0      	ldr	r0, [r0, #76]	; 0x4c
 8104ed8:	79c3      	ldrb	r3, [r0, #7]
 8104eda:	3302      	adds	r3, #2
 8104edc:	eb00 0083 	add.w	r0, r0, r3, lsl #2
 8104ee0:	bd08      	pop	{r3, pc}
 8104ee2:	bf00      	nop

08104ee4 <Reset_Handler>:

    .section  .text.Reset_Handler
  .weak  Reset_Handler
  .type  Reset_Handler, %function
Reset_Handler:  
  ldr   sp, =_estack      /* set stack pointer */
 8104ee4:	f8df d034 	ldr.w	sp, [pc, #52]	; 8104f1c <LoopFillZerobss+0x10>

/* Call the clock system intitialization function.*/
  bl  SystemInit
 8104ee8:	f001 fcd6 	bl	8106898 <SystemInit>

/* Copy the data segment initializers from flash to SRAM */  
  movs  r1, #0
 8104eec:	2100      	movs	r1, #0
  b  LoopCopyDataInit
 8104eee:	e003      	b.n	8104ef8 <LoopCopyDataInit>

08104ef0 <CopyDataInit>:

CopyDataInit:
  ldr  r3, =_sidata
 8104ef0:	4b0b      	ldr	r3, [pc, #44]	; (8104f20 <LoopFillZerobss+0x14>)
  ldr  r3, [r3, r1]
 8104ef2:	585b      	ldr	r3, [r3, r1]
  str  r3, [r0, r1]
 8104ef4:	5043      	str	r3, [r0, r1]
  adds  r1, r1, #4
 8104ef6:	3104      	adds	r1, #4

08104ef8 <LoopCopyDataInit>:
    
LoopCopyDataInit:
  ldr  r0, =_sdata
 8104ef8:	480a      	ldr	r0, [pc, #40]	; (8104f24 <LoopFillZerobss+0x18>)
  ldr  r3, =_edata
 8104efa:	4b0b      	ldr	r3, [pc, #44]	; (8104f28 <LoopFillZerobss+0x1c>)
  adds  r2, r0, r1
 8104efc:	1842      	adds	r2, r0, r1
  cmp  r2, r3
 8104efe:	429a      	cmp	r2, r3
  bcc  CopyDataInit
 8104f00:	d3f6      	bcc.n	8104ef0 <CopyDataInit>
  ldr  r2, =_sbss
 8104f02:	4a0a      	ldr	r2, [pc, #40]	; (8104f2c <LoopFillZerobss+0x20>)
  b  LoopFillZerobss
 8104f04:	e002      	b.n	8104f0c <LoopFillZerobss>

08104f06 <FillZerobss>:
/* Zero fill the bss segment. */  
FillZerobss:
  movs  r3, #0
 8104f06:	2300      	movs	r3, #0
  str  r3, [r2], #4
 8104f08:	f842 3b04 	str.w	r3, [r2], #4

08104f0c <LoopFillZerobss>:
    
LoopFillZerobss:
  ldr  r3, = _ebss
 8104f0c:	4b08      	ldr	r3, [pc, #32]	; (8104f30 <LoopFillZerobss+0x24>)
  cmp  r2, r3
 8104f0e:	429a      	cmp	r2, r3
  bcc  FillZerobss
 8104f10:	d3f9      	bcc.n	8104f06 <FillZerobss>

/* Call static constructors */
    bl __libc_init_array
 8104f12:	f001 fcfd 	bl	8106910 <__libc_init_array>
/* Call the application's entry point.*/
  bl  main
 8104f16:	f000 f839 	bl	8104f8c <main>
  bx  lr    
 8104f1a:	4770      	bx	lr
  ldr   sp, =_estack      /* set stack pointer */
 8104f1c:	10020000 	.word	0x10020000
  ldr  r3, =_sidata
 8104f20:	08106bc0 	.word	0x08106bc0
  ldr  r0, =_sdata
 8104f24:	10001800 	.word	0x10001800
  ldr  r3, =_edata
 8104f28:	10001874 	.word	0x10001874
  ldr  r2, =_sbss
 8104f2c:	10001874 	.word	0x10001874
  ldr  r3, = _ebss
 8104f30:	100018e4 	.word	0x100018e4

08104f34 <ADC3_IRQHandler>:
 * @retval None       
*/
    .section  .text.Default_Handler,"ax",%progbits
Default_Handler:
Infinite_Loop:
  b  Infinite_Loop
 8104f34:	e7fe      	b.n	8104f34 <ADC3_IRQHandler>
	...

08104f38 <__NVIC_SetPriority>:
  \param [in]      IRQn  Interrupt number.
  \param [in]  priority  Priority to set.
  \note    The priority cannot be set for every processor exception.
 */
__STATIC_INLINE void __NVIC_SetPriority(IRQn_Type IRQn, uint32_t priority)
{
 8104f38:	b480      	push	{r7}
 8104f3a:	b083      	sub	sp, #12
 8104f3c:	af00      	add	r7, sp, #0
 8104f3e:	4603      	mov	r3, r0
 8104f40:	6039      	str	r1, [r7, #0]
 8104f42:	80fb      	strh	r3, [r7, #6]
  if ((int32_t)(IRQn) >= 0)
 8104f44:	f9b7 3006 	ldrsh.w	r3, [r7, #6]
 8104f48:	2b00      	cmp	r3, #0
 8104f4a:	db0a      	blt.n	8104f62 <__NVIC_SetPriority+0x2a>
  {
    NVIC->IP[((uint32_t)IRQn)]               = (uint8_t)((priority << (8U - __NVIC_PRIO_BITS)) & (uint32_t)0xFFUL);
 8104f4c:	683b      	ldr	r3, [r7, #0]
 8104f4e:	b2da      	uxtb	r2, r3
 8104f50:	490c      	ldr	r1, [pc, #48]	; (8104f84 <__NVIC_SetPriority+0x4c>)
 8104f52:	f9b7 3006 	ldrsh.w	r3, [r7, #6]
 8104f56:	0112      	lsls	r2, r2, #4
 8104f58:	b2d2      	uxtb	r2, r2
 8104f5a:	440b      	add	r3, r1
 8104f5c:	f883 2300 	strb.w	r2, [r3, #768]	; 0x300
  }
  else
  {
    SCB->SHP[(((uint32_t)IRQn) & 0xFUL)-4UL] = (uint8_t)((priority << (8U - __NVIC_PRIO_BITS)) & (uint32_t)0xFFUL);
  }
}
 8104f60:	e00a      	b.n	8104f78 <__NVIC_SetPriority+0x40>
    SCB->SHP[(((uint32_t)IRQn) & 0xFUL)-4UL] = (uint8_t)((priority << (8U - __NVIC_PRIO_BITS)) & (uint32_t)0xFFUL);
 8104f62:	683b      	ldr	r3, [r7, #0]
 8104f64:	b2da      	uxtb	r2, r3
 8104f66:	4908      	ldr	r1, [pc, #32]	; (8104f88 <__NVIC_SetPriority+0x50>)
 8104f68:	88fb      	ldrh	r3, [r7, #6]
 8104f6a:	f003 030f 	and.w	r3, r3, #15
 8104f6e:	3b04      	subs	r3, #4
 8104f70:	0112      	lsls	r2, r2, #4
 8104f72:	b2d2      	uxtb	r2, r2
 8104f74:	440b      	add	r3, r1
 8104f76:	761a      	strb	r2, [r3, #24]
}
 8104f78:	bf00      	nop
 8104f7a:	370c      	adds	r7, #12
 8104f7c:	46bd      	mov	sp, r7
 8104f7e:	f85d 7b04 	ldr.w	r7, [sp], #4
 8104f82:	4770      	bx	lr
 8104f84:	e000e100 	.word	0xe000e100
 8104f88:	e000ed00 	.word	0xe000ed00

08104f8c <main>:
/**
  * @brief  The application entry point.
  * @retval int
  */
int main(void)
{
 8104f8c:	b580      	push	{r7, lr}
 8104f8e:	b082      	sub	sp, #8
 8104f90:	af00      	add	r7, sp, #0
  /* USER CODE BEGIN 1 */
	cosmosApi_boot();
 8104f92:	f000 f97b 	bl	810528c <osBoot_boot>
	NVIC_SetPriority(SVCall_IRQn,3);
 8104f96:	2103      	movs	r1, #3
 8104f98:	f06f 0004 	mvn.w	r0, #4
 8104f9c:	f7ff ffcc 	bl	8104f38 <__NVIC_SetPriority>
  NVIC_SetPriority(PendSV_IRQn,4);
 8104fa0:	2104      	movs	r1, #4
 8104fa2:	f06f 0001 	mvn.w	r0, #1
 8104fa6:	f7ff ffc7 	bl	8104f38 <__NVIC_SetPriority>
  NVIC_SetPriority (SysTick_IRQn, 0);         /* set Priority for Systick Interrupt */
 8104faa:	2100      	movs	r1, #0
 8104fac:	f04f 30ff 	mov.w	r0, #4294967295
 8104fb0:	f7ff ffc2 	bl	8104f38 <__NVIC_SetPriority>
  /* USER CODE END 1 */

/* USER CODE BEGIN Boot_Mode_Sequence_1 */
  /*HW semaphore Clock enable*/
  __HAL_RCC_HSEM_CLK_ENABLE();
 8104fb4:	4b1e      	ldr	r3, [pc, #120]	; (8105030 <main+0xa4>)
 8104fb6:	f8d3 30e0 	ldr.w	r3, [r3, #224]	; 0xe0
 8104fba:	4a1d      	ldr	r2, [pc, #116]	; (8105030 <main+0xa4>)
 8104fbc:	f043 7300 	orr.w	r3, r3, #33554432	; 0x2000000
 8104fc0:	f8c2 30e0 	str.w	r3, [r2, #224]	; 0xe0
 8104fc4:	4b1a      	ldr	r3, [pc, #104]	; (8105030 <main+0xa4>)
 8104fc6:	f8d3 30e0 	ldr.w	r3, [r3, #224]	; 0xe0
 8104fca:	f003 7300 	and.w	r3, r3, #33554432	; 0x2000000
 8104fce:	607b      	str	r3, [r7, #4]
 8104fd0:	687b      	ldr	r3, [r7, #4]
  /* Activate HSEM notification for Cortex-M4*/
  HAL_HSEM_ActivateNotification(__HAL_HSEM_SEMID_TO_MASK(HSEM_ID_0));
 8104fd2:	2001      	movs	r0, #1
 8104fd4:	f000 ff1c 	bl	8105e10 <HAL_HSEM_ActivateNotification>
  /*
  Domain D2 goes to STOP mode (Cortex-M4 in deep-sleep) waiting for Cortex-M7 to
  perform system initialization (system clock config, external memory configuration.. )
  */
  HAL_PWREx_ClearPendingEvent();
 8104fd8:	f000 ffb4 	bl	8105f44 <HAL_PWREx_ClearPendingEvent>
  HAL_PWREx_EnterSTOPMode(PWR_MAINREGULATOR_ON, PWR_STOPENTRY_WFE, PWR_D2_DOMAIN);
 8104fdc:	2201      	movs	r2, #1
 8104fde:	2102      	movs	r1, #2
 8104fe0:	2000      	movs	r0, #0
 8104fe2:	f000 ff35 	bl	8105e50 <HAL_PWREx_EnterSTOPMode>
  /* Clear HSEM flag */
  __HAL_HSEM_CLEAR_FLAG(__HAL_HSEM_SEMID_TO_MASK(HSEM_ID_0));
 8104fe6:	4b13      	ldr	r3, [pc, #76]	; (8105034 <main+0xa8>)
 8104fe8:	681b      	ldr	r3, [r3, #0]
 8104fea:	091b      	lsrs	r3, r3, #4
 8104fec:	f003 030f 	and.w	r3, r3, #15
 8104ff0:	2b07      	cmp	r3, #7
 8104ff2:	d108      	bne.n	8105006 <main+0x7a>
 8104ff4:	4b10      	ldr	r3, [pc, #64]	; (8105038 <main+0xac>)
 8104ff6:	f8d3 3104 	ldr.w	r3, [r3, #260]	; 0x104
 8104ffa:	4a0f      	ldr	r2, [pc, #60]	; (8105038 <main+0xac>)
 8104ffc:	f043 0301 	orr.w	r3, r3, #1
 8105000:	f8c2 3104 	str.w	r3, [r2, #260]	; 0x104
 8105004:	e007      	b.n	8105016 <main+0x8a>
 8105006:	4b0c      	ldr	r3, [pc, #48]	; (8105038 <main+0xac>)
 8105008:	f8d3 3114 	ldr.w	r3, [r3, #276]	; 0x114
 810500c:	4a0a      	ldr	r2, [pc, #40]	; (8105038 <main+0xac>)
 810500e:	f043 0301 	orr.w	r3, r3, #1
 8105012:	f8c2 3114 	str.w	r3, [r2, #276]	; 0x114

/* USER CODE END Boot_Mode_Sequence_1 */
  /* MCU Configuration--------------------------------------------------------*/

  /* Reset of all peripherals, Initializes the Flash interface and the Systick. */
  HAL_Init();
 8105016:	f000 facb 	bl	81055b0 <HAL_Init>
  /* USER CODE BEGIN SysInit */

  /* USER CODE END SysInit */

  /* Initialize all configured peripherals */
  MX_GPIO_Init();
 810501a:	f000 f829 	bl	8105070 <MX_GPIO_Init>
  MX_DMA_Init();
 810501e:	f000 f80d 	bl	810503c <MX_DMA_Init>
  /* USER CODE BEGIN 2 */
	cosmosApi_osInit_init();
 8105022:	2019      	movs	r0, #25
 8105024:	f7fd f8f0 	bl	8102208 <sysCalls_bitWidthType_ret_void>
	cosmosApi_os_start();
 8105028:	201a      	movs	r0, #26
 810502a:	f7fd f8ed 	bl	8102208 <sysCalls_bitWidthType_ret_void>
  /* USER CODE END 2 */

  /* Infinite loop */
  /* USER CODE BEGIN WHILE */
  while (1)
 810502e:	e7fe      	b.n	810502e <main+0xa2>
 8105030:	58024400 	.word	0x58024400
 8105034:	e000ed00 	.word	0xe000ed00
 8105038:	58026400 	.word	0x58026400

0810503c <MX_DMA_Init>:

/**
  * Enable DMA controller clock
  */
static void MX_DMA_Init(void)
{
 810503c:	b480      	push	{r7}
 810503e:	b083      	sub	sp, #12
 8105040:	af00      	add	r7, sp, #0

  /* DMA controller clock enable */
  __HAL_RCC_DMA1_CLK_ENABLE();
 8105042:	4b0a      	ldr	r3, [pc, #40]	; (810506c <MX_DMA_Init+0x30>)
 8105044:	f8d3 30d8 	ldr.w	r3, [r3, #216]	; 0xd8
 8105048:	4a08      	ldr	r2, [pc, #32]	; (810506c <MX_DMA_Init+0x30>)
 810504a:	f043 0301 	orr.w	r3, r3, #1
 810504e:	f8c2 30d8 	str.w	r3, [r2, #216]	; 0xd8
 8105052:	4b06      	ldr	r3, [pc, #24]	; (810506c <MX_DMA_Init+0x30>)
 8105054:	f8d3 30d8 	ldr.w	r3, [r3, #216]	; 0xd8
 8105058:	f003 0301 	and.w	r3, r3, #1
 810505c:	607b      	str	r3, [r7, #4]
 810505e:	687b      	ldr	r3, [r7, #4]

}
 8105060:	bf00      	nop
 8105062:	370c      	adds	r7, #12
 8105064:	46bd      	mov	sp, r7
 8105066:	f85d 7b04 	ldr.w	r7, [sp], #4
 810506a:	4770      	bx	lr
 810506c:	58024400 	.word	0x58024400

08105070 <MX_GPIO_Init>:
  * @brief GPIO Initialization Function
  * @param None
  * @retval None
  */
static void MX_GPIO_Init(void)
{
 8105070:	b580      	push	{r7, lr}
 8105072:	b088      	sub	sp, #32
 8105074:	af00      	add	r7, sp, #0
  GPIO_InitTypeDef GPIO_InitStruct = {0};
 8105076:	f107 030c 	add.w	r3, r7, #12
 810507a:	2200      	movs	r2, #0
 810507c:	601a      	str	r2, [r3, #0]
 810507e:	605a      	str	r2, [r3, #4]
 8105080:	609a      	str	r2, [r3, #8]
 8105082:	60da      	str	r2, [r3, #12]
 8105084:	611a      	str	r2, [r3, #16]

  /* GPIO Ports Clock Enable */
  __HAL_RCC_GPIOA_CLK_ENABLE();
 8105086:	4b24      	ldr	r3, [pc, #144]	; (8105118 <MX_GPIO_Init+0xa8>)
 8105088:	f8d3 30e0 	ldr.w	r3, [r3, #224]	; 0xe0
 810508c:	4a22      	ldr	r2, [pc, #136]	; (8105118 <MX_GPIO_Init+0xa8>)
 810508e:	f043 0301 	orr.w	r3, r3, #1
 8105092:	f8c2 30e0 	str.w	r3, [r2, #224]	; 0xe0
 8105096:	4b20      	ldr	r3, [pc, #128]	; (8105118 <MX_GPIO_Init+0xa8>)
 8105098:	f8d3 30e0 	ldr.w	r3, [r3, #224]	; 0xe0
 810509c:	f003 0301 	and.w	r3, r3, #1
 81050a0:	60bb      	str	r3, [r7, #8]
 81050a2:	68bb      	ldr	r3, [r7, #8]
  __HAL_RCC_GPIOB_CLK_ENABLE();
 81050a4:	4b1c      	ldr	r3, [pc, #112]	; (8105118 <MX_GPIO_Init+0xa8>)
 81050a6:	f8d3 30e0 	ldr.w	r3, [r3, #224]	; 0xe0
 81050aa:	4a1b      	ldr	r2, [pc, #108]	; (8105118 <MX_GPIO_Init+0xa8>)
 81050ac:	f043 0302 	orr.w	r3, r3, #2
 81050b0:	f8c2 30e0 	str.w	r3, [r2, #224]	; 0xe0
 81050b4:	4b18      	ldr	r3, [pc, #96]	; (8105118 <MX_GPIO_Init+0xa8>)
 81050b6:	f8d3 30e0 	ldr.w	r3, [r3, #224]	; 0xe0
 81050ba:	f003 0302 	and.w	r3, r3, #2
 81050be:	607b      	str	r3, [r7, #4]
 81050c0:	687b      	ldr	r3, [r7, #4]

  /*Configure GPIO pin Output Level */
  HAL_GPIO_WritePin(GPIOA, GPIO_PIN_4, GPIO_PIN_RESET);
 81050c2:	2200      	movs	r2, #0
 81050c4:	2110      	movs	r1, #16
 81050c6:	4815      	ldr	r0, [pc, #84]	; (810511c <MX_GPIO_Init+0xac>)
 81050c8:	f000 fe04 	bl	8105cd4 <HAL_GPIO_WritePin>

  /*Configure GPIO pin Output Level */
  HAL_GPIO_WritePin(LD1_GPIO_Port, LD1_Pin, GPIO_PIN_RESET);
 81050cc:	2200      	movs	r2, #0
 81050ce:	2101      	movs	r1, #1
 81050d0:	4813      	ldr	r0, [pc, #76]	; (8105120 <MX_GPIO_Init+0xb0>)
 81050d2:	f000 fdff 	bl	8105cd4 <HAL_GPIO_WritePin>

  /*Configure GPIO pin : PA4 */
  GPIO_InitStruct.Pin = GPIO_PIN_4;
 81050d6:	2310      	movs	r3, #16
 81050d8:	60fb      	str	r3, [r7, #12]
  GPIO_InitStruct.Mode = GPIO_MODE_OUTPUT_PP;
 81050da:	2301      	movs	r3, #1
 81050dc:	613b      	str	r3, [r7, #16]
  GPIO_InitStruct.Pull = GPIO_NOPULL;
 81050de:	2300      	movs	r3, #0
 81050e0:	617b      	str	r3, [r7, #20]
  GPIO_InitStruct.Speed = GPIO_SPEED_FREQ_VERY_HIGH;
 81050e2:	2303      	movs	r3, #3
 81050e4:	61bb      	str	r3, [r7, #24]
  HAL_GPIO_Init(GPIOA, &GPIO_InitStruct);
 81050e6:	f107 030c 	add.w	r3, r7, #12
 81050ea:	4619      	mov	r1, r3
 81050ec:	480b      	ldr	r0, [pc, #44]	; (810511c <MX_GPIO_Init+0xac>)
 81050ee:	f000 fc41 	bl	8105974 <HAL_GPIO_Init>

  /*Configure GPIO pin : LD1_Pin */
  GPIO_InitStruct.Pin = LD1_Pin;
 81050f2:	2301      	movs	r3, #1
 81050f4:	60fb      	str	r3, [r7, #12]
  GPIO_InitStruct.Mode = GPIO_MODE_OUTPUT_PP;
 81050f6:	2301      	movs	r3, #1
 81050f8:	613b      	str	r3, [r7, #16]
  GPIO_InitStruct.Pull = GPIO_NOPULL;
 81050fa:	2300      	movs	r3, #0
 81050fc:	617b      	str	r3, [r7, #20]
  GPIO_InitStruct.Speed = GPIO_SPEED_FREQ_VERY_HIGH;
 81050fe:	2303      	movs	r3, #3
 8105100:	61bb      	str	r3, [r7, #24]
  HAL_GPIO_Init(LD1_GPIO_Port, &GPIO_InitStruct);
 8105102:	f107 030c 	add.w	r3, r7, #12
 8105106:	4619      	mov	r1, r3
 8105108:	4805      	ldr	r0, [pc, #20]	; (8105120 <MX_GPIO_Init+0xb0>)
 810510a:	f000 fc33 	bl	8105974 <HAL_GPIO_Init>

}
 810510e:	bf00      	nop
 8105110:	3720      	adds	r7, #32
 8105112:	46bd      	mov	sp, r7
 8105114:	bd80      	pop	{r7, pc}
 8105116:	bf00      	nop
 8105118:	58024400 	.word	0x58024400
 810511c:	58020000 	.word	0x58020000
 8105120:	58020400 	.word	0x58020400

08105124 <HAL_TIM_PeriodElapsedCallback>:
  * a global variable "uwTick" used as application time base.
  * @param  htim : TIM handle
  * @retval None
  */
void HAL_TIM_PeriodElapsedCallback(TIM_HandleTypeDef *htim)
{
 8105124:	b580      	push	{r7, lr}
 8105126:	b082      	sub	sp, #8
 8105128:	af00      	add	r7, sp, #0
 810512a:	6078      	str	r0, [r7, #4]
  /* USER CODE BEGIN Callback 0 */

  /* USER CODE END Callback 0 */
  if (htim->Instance == TIM2) {
 810512c:	687b      	ldr	r3, [r7, #4]
 810512e:	681b      	ldr	r3, [r3, #0]
 8105130:	f1b3 4f80 	cmp.w	r3, #1073741824	; 0x40000000
 8105134:	d101      	bne.n	810513a <HAL_TIM_PeriodElapsedCallback+0x16>
    HAL_IncTick();
 8105136:	f000 fa99 	bl	810566c <HAL_IncTick>
  }
  /* USER CODE BEGIN Callback 1 */

  /* USER CODE END Callback 1 */
}
 810513a:	bf00      	nop
 810513c:	3708      	adds	r7, #8
 810513e:	46bd      	mov	sp, r7
 8105140:	bd80      	pop	{r7, pc}
	...

08105144 <HAL_MspInit>:
/* USER CODE END 0 */
/**
  * Initializes the Global MSP.
  */
void HAL_MspInit(void)
{
 8105144:	b480      	push	{r7}
 8105146:	b083      	sub	sp, #12
 8105148:	af00      	add	r7, sp, #0
  /* USER CODE BEGIN MspInit 0 */

  /* USER CODE END MspInit 0 */

  __HAL_RCC_SYSCFG_CLK_ENABLE();
 810514a:	4b0a      	ldr	r3, [pc, #40]	; (8105174 <HAL_MspInit+0x30>)
 810514c:	f8d3 30f4 	ldr.w	r3, [r3, #244]	; 0xf4
 8105150:	4a08      	ldr	r2, [pc, #32]	; (8105174 <HAL_MspInit+0x30>)
 8105152:	f043 0302 	orr.w	r3, r3, #2
 8105156:	f8c2 30f4 	str.w	r3, [r2, #244]	; 0xf4
 810515a:	4b06      	ldr	r3, [pc, #24]	; (8105174 <HAL_MspInit+0x30>)
 810515c:	f8d3 30f4 	ldr.w	r3, [r3, #244]	; 0xf4
 8105160:	f003 0302 	and.w	r3, r3, #2
 8105164:	607b      	str	r3, [r7, #4]
 8105166:	687b      	ldr	r3, [r7, #4]
  /* System interrupt init*/

  /* USER CODE BEGIN MspInit 1 */

  /* USER CODE END MspInit 1 */
}
 8105168:	bf00      	nop
 810516a:	370c      	adds	r7, #12
 810516c:	46bd      	mov	sp, r7
 810516e:	f85d 7b04 	ldr.w	r7, [sp], #4
 8105172:	4770      	bx	lr
 8105174:	58024400 	.word	0x58024400

08105178 <HAL_InitTick>:
  *         reset by HAL_Init() or at any time when clock is configured, by HAL_RCC_ClockConfig().
  * @param  TickPriority: Tick interrupt priority.
  * @retval HAL status
  */
HAL_StatusTypeDef HAL_InitTick(uint32_t TickPriority)
{
 8105178:	b580      	push	{r7, lr}
 810517a:	b090      	sub	sp, #64	; 0x40
 810517c:	af00      	add	r7, sp, #0
 810517e:	6078      	str	r0, [r7, #4]
  uint32_t              uwTimclock, uwAPB1Prescaler;

  uint32_t              uwPrescalerValue;
  uint32_t              pFLatency;
/*Configure the TIM2 IRQ priority */
  if (TickPriority < (1UL << __NVIC_PRIO_BITS))
 8105180:	687b      	ldr	r3, [r7, #4]
 8105182:	2b0f      	cmp	r3, #15
 8105184:	d827      	bhi.n	81051d6 <HAL_InitTick+0x5e>
  {
  HAL_NVIC_SetPriority(TIM2_IRQn, TickPriority ,0U);
 8105186:	2200      	movs	r2, #0
 8105188:	6879      	ldr	r1, [r7, #4]
 810518a:	201c      	movs	r0, #28
 810518c:	f000 fb3a 	bl	8105804 <HAL_NVIC_SetPriority>

  /* Enable the TIM2 global Interrupt */
  HAL_NVIC_EnableIRQ(TIM2_IRQn);
 8105190:	201c      	movs	r0, #28
 8105192:	f000 fb51 	bl	8105838 <HAL_NVIC_EnableIRQ>
    uwTickPrio = TickPriority;
 8105196:	4a29      	ldr	r2, [pc, #164]	; (810523c <HAL_InitTick+0xc4>)
 8105198:	687b      	ldr	r3, [r7, #4]
 810519a:	6013      	str	r3, [r2, #0]
  else
  {
    return HAL_ERROR;
  }
  /* Enable TIM2 clock */
  __HAL_RCC_TIM2_CLK_ENABLE();
 810519c:	4b28      	ldr	r3, [pc, #160]	; (8105240 <HAL_InitTick+0xc8>)
 810519e:	f8d3 30e8 	ldr.w	r3, [r3, #232]	; 0xe8
 81051a2:	4a27      	ldr	r2, [pc, #156]	; (8105240 <HAL_InitTick+0xc8>)
 81051a4:	f043 0301 	orr.w	r3, r3, #1
 81051a8:	f8c2 30e8 	str.w	r3, [r2, #232]	; 0xe8
 81051ac:	4b24      	ldr	r3, [pc, #144]	; (8105240 <HAL_InitTick+0xc8>)
 81051ae:	f8d3 30e8 	ldr.w	r3, [r3, #232]	; 0xe8
 81051b2:	f003 0301 	and.w	r3, r3, #1
 81051b6:	60fb      	str	r3, [r7, #12]
 81051b8:	68fb      	ldr	r3, [r7, #12]

  /* Get clock configuration */
  HAL_RCC_GetClockConfig(&clkconfig, &pFLatency);
 81051ba:	f107 0210 	add.w	r2, r7, #16
 81051be:	f107 0314 	add.w	r3, r7, #20
 81051c2:	4611      	mov	r1, r2
 81051c4:	4618      	mov	r0, r3
 81051c6:	f001 f88d 	bl	81062e4 <HAL_RCC_GetClockConfig>

  /* Get APB1 prescaler */
  uwAPB1Prescaler = clkconfig.APB1CLKDivider;
 81051ca:	6abb      	ldr	r3, [r7, #40]	; 0x28
 81051cc:	63bb      	str	r3, [r7, #56]	; 0x38
  /* Compute TIM2 clock */
  if (uwAPB1Prescaler == RCC_HCLK_DIV1)
 81051ce:	6bbb      	ldr	r3, [r7, #56]	; 0x38
 81051d0:	2b00      	cmp	r3, #0
 81051d2:	d106      	bne.n	81051e2 <HAL_InitTick+0x6a>
 81051d4:	e001      	b.n	81051da <HAL_InitTick+0x62>
    return HAL_ERROR;
 81051d6:	2301      	movs	r3, #1
 81051d8:	e02c      	b.n	8105234 <HAL_InitTick+0xbc>
  {
    uwTimclock = HAL_RCC_GetPCLK1Freq();
 81051da:	f001 f86d 	bl	81062b8 <HAL_RCC_GetPCLK1Freq>
 81051de:	63f8      	str	r0, [r7, #60]	; 0x3c
 81051e0:	e004      	b.n	81051ec <HAL_InitTick+0x74>
  }
  else
  {
    uwTimclock = 2UL * HAL_RCC_GetPCLK1Freq();
 81051e2:	f001 f869 	bl	81062b8 <HAL_RCC_GetPCLK1Freq>
 81051e6:	4603      	mov	r3, r0
 81051e8:	005b      	lsls	r3, r3, #1
 81051ea:	63fb      	str	r3, [r7, #60]	; 0x3c
  }

  /* Compute the prescaler value to have TIM2 counter clock equal to 1MHz */
  uwPrescalerValue = (uint32_t) ((uwTimclock / 1000000U) - 1U);
 81051ec:	6bfb      	ldr	r3, [r7, #60]	; 0x3c
 81051ee:	4a15      	ldr	r2, [pc, #84]	; (8105244 <HAL_InitTick+0xcc>)
 81051f0:	fba2 2303 	umull	r2, r3, r2, r3
 81051f4:	0c9b      	lsrs	r3, r3, #18
 81051f6:	3b01      	subs	r3, #1
 81051f8:	637b      	str	r3, [r7, #52]	; 0x34

  /* Initialize TIM2 */
  htim2.Instance = TIM2;
 81051fa:	4b13      	ldr	r3, [pc, #76]	; (8105248 <HAL_InitTick+0xd0>)
 81051fc:	f04f 4280 	mov.w	r2, #1073741824	; 0x40000000
 8105200:	601a      	str	r2, [r3, #0]
  + Period = [(TIM2CLK/1000) - 1]. to have a (1/1000) s time base.
  + Prescaler = (uwTimclock/1000000 - 1) to have a 1MHz counter clock.
  + ClockDivision = 0
  + Counter direction = Up
  */
  htim2.Init.Period = (1000000U / 1000U) - 1U;
 8105202:	4b11      	ldr	r3, [pc, #68]	; (8105248 <HAL_InitTick+0xd0>)
 8105204:	f240 32e7 	movw	r2, #999	; 0x3e7
 8105208:	60da      	str	r2, [r3, #12]
  htim2.Init.Prescaler = uwPrescalerValue;
 810520a:	4a0f      	ldr	r2, [pc, #60]	; (8105248 <HAL_InitTick+0xd0>)
 810520c:	6b7b      	ldr	r3, [r7, #52]	; 0x34
 810520e:	6053      	str	r3, [r2, #4]
  htim2.Init.ClockDivision = 0;
 8105210:	4b0d      	ldr	r3, [pc, #52]	; (8105248 <HAL_InitTick+0xd0>)
 8105212:	2200      	movs	r2, #0
 8105214:	611a      	str	r2, [r3, #16]
  htim2.Init.CounterMode = TIM_COUNTERMODE_UP;
 8105216:	4b0c      	ldr	r3, [pc, #48]	; (8105248 <HAL_InitTick+0xd0>)
 8105218:	2200      	movs	r2, #0
 810521a:	609a      	str	r2, [r3, #8]
  if(HAL_TIM_Base_Init(&htim2) == HAL_OK)
 810521c:	480a      	ldr	r0, [pc, #40]	; (8105248 <HAL_InitTick+0xd0>)
 810521e:	f001 f8a3 	bl	8106368 <HAL_TIM_Base_Init>
 8105222:	4603      	mov	r3, r0
 8105224:	2b00      	cmp	r3, #0
 8105226:	d104      	bne.n	8105232 <HAL_InitTick+0xba>
  {
    /* Start the TIM time Base generation in interrupt mode */
    return HAL_TIM_Base_Start_IT(&htim2);
 8105228:	4807      	ldr	r0, [pc, #28]	; (8105248 <HAL_InitTick+0xd0>)
 810522a:	f001 f8ff 	bl	810642c <HAL_TIM_Base_Start_IT>
 810522e:	4603      	mov	r3, r0
 8105230:	e000      	b.n	8105234 <HAL_InitTick+0xbc>
  }

  /* Return function status */
  return HAL_ERROR;
 8105232:	2301      	movs	r3, #1
}
 8105234:	4618      	mov	r0, r3
 8105236:	3740      	adds	r7, #64	; 0x40
 8105238:	46bd      	mov	sp, r7
 810523a:	bd80      	pop	{r7, pc}
 810523c:	10001800 	.word	0x10001800
 8105240:	58024400 	.word	0x58024400
 8105244:	431bde83 	.word	0x431bde83
 8105248:	10001890 	.word	0x10001890

0810524c <NMI_Handler>:
/******************************************************************************/
/**
  * @brief This function handles Non maskable interrupt.
  */
void NMI_Handler(void)
{
 810524c:	b480      	push	{r7}
 810524e:	af00      	add	r7, sp, #0
  /* USER CODE BEGIN NonMaskableInt_IRQn 0 */

  /* USER CODE END NonMaskableInt_IRQn 0 */
  /* USER CODE BEGIN NonMaskableInt_IRQn 1 */
  while (1)
 8105250:	e7fe      	b.n	8105250 <NMI_Handler+0x4>

08105252 <HardFault_Handler>:

/**
  * @brief This function handles Hard fault interrupt.
  */
void HardFault_Handler(void)
{
 8105252:	b480      	push	{r7}
 8105254:	af00      	add	r7, sp, #0
  /* USER CODE BEGIN HardFault_IRQn 0 */

  /* USER CODE END HardFault_IRQn 0 */
  while (1)
 8105256:	e7fe      	b.n	8105256 <HardFault_Handler+0x4>

08105258 <MemManage_Handler>:

/**
  * @brief This function handles Memory management fault.
  */
void MemManage_Handler(void)
{
 8105258:	b480      	push	{r7}
 810525a:	af00      	add	r7, sp, #0
  /* USER CODE BEGIN MemoryManagement_IRQn 0 */

  /* USER CODE END MemoryManagement_IRQn 0 */
  while (1)
 810525c:	e7fe      	b.n	810525c <MemManage_Handler+0x4>

0810525e <BusFault_Handler>:

/**
  * @brief This function handles Pre-fetch fault, memory access fault.
  */
void BusFault_Handler(void)
{
 810525e:	b480      	push	{r7}
 8105260:	af00      	add	r7, sp, #0
  /* USER CODE BEGIN BusFault_IRQn 0 */

  /* USER CODE END BusFault_IRQn 0 */
  while (1)
 8105262:	e7fe      	b.n	8105262 <BusFault_Handler+0x4>

08105264 <UsageFault_Handler>:

/**
  * @brief This function handles Undefined instruction or illegal state.
  */
void UsageFault_Handler(void)
{
 8105264:	b480      	push	{r7}
 8105266:	af00      	add	r7, sp, #0
  /* USER CODE BEGIN UsageFault_IRQn 0 */

  /* USER CODE END UsageFault_IRQn 0 */
  while (1)
 8105268:	e7fe      	b.n	8105268 <UsageFault_Handler+0x4>

0810526a <DebugMon_Handler>:

/**
  * @brief This function handles Debug monitor.
  */
void DebugMon_Handler(void)
{
 810526a:	b480      	push	{r7}
 810526c:	af00      	add	r7, sp, #0

  /* USER CODE END DebugMonitor_IRQn 0 */
  /* USER CODE BEGIN DebugMonitor_IRQn 1 */

  /* USER CODE END DebugMonitor_IRQn 1 */
}
 810526e:	bf00      	nop
 8105270:	46bd      	mov	sp, r7
 8105272:	f85d 7b04 	ldr.w	r7, [sp], #4
 8105276:	4770      	bx	lr

08105278 <TIM2_IRQHandler>:

/**
  * @brief This function handles TIM2 global interrupt.
  */
void TIM2_IRQHandler(void)
{
 8105278:	b580      	push	{r7, lr}
 810527a:	af00      	add	r7, sp, #0
  /* USER CODE BEGIN TIM2_IRQn 0 */

  /* USER CODE END TIM2_IRQn 0 */
  HAL_TIM_IRQHandler(&htim2);
 810527c:	4802      	ldr	r0, [pc, #8]	; (8105288 <TIM2_IRQHandler+0x10>)
 810527e:	f001 f90b 	bl	8106498 <HAL_TIM_IRQHandler>
  /* USER CODE BEGIN TIM2_IRQn 1 */

  /* USER CODE END TIM2_IRQn 1 */
}
 8105282:	bf00      	nop
 8105284:	bd80      	pop	{r7, pc}
 8105286:	bf00      	nop
 8105288:	10001890 	.word	0x10001890

0810528c <osBoot_boot>:
{
 810528c:	b580      	push	{r7, lr}
 810528e:	b08c      	sub	sp, #48	; 0x30
 8105290:	af00      	add	r7, sp, #0
	coreId = CILcore_getCoreId();
 8105292:	f7fd f875 	bl	8102380 <CILcore_getCoreId>
 8105296:	62b8      	str	r0, [r7, #40]	; 0x28
	programSections = (CosmOS_ProgramSectionConfigurationType *)bootSections[coreId].programSections;
 8105298:	4a29      	ldr	r2, [pc, #164]	; (8105340 <osBoot_boot+0xb4>)
 810529a:	6abb      	ldr	r3, [r7, #40]	; 0x28
 810529c:	f852 3033 	ldr.w	r3, [r2, r3, lsl #3]
 81052a0:	627b      	str	r3, [r7, #36]	; 0x24
	programSectionsNumber = bootSections[coreId].programSectionsNumber;
 81052a2:	4a27      	ldr	r2, [pc, #156]	; (8105340 <osBoot_boot+0xb4>)
 81052a4:	6abb      	ldr	r3, [r7, #40]	; 0x28
 81052a6:	00db      	lsls	r3, r3, #3
 81052a8:	4413      	add	r3, r2
 81052aa:	685b      	ldr	r3, [r3, #4]
 81052ac:	623b      	str	r3, [r7, #32]
	for (BitWidthType i=0; i < programSectionsNumber; i++)
 81052ae:	2300      	movs	r3, #0
 81052b0:	62fb      	str	r3, [r7, #44]	; 0x2c
 81052b2:	e03c      	b.n	810532e <osBoot_boot+0xa2>
		osBoot_bootSection(programSections[i].startAddress,programSections[i].endAddress,programSections[i].flashAddress);
 81052b4:	6afa      	ldr	r2, [r7, #44]	; 0x2c
 81052b6:	4613      	mov	r3, r2
 81052b8:	005b      	lsls	r3, r3, #1
 81052ba:	4413      	add	r3, r2
 81052bc:	009b      	lsls	r3, r3, #2
 81052be:	461a      	mov	r2, r3
 81052c0:	6a7b      	ldr	r3, [r7, #36]	; 0x24
 81052c2:	4413      	add	r3, r2
 81052c4:	6818      	ldr	r0, [r3, #0]
 81052c6:	6afa      	ldr	r2, [r7, #44]	; 0x2c
 81052c8:	4613      	mov	r3, r2
 81052ca:	005b      	lsls	r3, r3, #1
 81052cc:	4413      	add	r3, r2
 81052ce:	009b      	lsls	r3, r3, #2
 81052d0:	461a      	mov	r2, r3
 81052d2:	6a7b      	ldr	r3, [r7, #36]	; 0x24
 81052d4:	4413      	add	r3, r2
 81052d6:	6859      	ldr	r1, [r3, #4]
 81052d8:	6afa      	ldr	r2, [r7, #44]	; 0x2c
 81052da:	4613      	mov	r3, r2
 81052dc:	005b      	lsls	r3, r3, #1
 81052de:	4413      	add	r3, r2
 81052e0:	009b      	lsls	r3, r3, #2
 81052e2:	461a      	mov	r2, r3
 81052e4:	6a7b      	ldr	r3, [r7, #36]	; 0x24
 81052e6:	4413      	add	r3, r2
 81052e8:	689b      	ldr	r3, [r3, #8]
 81052ea:	61f8      	str	r0, [r7, #28]
 81052ec:	61b9      	str	r1, [r7, #24]
 81052ee:	617b      	str	r3, [r7, #20]
	BitWidthType size = (BitWidthType)(sectionEnd - sectionStart);
 81052f0:	69ba      	ldr	r2, [r7, #24]
 81052f2:	69fb      	ldr	r3, [r7, #28]
 81052f4:	1ad3      	subs	r3, r2, r3
 81052f6:	613b      	str	r3, [r7, #16]
	unsigned char *pDst = sectionStart;
 81052f8:	69fb      	ldr	r3, [r7, #28]
 81052fa:	60fb      	str	r3, [r7, #12]
	unsigned char *pSrc = sectionStartInFlash;
 81052fc:	697b      	ldr	r3, [r7, #20]
 81052fe:	60bb      	str	r3, [r7, #8]
	for ( BitWidthType i = 0; i < (size * sizeof(BitWidthType)); i++ )
 8105300:	2300      	movs	r3, #0
 8105302:	607b      	str	r3, [r7, #4]
 8105304:	e00a      	b.n	810531c <osBoot_boot+0x90>
		*pDst++=*pSrc++;
 8105306:	68ba      	ldr	r2, [r7, #8]
 8105308:	1c53      	adds	r3, r2, #1
 810530a:	60bb      	str	r3, [r7, #8]
 810530c:	68fb      	ldr	r3, [r7, #12]
 810530e:	1c59      	adds	r1, r3, #1
 8105310:	60f9      	str	r1, [r7, #12]
 8105312:	7812      	ldrb	r2, [r2, #0]
 8105314:	701a      	strb	r2, [r3, #0]
	for ( BitWidthType i = 0; i < (size * sizeof(BitWidthType)); i++ )
 8105316:	687b      	ldr	r3, [r7, #4]
 8105318:	3301      	adds	r3, #1
 810531a:	607b      	str	r3, [r7, #4]
 810531c:	693b      	ldr	r3, [r7, #16]
 810531e:	009b      	lsls	r3, r3, #2
 8105320:	687a      	ldr	r2, [r7, #4]
 8105322:	429a      	cmp	r2, r3
 8105324:	d3ef      	bcc.n	8105306 <osBoot_boot+0x7a>
}
 8105326:	bf00      	nop
	for (BitWidthType i=0; i < programSectionsNumber; i++)
 8105328:	6afb      	ldr	r3, [r7, #44]	; 0x2c
 810532a:	3301      	adds	r3, #1
 810532c:	62fb      	str	r3, [r7, #44]	; 0x2c
 810532e:	6afa      	ldr	r2, [r7, #44]	; 0x2c
 8105330:	6a3b      	ldr	r3, [r7, #32]
 8105332:	429a      	cmp	r2, r3
 8105334:	d3be      	bcc.n	81052b4 <osBoot_boot+0x28>
};
 8105336:	bf00      	nop
 8105338:	bf00      	nop
 810533a:	3730      	adds	r7, #48	; 0x30
 810533c:	46bd      	mov	sp, r7
 810533e:	bd80      	pop	{r7, pc}
 8105340:	08106a90 	.word	0x08106a90

08105344 <malloc_varAlloc>:
  *
  * @return CosmOS_MallocVariableType *
********************************************************************************/
static CosmOS_MallocVariableType * malloc_varAlloc( AddressType nextAvailableAddress, AddressType priorMallocAddress,\
													AddressType nextMallocAddress, BitWidthType size )
{
 8105344:	b480      	push	{r7}
 8105346:	b087      	sub	sp, #28
 8105348:	af00      	add	r7, sp, #0
 810534a:	60f8      	str	r0, [r7, #12]
 810534c:	60b9      	str	r1, [r7, #8]
 810534e:	607a      	str	r2, [r7, #4]
 8105350:	603b      	str	r3, [r7, #0]
	CosmOS_MallocVariableType * newMallocVar = (CosmOS_MallocVariableType *)nextAvailableAddress;
 8105352:	68fb      	ldr	r3, [r7, #12]
 8105354:	617b      	str	r3, [r7, #20]

	newMallocVar->prior = (CosmOS_MallocVariableType *)priorMallocAddress;
 8105356:	68ba      	ldr	r2, [r7, #8]
 8105358:	697b      	ldr	r3, [r7, #20]
 810535a:	601a      	str	r2, [r3, #0]
	newMallocVar->next = (CosmOS_MallocVariableType *)nextMallocAddress;
 810535c:	687a      	ldr	r2, [r7, #4]
 810535e:	697b      	ldr	r3, [r7, #20]
 8105360:	605a      	str	r2, [r3, #4]
	newMallocVar->size = (ALIGN(sizeof(CosmOS_MallocVariableType),sizeof(AddressType)) + \
							(AddressType)ALIGN(size,sizeof(AddressType)));
 8105362:	683b      	ldr	r3, [r7, #0]
 8105364:	3303      	adds	r3, #3
 8105366:	f023 0303 	bic.w	r3, r3, #3
	newMallocVar->size = (ALIGN(sizeof(CosmOS_MallocVariableType),sizeof(AddressType)) + \
 810536a:	f103 020c 	add.w	r2, r3, #12
 810536e:	697b      	ldr	r3, [r7, #20]
 8105370:	609a      	str	r2, [r3, #8]

	return newMallocVar;
 8105372:	697b      	ldr	r3, [r7, #20]
}
 8105374:	4618      	mov	r0, r3
 8105376:	371c      	adds	r7, #28
 8105378:	46bd      	mov	sp, r7
 810537a:	f85d 7b04 	ldr.w	r7, [sp], #4
 810537e:	4770      	bx	lr

08105380 <malloc>:
  * @param[in]  size_t size
  *
  * @return void *
********************************************************************************/
void *malloc(size_t size)
{
 8105380:	b580      	push	{r7, lr}
 8105382:	b094      	sub	sp, #80	; 0x50
 8105384:	af00      	add	r7, sp, #0
 8105386:	6078      	str	r0, [r7, #4]
	CosmOS_ProgramVariableType *programVar;
	CosmOS_MallocVariableType *currentMallocVar,
								*newMallocVar;


	coreVar = core_getCoreVar();
 8105388:	f7fb ffba 	bl	8101300 <core_getCoreVar>
 810538c:	6438      	str	r0, [r7, #64]	; 0x40
 810538e:	6c3b      	ldr	r3, [r7, #64]	; 0x40
 8105390:	60fb      	str	r3, [r7, #12]
    return (core->programInExecution);
 8105392:	68fb      	ldr	r3, [r7, #12]
 8105394:	689b      	ldr	r3, [r3, #8]

	programVar = core_getCoreProgramInExecution(coreVar);
 8105396:	63fb      	str	r3, [r7, #60]	; 0x3c
 8105398:	6bfb      	ldr	r3, [r7, #60]	; 0x3c
 810539a:	613b      	str	r3, [r7, #16]
    return (program->cfg->programHeapLowAddress);
 810539c:	693b      	ldr	r3, [r7, #16]
 810539e:	681b      	ldr	r3, [r3, #0]
 81053a0:	69db      	ldr	r3, [r3, #28]

	heapLowAddress = program_getProgramHeapLowAddress(programVar);
 81053a2:	63bb      	str	r3, [r7, #56]	; 0x38
 81053a4:	6bfb      	ldr	r3, [r7, #60]	; 0x3c
 81053a6:	617b      	str	r3, [r7, #20]
    return (program->cfg->programHeapHighAddress);
 81053a8:	697b      	ldr	r3, [r7, #20]
 81053aa:	681b      	ldr	r3, [r3, #0]
 81053ac:	6a1b      	ldr	r3, [r3, #32]
	heapHighAddress = program_getProgramHeapHighAddress(programVar);
 81053ae:	637b      	str	r3, [r7, #52]	; 0x34
 81053b0:	6bfb      	ldr	r3, [r7, #60]	; 0x3c
 81053b2:	61bb      	str	r3, [r7, #24]
    return (program->cfg->programHeapGetSpinlockRouteId);
 81053b4:	69bb      	ldr	r3, [r7, #24]
 81053b6:	681b      	ldr	r3, [r3, #0]
 81053b8:	6a5b      	ldr	r3, [r3, #36]	; 0x24

	getSpinlockRouteId = program_getProgramHeapGetSpinlockRouteId(programVar);
 81053ba:	633b      	str	r3, [r7, #48]	; 0x30
 81053bc:	6bfb      	ldr	r3, [r7, #60]	; 0x3c
 81053be:	61fb      	str	r3, [r7, #28]
    return (program->cfg->programHeapReleaseSpinlockRouteId);
 81053c0:	69fb      	ldr	r3, [r7, #28]
 81053c2:	681b      	ldr	r3, [r3, #0]
 81053c4:	6a9b      	ldr	r3, [r3, #40]	; 0x28
	releaseSpinlockRouteId = program_getProgramHeapReleaseSpinlockRouteId(programVar);
 81053c6:	62fb      	str	r3, [r7, #44]	; 0x2c

	allocated = False;
 81053c8:	2300      	movs	r3, #0
 81053ca:	f887 304b 	strb.w	r3, [r7, #75]	; 0x4b
	lastItem = False;
 81053ce:	2300      	movs	r3, #0
 81053d0:	f887 304a 	strb.w	r3, [r7, #74]	; 0x4a
	currentMallocVar = (CosmOS_MallocVariableType *)heapLowAddress;
 81053d4:	6bbb      	ldr	r3, [r7, #56]	; 0x38
 81053d6:	647b      	str	r3, [r7, #68]	; 0x44
	returnAddress = (AddressType)NULL;
 81053d8:	2300      	movs	r3, #0
 81053da:	64fb      	str	r3, [r7, #76]	; 0x4c

	spinlockState = (CosmOS_SpinlockStateType)sysCalls_bitWidthType_ret_bitWidthType(getSpinlockRouteId);
 81053dc:	6b38      	ldr	r0, [r7, #48]	; 0x30
 81053de:	f7fc ff1e 	bl	810221e <sysCalls_bitWidthType_ret_bitWidthType>
 81053e2:	62b8      	str	r0, [r7, #40]	; 0x28

	while (IS_NOT(lastItem) __OR IS_NOT(allocated))
 81053e4:	e049      	b.n	810547a <malloc+0xfa>
	{
		if (currentMallocVar->next IS_NOT_EQUAL_TO NULL)
 81053e6:	6c7b      	ldr	r3, [r7, #68]	; 0x44
 81053e8:	685b      	ldr	r3, [r3, #4]
 81053ea:	2b00      	cmp	r3, #0
 81053ec:	d027      	beq.n	810543e <malloc+0xbe>
		{
			nextAvailableAddress = (AddressType)currentMallocVar + (AddressType)currentMallocVar->size;
 81053ee:	6c7b      	ldr	r3, [r7, #68]	; 0x44
 81053f0:	689a      	ldr	r2, [r3, #8]
 81053f2:	6c7b      	ldr	r3, [r7, #68]	; 0x44
 81053f4:	4413      	add	r3, r2
 81053f6:	627b      	str	r3, [r7, #36]	; 0x24
			if (size < ((AddressType)currentMallocVar->next - nextAvailableAddress))
 81053f8:	6c7b      	ldr	r3, [r7, #68]	; 0x44
 81053fa:	685b      	ldr	r3, [r3, #4]
 81053fc:	461a      	mov	r2, r3
 81053fe:	6a7b      	ldr	r3, [r7, #36]	; 0x24
 8105400:	1ad3      	subs	r3, r2, r3
 8105402:	687a      	ldr	r2, [r7, #4]
 8105404:	429a      	cmp	r2, r3
 8105406:	d216      	bcs.n	8105436 <malloc+0xb6>
			{
				newMallocVar = malloc_varAlloc(nextAvailableAddress,
 8105408:	6c79      	ldr	r1, [r7, #68]	; 0x44
												(AddressType)currentMallocVar,
												(AddressType)currentMallocVar->next,
 810540a:	6c7b      	ldr	r3, [r7, #68]	; 0x44
 810540c:	685b      	ldr	r3, [r3, #4]
				newMallocVar = malloc_varAlloc(nextAvailableAddress,
 810540e:	461a      	mov	r2, r3
 8105410:	687b      	ldr	r3, [r7, #4]
 8105412:	6a78      	ldr	r0, [r7, #36]	; 0x24
 8105414:	f7ff ff96 	bl	8105344 <malloc_varAlloc>
 8105418:	6238      	str	r0, [r7, #32]
												size);

				((CosmOS_MallocVariableType *)currentMallocVar->next)->prior = newMallocVar;
 810541a:	6c7b      	ldr	r3, [r7, #68]	; 0x44
 810541c:	685b      	ldr	r3, [r3, #4]
 810541e:	6a3a      	ldr	r2, [r7, #32]
 8105420:	601a      	str	r2, [r3, #0]
				currentMallocVar->next = newMallocVar;
 8105422:	6c7b      	ldr	r3, [r7, #68]	; 0x44
 8105424:	6a3a      	ldr	r2, [r7, #32]
 8105426:	605a      	str	r2, [r3, #4]

				returnAddress = (AddressType)newMallocVar +
 8105428:	6a3b      	ldr	r3, [r7, #32]
 810542a:	330c      	adds	r3, #12
 810542c:	64fb      	str	r3, [r7, #76]	; 0x4c
								(AddressType)ALIGN(sizeof(CosmOS_MallocVariableType), sizeof(AddressType));
				allocated = True;
 810542e:	2301      	movs	r3, #1
 8105430:	f887 304b 	strb.w	r3, [r7, #75]	; 0x4b
 8105434:	e021      	b.n	810547a <malloc+0xfa>
			}
			else
			{
				currentMallocVar = currentMallocVar->next;
 8105436:	6c7b      	ldr	r3, [r7, #68]	; 0x44
 8105438:	685b      	ldr	r3, [r3, #4]
 810543a:	647b      	str	r3, [r7, #68]	; 0x44
 810543c:	e01d      	b.n	810547a <malloc+0xfa>
			}
		}
		else
		{
			nextAvailableAddress = (AddressType)currentMallocVar + (AddressType)currentMallocVar->size;
 810543e:	6c7b      	ldr	r3, [r7, #68]	; 0x44
 8105440:	689a      	ldr	r2, [r3, #8]
 8105442:	6c7b      	ldr	r3, [r7, #68]	; 0x44
 8105444:	4413      	add	r3, r2
 8105446:	627b      	str	r3, [r7, #36]	; 0x24
			if (size < (heapHighAddress - nextAvailableAddress))
 8105448:	6b7a      	ldr	r2, [r7, #52]	; 0x34
 810544a:	6a7b      	ldr	r3, [r7, #36]	; 0x24
 810544c:	1ad3      	subs	r3, r2, r3
 810544e:	687a      	ldr	r2, [r7, #4]
 8105450:	429a      	cmp	r2, r3
 8105452:	d20f      	bcs.n	8105474 <malloc+0xf4>
			{
				newMallocVar = malloc_varAlloc(nextAvailableAddress,
 8105454:	6c79      	ldr	r1, [r7, #68]	; 0x44
 8105456:	687b      	ldr	r3, [r7, #4]
 8105458:	2200      	movs	r2, #0
 810545a:	6a78      	ldr	r0, [r7, #36]	; 0x24
 810545c:	f7ff ff72 	bl	8105344 <malloc_varAlloc>
 8105460:	6238      	str	r0, [r7, #32]
												(AddressType)currentMallocVar,
												(AddressType)NULL,
												size);

				currentMallocVar->next = newMallocVar;
 8105462:	6c7b      	ldr	r3, [r7, #68]	; 0x44
 8105464:	6a3a      	ldr	r2, [r7, #32]
 8105466:	605a      	str	r2, [r3, #4]

				returnAddress = (AddressType)newMallocVar +
 8105468:	6a3b      	ldr	r3, [r7, #32]
 810546a:	330c      	adds	r3, #12
 810546c:	64fb      	str	r3, [r7, #76]	; 0x4c
								(AddressType)ALIGN(sizeof(CosmOS_MallocVariableType), sizeof(AddressType));
				allocated = True;
 810546e:	2301      	movs	r3, #1
 8105470:	f887 304b 	strb.w	r3, [r7, #75]	; 0x4b
			}
			lastItem = True;
 8105474:	2301      	movs	r3, #1
 8105476:	f887 304a 	strb.w	r3, [r7, #74]	; 0x4a
	while (IS_NOT(lastItem) __OR IS_NOT(allocated))
 810547a:	f897 304a 	ldrb.w	r3, [r7, #74]	; 0x4a
 810547e:	2b00      	cmp	r3, #0
 8105480:	d0b1      	beq.n	81053e6 <malloc+0x66>
 8105482:	f897 304b 	ldrb.w	r3, [r7, #75]	; 0x4b
 8105486:	2b00      	cmp	r3, #0
 8105488:	d0ad      	beq.n	81053e6 <malloc+0x66>
		}
	}

	spinlockState = (CosmOS_SpinlockStateType)sysCalls_bitWidthType_ret_bitWidthType(releaseSpinlockRouteId);
 810548a:	6af8      	ldr	r0, [r7, #44]	; 0x2c
 810548c:	f7fc fec7 	bl	810221e <sysCalls_bitWidthType_ret_bitWidthType>
 8105490:	62b8      	str	r0, [r7, #40]	; 0x28

	__SUPRESS_UNUSED_VAR(spinlockState);

	return (void *)returnAddress;
 8105492:	6cfb      	ldr	r3, [r7, #76]	; 0x4c
}
 8105494:	4618      	mov	r0, r3
 8105496:	3750      	adds	r7, #80	; 0x50
 8105498:	46bd      	mov	sp, r7
 810549a:	bd80      	pop	{r7, pc}

0810549c <free>:
  * @param[in]  void * ptr
  *
  * @return none
********************************************************************************/
void free(void *ptr)
{
 810549c:	b580      	push	{r7, lr}
 810549e:	b08c      	sub	sp, #48	; 0x30
 81054a0:	af00      	add	r7, sp, #0
 81054a2:	6078      	str	r0, [r7, #4]

	CosmOS_CoreVariableType *coreVar;
	CosmOS_ProgramVariableType *programVar;

	CosmOS_MallocVariableType *mallocVarToFree =
	(CosmOS_MallocVariableType *)((AddressType)ptr - ALIGN(sizeof(CosmOS_MallocVariableType), sizeof(AddressType)));
 81054a4:	687b      	ldr	r3, [r7, #4]
 81054a6:	3b0c      	subs	r3, #12
	CosmOS_MallocVariableType *mallocVarToFree =
 81054a8:	62fb      	str	r3, [r7, #44]	; 0x2c


	coreVar = core_getCoreVar();
 81054aa:	f7fb ff29 	bl	8101300 <core_getCoreVar>
 81054ae:	62b8      	str	r0, [r7, #40]	; 0x28
 81054b0:	6abb      	ldr	r3, [r7, #40]	; 0x28
 81054b2:	60fb      	str	r3, [r7, #12]
 81054b4:	68fb      	ldr	r3, [r7, #12]
 81054b6:	689b      	ldr	r3, [r3, #8]

	programVar = core_getCoreProgramInExecution(coreVar);
 81054b8:	627b      	str	r3, [r7, #36]	; 0x24
 81054ba:	6a7b      	ldr	r3, [r7, #36]	; 0x24
 81054bc:	613b      	str	r3, [r7, #16]
    return (program->cfg->programHeapGetSpinlockRouteId);
 81054be:	693b      	ldr	r3, [r7, #16]
 81054c0:	681b      	ldr	r3, [r3, #0]
 81054c2:	6a5b      	ldr	r3, [r3, #36]	; 0x24

	getSpinlockRouteId = program_getProgramHeapGetSpinlockRouteId(programVar);
 81054c4:	623b      	str	r3, [r7, #32]
 81054c6:	6a7b      	ldr	r3, [r7, #36]	; 0x24
 81054c8:	617b      	str	r3, [r7, #20]
    return (program->cfg->programHeapReleaseSpinlockRouteId);
 81054ca:	697b      	ldr	r3, [r7, #20]
 81054cc:	681b      	ldr	r3, [r3, #0]
 81054ce:	6a9b      	ldr	r3, [r3, #40]	; 0x28
	releaseSpinlockRouteId = program_getProgramHeapReleaseSpinlockRouteId(programVar);
 81054d0:	61fb      	str	r3, [r7, #28]

	spinlockState = (CosmOS_SpinlockStateType)sysCalls_bitWidthType_ret_bitWidthType(getSpinlockRouteId);
 81054d2:	6a38      	ldr	r0, [r7, #32]
 81054d4:	f7fc fea3 	bl	810221e <sysCalls_bitWidthType_ret_bitWidthType>
 81054d8:	61b8      	str	r0, [r7, #24]

	if (mallocVarToFree->prior)
 81054da:	6afb      	ldr	r3, [r7, #44]	; 0x2c
 81054dc:	681b      	ldr	r3, [r3, #0]
 81054de:	2b00      	cmp	r3, #0
 81054e0:	d004      	beq.n	81054ec <free+0x50>
	{
		((CosmOS_MallocVariableType *)mallocVarToFree->prior)->next =
 81054e2:	6afb      	ldr	r3, [r7, #44]	; 0x2c
 81054e4:	681b      	ldr	r3, [r3, #0]
			mallocVarToFree->next ? mallocVarToFree->next : NULL;
 81054e6:	6afa      	ldr	r2, [r7, #44]	; 0x2c
 81054e8:	6852      	ldr	r2, [r2, #4]
		((CosmOS_MallocVariableType *)mallocVarToFree->prior)->next =
 81054ea:	605a      	str	r2, [r3, #4]
	}

	if (mallocVarToFree->next)
 81054ec:	6afb      	ldr	r3, [r7, #44]	; 0x2c
 81054ee:	685b      	ldr	r3, [r3, #4]
 81054f0:	2b00      	cmp	r3, #0
 81054f2:	d004      	beq.n	81054fe <free+0x62>
	{
		((CosmOS_MallocVariableType *)mallocVarToFree->next)->prior =
 81054f4:	6afb      	ldr	r3, [r7, #44]	; 0x2c
 81054f6:	685b      	ldr	r3, [r3, #4]
			mallocVarToFree->prior ? mallocVarToFree->prior : NULL;
 81054f8:	6afa      	ldr	r2, [r7, #44]	; 0x2c
 81054fa:	6812      	ldr	r2, [r2, #0]
		((CosmOS_MallocVariableType *)mallocVarToFree->next)->prior =
 81054fc:	601a      	str	r2, [r3, #0]
	}

	spinlockState = (CosmOS_SpinlockStateType)sysCalls_bitWidthType_ret_bitWidthType(releaseSpinlockRouteId);
 81054fe:	69f8      	ldr	r0, [r7, #28]
 8105500:	f7fc fe8d 	bl	810221e <sysCalls_bitWidthType_ret_bitWidthType>
 8105504:	61b8      	str	r0, [r7, #24]

	__SUPRESS_UNUSED_VAR(spinlockState);
}
 8105506:	bf00      	nop
 8105508:	3730      	adds	r7, #48	; 0x30
 810550a:	46bd      	mov	sp, r7
 810550c:	bd80      	pop	{r7, pc}

0810550e <interrupt_enableInterrupts>:
  * @param[in] BitWidthType entityId
  *
  * @return none
********************************************************************************/
__STATIC_FORCEINLINE void interrupt_enableInterrupts(BitWidthType entityId)
{
 810550e:	b480      	push	{r7}
 8105510:	b083      	sub	sp, #12
 8105512:	af00      	add	r7, sp, #0
 8105514:	6078      	str	r0, [r7, #4]
  __ASM volatile ("cpsie i" : : : "memory");
 8105516:	b662      	cpsie	i
}
 8105518:	bf00      	nop
 810551a:	bf00      	nop
	CILinterrupt_enableInterrupts();

	__SUPRESS_UNUSED_VAR(entityId);
}
 810551c:	bf00      	nop
 810551e:	370c      	adds	r7, #12
 8105520:	46bd      	mov	sp, r7
 8105522:	f85d 7b04 	ldr.w	r7, [sp], #4
 8105526:	4770      	bx	lr

08105528 <interrupt_disableInterrupts>:
  * @param[in]  BitWidthType entityId
  *
  * @return none
********************************************************************************/
__STATIC_FORCEINLINE void interrupt_disableInterrupts(BitWidthType entityId)
{
 8105528:	b480      	push	{r7}
 810552a:	b083      	sub	sp, #12
 810552c:	af00      	add	r7, sp, #0
 810552e:	6078      	str	r0, [r7, #4]
  __ASM volatile ("cpsid i" : : : "memory");
 8105530:	b672      	cpsid	i
}
 8105532:	bf00      	nop
}
 8105534:	bf00      	nop
	CILinterrupt_disableInterrupts();

	__SUPRESS_UNUSED_VAR(entityId);
}
 8105536:	bf00      	nop
 8105538:	370c      	adds	r7, #12
 810553a:	46bd      	mov	sp, r7
 810553c:	f85d 7b04 	ldr.w	r7, [sp], #4
 8105540:	4770      	bx	lr

08105542 <PendSV_Handler>:
/********************************************************************************
**                        Function Definitions | Start                         **
********************************************************************************/
__NAKED void PendSV_Handler(void)
{
    __asm volatile ("MRS R0,PSP");
 8105542:	f3ef 8009 	mrs	r0, PSP
    __asm volatile ("ISB");
 8105546:	f3bf 8f6f 	isb	sy

    __asm volatile ("TST R14, #16");
 810554a:	f01e 0f10 	tst.w	lr, #16
    __asm volatile ("IT EQ");
 810554e:	bf08      	it	eq
    __asm volatile ("VSTMDBEQ R0!,{S16-S31}"); /* If fp is true save floating point registers on stack */
 8105550:	ed20 8a10 	vstmdbeq	r0!, {s16-s31}
    __asm volatile ("STMDB R0!,{R4-R8,R10,R11,R14}");
 8105554:	e920 4df0 	stmdb	r0!, {r4, r5, r6, r7, r8, sl, fp, lr}

    __asm volatile ("BL scheduler_scheduleNextInstance");
 8105558:	f7fc fa2c 	bl	81019b4 <scheduler_scheduleNextInstance>
    __asm volatile ("ISB");
 810555c:	f3bf 8f6f 	isb	sy

    __asm volatile ("LDMIA R0!,{R4-R8,R10,R11,R14}");
 8105560:	e8b0 4df0 	ldmia.w	r0!, {r4, r5, r6, r7, r8, sl, fp, lr}
    __asm volatile ("TST R14, #16");
 8105564:	f01e 0f10 	tst.w	lr, #16
    __asm volatile ("IT EQ");
 8105568:	bf08      	it	eq
    __asm volatile ("VLDMIAEQ R0!,{S16-S31}"); /* If fp is true restore floating point registers on stack */
 810556a:	ecb0 8a10 	vldmiaeq	r0!, {s16-s31}
    __asm volatile ("MSR PSP,R0");
 810556e:	f380 8809 	msr	PSP, r0
    __asm volatile ("ISB");
 8105572:	f3bf 8f6f 	isb	sy

    __asm volatile ("BX R14");
 8105576:	4770      	bx	lr
}
 8105578:	bf00      	nop
	...

0810557c <SysTick_Handler>:

void SysTick_Handler(){
 810557c:	b480      	push	{r7}
 810557e:	af00      	add	r7, sp, #0
    SCB->ICSR |= SCB_ICSR_PENDSVSET_Msk;
 8105580:	4b05      	ldr	r3, [pc, #20]	; (8105598 <SysTick_Handler+0x1c>)
 8105582:	685b      	ldr	r3, [r3, #4]
 8105584:	4a04      	ldr	r2, [pc, #16]	; (8105598 <SysTick_Handler+0x1c>)
 8105586:	f043 5380 	orr.w	r3, r3, #268435456	; 0x10000000
 810558a:	6053      	str	r3, [r2, #4]
}
 810558c:	bf00      	nop
 810558e:	46bd      	mov	sp, r7
 8105590:	f85d 7b04 	ldr.w	r7, [sp], #4
 8105594:	4770      	bx	lr
 8105596:	bf00      	nop
 8105598:	e000ed00 	.word	0xe000ed00

0810559c <SVC_Handler>:

__NAKED void SVC_Handler( void )
{
    __asm volatile ("TST LR, #4");
 810559c:	f01e 0f04 	tst.w	lr, #4
    __asm volatile ("ITE EQ");
 81055a0:	bf0c      	ite	eq
    __asm volatile ("MRSEQ r0, MSP");
 81055a2:	f3ef 8008 	mrseq	r0, MSP
    __asm volatile ("MRSNE r0, PSP");
 81055a6:	f3ef 8009 	mrsne	r0, PSP
    __asm volatile ( "B CILsysCalls_dispatcher");
 81055aa:	f7fd b9d3 	b.w	8102954 <CILsysCalls_dispatcher>
}
 81055ae:	bf00      	nop

081055b0 <HAL_Init>:
  *         need to ensure that the SysTick time base is always set to 1 millisecond
  *         to have correct HAL operation.
  * @retval HAL status
  */
HAL_StatusTypeDef HAL_Init(void)
{
 81055b0:	b580      	push	{r7, lr}
 81055b2:	b082      	sub	sp, #8
 81055b4:	af00      	add	r7, sp, #0

uint32_t common_system_clock;

#if defined(DUAL_CORE) && defined(CORE_CM4)
   /* Configure Cortex-M4 Instruction cache through ART accelerator */
   __HAL_RCC_ART_CLK_ENABLE();                   /* Enable the Cortex-M4 ART Clock */
 81055b6:	4b28      	ldr	r3, [pc, #160]	; (8105658 <HAL_Init+0xa8>)
 81055b8:	f8d3 30d8 	ldr.w	r3, [r3, #216]	; 0xd8
 81055bc:	4a26      	ldr	r2, [pc, #152]	; (8105658 <HAL_Init+0xa8>)
 81055be:	f443 4380 	orr.w	r3, r3, #16384	; 0x4000
 81055c2:	f8c2 30d8 	str.w	r3, [r2, #216]	; 0xd8
 81055c6:	4b24      	ldr	r3, [pc, #144]	; (8105658 <HAL_Init+0xa8>)
 81055c8:	f8d3 30d8 	ldr.w	r3, [r3, #216]	; 0xd8
 81055cc:	f403 4380 	and.w	r3, r3, #16384	; 0x4000
 81055d0:	603b      	str	r3, [r7, #0]
 81055d2:	683b      	ldr	r3, [r7, #0]
   __HAL_ART_CONFIG_BASE_ADDRESS(0x08100000UL);  /* Configure the Cortex-M4 ART Base address to the Flash Bank 2 : */
 81055d4:	4b21      	ldr	r3, [pc, #132]	; (810565c <HAL_Init+0xac>)
 81055d6:	681b      	ldr	r3, [r3, #0]
 81055d8:	f423 237f 	bic.w	r3, r3, #1044480	; 0xff000
 81055dc:	f423 6370 	bic.w	r3, r3, #3840	; 0xf00
 81055e0:	4a1e      	ldr	r2, [pc, #120]	; (810565c <HAL_Init+0xac>)
 81055e2:	f443 4301 	orr.w	r3, r3, #33024	; 0x8100
 81055e6:	6013      	str	r3, [r2, #0]
   __HAL_ART_ENABLE();                           /* Enable the Cortex-M4 ART */
 81055e8:	4b1c      	ldr	r3, [pc, #112]	; (810565c <HAL_Init+0xac>)
 81055ea:	681b      	ldr	r3, [r3, #0]
 81055ec:	4a1b      	ldr	r2, [pc, #108]	; (810565c <HAL_Init+0xac>)
 81055ee:	f043 0301 	orr.w	r3, r3, #1
 81055f2:	6013      	str	r3, [r2, #0]
#endif /* DUAL_CORE &&  CORE_CM4 */

  /* Set Interrupt Group Priority */
  HAL_NVIC_SetPriorityGrouping(NVIC_PRIORITYGROUP_4);
 81055f4:	2003      	movs	r0, #3
 81055f6:	f000 f8fa 	bl	81057ee <HAL_NVIC_SetPriorityGrouping>

  /* Update the SystemCoreClock global variable */
#if defined(RCC_D1CFGR_D1CPRE)
  common_system_clock = HAL_RCC_GetSysClockFreq() >> ((D1CorePrescTable[(RCC->D1CFGR & RCC_D1CFGR_D1CPRE)>> RCC_D1CFGR_D1CPRE_Pos]) & 0x1FU);
 81055fa:	f000 fcb1 	bl	8105f60 <HAL_RCC_GetSysClockFreq>
 81055fe:	4602      	mov	r2, r0
 8105600:	4b15      	ldr	r3, [pc, #84]	; (8105658 <HAL_Init+0xa8>)
 8105602:	699b      	ldr	r3, [r3, #24]
 8105604:	0a1b      	lsrs	r3, r3, #8
 8105606:	f003 030f 	and.w	r3, r3, #15
 810560a:	4915      	ldr	r1, [pc, #84]	; (8105660 <HAL_Init+0xb0>)
 810560c:	5ccb      	ldrb	r3, [r1, r3]
 810560e:	f003 031f 	and.w	r3, r3, #31
 8105612:	fa22 f303 	lsr.w	r3, r2, r3
 8105616:	607b      	str	r3, [r7, #4]
  common_system_clock = HAL_RCC_GetSysClockFreq() >> ((D1CorePrescTable[(RCC->CDCFGR1 & RCC_CDCFGR1_CDCPRE)>> RCC_CDCFGR1_CDCPRE_Pos]) & 0x1FU);
#endif

  /* Update the SystemD2Clock global variable */
#if defined(RCC_D1CFGR_HPRE)
  SystemD2Clock = (common_system_clock >> ((D1CorePrescTable[(RCC->D1CFGR & RCC_D1CFGR_HPRE)>> RCC_D1CFGR_HPRE_Pos]) & 0x1FU));
 8105618:	4b0f      	ldr	r3, [pc, #60]	; (8105658 <HAL_Init+0xa8>)
 810561a:	699b      	ldr	r3, [r3, #24]
 810561c:	f003 030f 	and.w	r3, r3, #15
 8105620:	4a0f      	ldr	r2, [pc, #60]	; (8105660 <HAL_Init+0xb0>)
 8105622:	5cd3      	ldrb	r3, [r2, r3]
 8105624:	f003 031f 	and.w	r3, r3, #31
 8105628:	687a      	ldr	r2, [r7, #4]
 810562a:	fa22 f303 	lsr.w	r3, r2, r3
 810562e:	4a0d      	ldr	r2, [pc, #52]	; (8105664 <HAL_Init+0xb4>)
 8105630:	6013      	str	r3, [r2, #0]
#else
  SystemD2Clock = (common_system_clock >> ((D1CorePrescTable[(RCC->CDCFGR1 & RCC_CDCFGR1_HPRE)>> RCC_CDCFGR1_HPRE_Pos]) & 0x1FU));
#endif

#if defined(DUAL_CORE) && defined(CORE_CM4)
  SystemCoreClock = SystemD2Clock;
 8105632:	4b0c      	ldr	r3, [pc, #48]	; (8105664 <HAL_Init+0xb4>)
 8105634:	681b      	ldr	r3, [r3, #0]
 8105636:	4a0c      	ldr	r2, [pc, #48]	; (8105668 <HAL_Init+0xb8>)
 8105638:	6013      	str	r3, [r2, #0]
#else
  SystemCoreClock = common_system_clock;
#endif /* DUAL_CORE && CORE_CM4 */

  /* Use systick as time base source and configure 1ms tick (default clock after Reset is HSI) */
  if(HAL_InitTick(TICK_INT_PRIORITY) != HAL_OK)
 810563a:	2000      	movs	r0, #0
 810563c:	f7ff fd9c 	bl	8105178 <HAL_InitTick>
 8105640:	4603      	mov	r3, r0
 8105642:	2b00      	cmp	r3, #0
 8105644:	d001      	beq.n	810564a <HAL_Init+0x9a>
  {
    return HAL_ERROR;
 8105646:	2301      	movs	r3, #1
 8105648:	e002      	b.n	8105650 <HAL_Init+0xa0>
  }

  /* Init the low level hardware */
  HAL_MspInit();
 810564a:	f7ff fd7b 	bl	8105144 <HAL_MspInit>

  /* Return function status */
  return HAL_OK;
 810564e:	2300      	movs	r3, #0
}
 8105650:	4618      	mov	r0, r3
 8105652:	3708      	adds	r7, #8
 8105654:	46bd      	mov	sp, r7
 8105656:	bd80      	pop	{r7, pc}
 8105658:	58024400 	.word	0x58024400
 810565c:	40024400 	.word	0x40024400
 8105660:	08106aa0 	.word	0x08106aa0
 8105664:	1000180c 	.word	0x1000180c
 8105668:	10001808 	.word	0x10001808

0810566c <HAL_IncTick>:
 * @note This function is declared as __weak to be overwritten in case of other
  *      implementations in user file.
  * @retval None
  */
__weak void HAL_IncTick(void)
{
 810566c:	b480      	push	{r7}
 810566e:	af00      	add	r7, sp, #0
  uwTick += (uint32_t)uwTickFreq;
 8105670:	4b06      	ldr	r3, [pc, #24]	; (810568c <HAL_IncTick+0x20>)
 8105672:	781b      	ldrb	r3, [r3, #0]
 8105674:	461a      	mov	r2, r3
 8105676:	4b06      	ldr	r3, [pc, #24]	; (8105690 <HAL_IncTick+0x24>)
 8105678:	681b      	ldr	r3, [r3, #0]
 810567a:	4413      	add	r3, r2
 810567c:	4a04      	ldr	r2, [pc, #16]	; (8105690 <HAL_IncTick+0x24>)
 810567e:	6013      	str	r3, [r2, #0]
}
 8105680:	bf00      	nop
 8105682:	46bd      	mov	sp, r7
 8105684:	f85d 7b04 	ldr.w	r7, [sp], #4
 8105688:	4770      	bx	lr
 810568a:	bf00      	nop
 810568c:	10001804 	.word	0x10001804
 8105690:	100018dc 	.word	0x100018dc

08105694 <__NVIC_SetPriorityGrouping>:
{
 8105694:	b480      	push	{r7}
 8105696:	b085      	sub	sp, #20
 8105698:	af00      	add	r7, sp, #0
 810569a:	6078      	str	r0, [r7, #4]
  uint32_t PriorityGroupTmp = (PriorityGroup & (uint32_t)0x07UL);             /* only values 0..7 are used          */
 810569c:	687b      	ldr	r3, [r7, #4]
 810569e:	f003 0307 	and.w	r3, r3, #7
 81056a2:	60fb      	str	r3, [r7, #12]
  reg_value  =  SCB->AIRCR;                                                   /* read old register configuration    */
 81056a4:	4b0c      	ldr	r3, [pc, #48]	; (81056d8 <__NVIC_SetPriorityGrouping+0x44>)
 81056a6:	68db      	ldr	r3, [r3, #12]
 81056a8:	60bb      	str	r3, [r7, #8]
  reg_value &= ~((uint32_t)(SCB_AIRCR_VECTKEY_Msk | SCB_AIRCR_PRIGROUP_Msk)); /* clear bits to change               */
 81056aa:	68ba      	ldr	r2, [r7, #8]
 81056ac:	f64f 03ff 	movw	r3, #63743	; 0xf8ff
 81056b0:	4013      	ands	r3, r2
 81056b2:	60bb      	str	r3, [r7, #8]
                (PriorityGroupTmp << SCB_AIRCR_PRIGROUP_Pos)  );              /* Insert write key and priority group */
 81056b4:	68fb      	ldr	r3, [r7, #12]
 81056b6:	021a      	lsls	r2, r3, #8
                ((uint32_t)0x5FAUL << SCB_AIRCR_VECTKEY_Pos) |
 81056b8:	68bb      	ldr	r3, [r7, #8]
 81056ba:	4313      	orrs	r3, r2
  reg_value  =  (reg_value                                   |
 81056bc:	f043 63bf 	orr.w	r3, r3, #100139008	; 0x5f80000
 81056c0:	f443 3300 	orr.w	r3, r3, #131072	; 0x20000
 81056c4:	60bb      	str	r3, [r7, #8]
  SCB->AIRCR =  reg_value;
 81056c6:	4a04      	ldr	r2, [pc, #16]	; (81056d8 <__NVIC_SetPriorityGrouping+0x44>)
 81056c8:	68bb      	ldr	r3, [r7, #8]
 81056ca:	60d3      	str	r3, [r2, #12]
}
 81056cc:	bf00      	nop
 81056ce:	3714      	adds	r7, #20
 81056d0:	46bd      	mov	sp, r7
 81056d2:	f85d 7b04 	ldr.w	r7, [sp], #4
 81056d6:	4770      	bx	lr
 81056d8:	e000ed00 	.word	0xe000ed00

081056dc <__NVIC_GetPriorityGrouping>:
{
 81056dc:	b480      	push	{r7}
 81056de:	af00      	add	r7, sp, #0
  return ((uint32_t)((SCB->AIRCR & SCB_AIRCR_PRIGROUP_Msk) >> SCB_AIRCR_PRIGROUP_Pos));
 81056e0:	4b04      	ldr	r3, [pc, #16]	; (81056f4 <__NVIC_GetPriorityGrouping+0x18>)
 81056e2:	68db      	ldr	r3, [r3, #12]
 81056e4:	0a1b      	lsrs	r3, r3, #8
 81056e6:	f003 0307 	and.w	r3, r3, #7
}
 81056ea:	4618      	mov	r0, r3
 81056ec:	46bd      	mov	sp, r7
 81056ee:	f85d 7b04 	ldr.w	r7, [sp], #4
 81056f2:	4770      	bx	lr
 81056f4:	e000ed00 	.word	0xe000ed00

081056f8 <__NVIC_EnableIRQ>:
{
 81056f8:	b480      	push	{r7}
 81056fa:	b083      	sub	sp, #12
 81056fc:	af00      	add	r7, sp, #0
 81056fe:	4603      	mov	r3, r0
 8105700:	80fb      	strh	r3, [r7, #6]
  if ((int32_t)(IRQn) >= 0)
 8105702:	f9b7 3006 	ldrsh.w	r3, [r7, #6]
 8105706:	2b00      	cmp	r3, #0
 8105708:	db0b      	blt.n	8105722 <__NVIC_EnableIRQ+0x2a>
    NVIC->ISER[(((uint32_t)IRQn) >> 5UL)] = (uint32_t)(1UL << (((uint32_t)IRQn) & 0x1FUL));
 810570a:	88fb      	ldrh	r3, [r7, #6]
 810570c:	f003 021f 	and.w	r2, r3, #31
 8105710:	4907      	ldr	r1, [pc, #28]	; (8105730 <__NVIC_EnableIRQ+0x38>)
 8105712:	f9b7 3006 	ldrsh.w	r3, [r7, #6]
 8105716:	095b      	lsrs	r3, r3, #5
 8105718:	2001      	movs	r0, #1
 810571a:	fa00 f202 	lsl.w	r2, r0, r2
 810571e:	f841 2023 	str.w	r2, [r1, r3, lsl #2]
}
 8105722:	bf00      	nop
 8105724:	370c      	adds	r7, #12
 8105726:	46bd      	mov	sp, r7
 8105728:	f85d 7b04 	ldr.w	r7, [sp], #4
 810572c:	4770      	bx	lr
 810572e:	bf00      	nop
 8105730:	e000e100 	.word	0xe000e100

08105734 <__NVIC_SetPriority>:
{
 8105734:	b480      	push	{r7}
 8105736:	b083      	sub	sp, #12
 8105738:	af00      	add	r7, sp, #0
 810573a:	4603      	mov	r3, r0
 810573c:	6039      	str	r1, [r7, #0]
 810573e:	80fb      	strh	r3, [r7, #6]
  if ((int32_t)(IRQn) >= 0)
 8105740:	f9b7 3006 	ldrsh.w	r3, [r7, #6]
 8105744:	2b00      	cmp	r3, #0
 8105746:	db0a      	blt.n	810575e <__NVIC_SetPriority+0x2a>
    NVIC->IP[((uint32_t)IRQn)]               = (uint8_t)((priority << (8U - __NVIC_PRIO_BITS)) & (uint32_t)0xFFUL);
 8105748:	683b      	ldr	r3, [r7, #0]
 810574a:	b2da      	uxtb	r2, r3
 810574c:	490c      	ldr	r1, [pc, #48]	; (8105780 <__NVIC_SetPriority+0x4c>)
 810574e:	f9b7 3006 	ldrsh.w	r3, [r7, #6]
 8105752:	0112      	lsls	r2, r2, #4
 8105754:	b2d2      	uxtb	r2, r2
 8105756:	440b      	add	r3, r1
 8105758:	f883 2300 	strb.w	r2, [r3, #768]	; 0x300
}
 810575c:	e00a      	b.n	8105774 <__NVIC_SetPriority+0x40>
    SCB->SHP[(((uint32_t)IRQn) & 0xFUL)-4UL] = (uint8_t)((priority << (8U - __NVIC_PRIO_BITS)) & (uint32_t)0xFFUL);
 810575e:	683b      	ldr	r3, [r7, #0]
 8105760:	b2da      	uxtb	r2, r3
 8105762:	4908      	ldr	r1, [pc, #32]	; (8105784 <__NVIC_SetPriority+0x50>)
 8105764:	88fb      	ldrh	r3, [r7, #6]
 8105766:	f003 030f 	and.w	r3, r3, #15
 810576a:	3b04      	subs	r3, #4
 810576c:	0112      	lsls	r2, r2, #4
 810576e:	b2d2      	uxtb	r2, r2
 8105770:	440b      	add	r3, r1
 8105772:	761a      	strb	r2, [r3, #24]
}
 8105774:	bf00      	nop
 8105776:	370c      	adds	r7, #12
 8105778:	46bd      	mov	sp, r7
 810577a:	f85d 7b04 	ldr.w	r7, [sp], #4
 810577e:	4770      	bx	lr
 8105780:	e000e100 	.word	0xe000e100
 8105784:	e000ed00 	.word	0xe000ed00

08105788 <NVIC_EncodePriority>:
  \param [in]   PreemptPriority  Preemptive priority value (starting from 0).
  \param [in]       SubPriority  Subpriority value (starting from 0).
  \return                        Encoded priority. Value can be used in the function \ref NVIC_SetPriority().
 */
__STATIC_INLINE uint32_t NVIC_EncodePriority (uint32_t PriorityGroup, uint32_t PreemptPriority, uint32_t SubPriority)
{
 8105788:	b480      	push	{r7}
 810578a:	b089      	sub	sp, #36	; 0x24
 810578c:	af00      	add	r7, sp, #0
 810578e:	60f8      	str	r0, [r7, #12]
 8105790:	60b9      	str	r1, [r7, #8]
 8105792:	607a      	str	r2, [r7, #4]
  uint32_t PriorityGroupTmp = (PriorityGroup & (uint32_t)0x07UL);   /* only values 0..7 are used          */
 8105794:	68fb      	ldr	r3, [r7, #12]
 8105796:	f003 0307 	and.w	r3, r3, #7
 810579a:	61fb      	str	r3, [r7, #28]
  uint32_t PreemptPriorityBits;
  uint32_t SubPriorityBits;

  PreemptPriorityBits = ((7UL - PriorityGroupTmp) > (uint32_t)(__NVIC_PRIO_BITS)) ? (uint32_t)(__NVIC_PRIO_BITS) : (uint32_t)(7UL - PriorityGroupTmp);
 810579c:	69fb      	ldr	r3, [r7, #28]
 810579e:	f1c3 0307 	rsb	r3, r3, #7
 81057a2:	2b04      	cmp	r3, #4
 81057a4:	bf28      	it	cs
 81057a6:	2304      	movcs	r3, #4
 81057a8:	61bb      	str	r3, [r7, #24]
  SubPriorityBits     = ((PriorityGroupTmp + (uint32_t)(__NVIC_PRIO_BITS)) < (uint32_t)7UL) ? (uint32_t)0UL : (uint32_t)((PriorityGroupTmp - 7UL) + (uint32_t)(__NVIC_PRIO_BITS));
 81057aa:	69fb      	ldr	r3, [r7, #28]
 81057ac:	3304      	adds	r3, #4
 81057ae:	2b06      	cmp	r3, #6
 81057b0:	d902      	bls.n	81057b8 <NVIC_EncodePriority+0x30>
 81057b2:	69fb      	ldr	r3, [r7, #28]
 81057b4:	3b03      	subs	r3, #3
 81057b6:	e000      	b.n	81057ba <NVIC_EncodePriority+0x32>
 81057b8:	2300      	movs	r3, #0
 81057ba:	617b      	str	r3, [r7, #20]

  return (
           ((PreemptPriority & (uint32_t)((1UL << (PreemptPriorityBits)) - 1UL)) << SubPriorityBits) |
 81057bc:	f04f 32ff 	mov.w	r2, #4294967295
 81057c0:	69bb      	ldr	r3, [r7, #24]
 81057c2:	fa02 f303 	lsl.w	r3, r2, r3
 81057c6:	43da      	mvns	r2, r3
 81057c8:	68bb      	ldr	r3, [r7, #8]
 81057ca:	401a      	ands	r2, r3
 81057cc:	697b      	ldr	r3, [r7, #20]
 81057ce:	409a      	lsls	r2, r3
           ((SubPriority     & (uint32_t)((1UL << (SubPriorityBits    )) - 1UL)))
 81057d0:	f04f 31ff 	mov.w	r1, #4294967295
 81057d4:	697b      	ldr	r3, [r7, #20]
 81057d6:	fa01 f303 	lsl.w	r3, r1, r3
 81057da:	43d9      	mvns	r1, r3
 81057dc:	687b      	ldr	r3, [r7, #4]
 81057de:	400b      	ands	r3, r1
           ((PreemptPriority & (uint32_t)((1UL << (PreemptPriorityBits)) - 1UL)) << SubPriorityBits) |
 81057e0:	4313      	orrs	r3, r2
         );
}
 81057e2:	4618      	mov	r0, r3
 81057e4:	3724      	adds	r7, #36	; 0x24
 81057e6:	46bd      	mov	sp, r7
 81057e8:	f85d 7b04 	ldr.w	r7, [sp], #4
 81057ec:	4770      	bx	lr

081057ee <HAL_NVIC_SetPriorityGrouping>:
  * @note   When the NVIC_PriorityGroup_0 is selected, IRQ preemption is no more possible.
  *         The pending IRQ priority will be managed only by the subpriority.
  * @retval None
  */
void HAL_NVIC_SetPriorityGrouping(uint32_t PriorityGroup)
{
 81057ee:	b580      	push	{r7, lr}
 81057f0:	b082      	sub	sp, #8
 81057f2:	af00      	add	r7, sp, #0
 81057f4:	6078      	str	r0, [r7, #4]
  /* Check the parameters */
  assert_param(IS_NVIC_PRIORITY_GROUP(PriorityGroup));

  /* Set the PRIGROUP[10:8] bits according to the PriorityGroup parameter value */
  NVIC_SetPriorityGrouping(PriorityGroup);
 81057f6:	6878      	ldr	r0, [r7, #4]
 81057f8:	f7ff ff4c 	bl	8105694 <__NVIC_SetPriorityGrouping>
}
 81057fc:	bf00      	nop
 81057fe:	3708      	adds	r7, #8
 8105800:	46bd      	mov	sp, r7
 8105802:	bd80      	pop	{r7, pc}

08105804 <HAL_NVIC_SetPriority>:
  *         This parameter can be a value between 0 and 15
  *         A lower priority value indicates a higher priority.
  * @retval None
  */
void HAL_NVIC_SetPriority(IRQn_Type IRQn, uint32_t PreemptPriority, uint32_t SubPriority)
{
 8105804:	b580      	push	{r7, lr}
 8105806:	b086      	sub	sp, #24
 8105808:	af00      	add	r7, sp, #0
 810580a:	4603      	mov	r3, r0
 810580c:	60b9      	str	r1, [r7, #8]
 810580e:	607a      	str	r2, [r7, #4]
 8105810:	81fb      	strh	r3, [r7, #14]

  /* Check the parameters */
  assert_param(IS_NVIC_SUB_PRIORITY(SubPriority));
  assert_param(IS_NVIC_PREEMPTION_PRIORITY(PreemptPriority));

  prioritygroup = NVIC_GetPriorityGrouping();
 8105812:	f7ff ff63 	bl	81056dc <__NVIC_GetPriorityGrouping>
 8105816:	6178      	str	r0, [r7, #20]

  NVIC_SetPriority(IRQn, NVIC_EncodePriority(prioritygroup, PreemptPriority, SubPriority));
 8105818:	687a      	ldr	r2, [r7, #4]
 810581a:	68b9      	ldr	r1, [r7, #8]
 810581c:	6978      	ldr	r0, [r7, #20]
 810581e:	f7ff ffb3 	bl	8105788 <NVIC_EncodePriority>
 8105822:	4602      	mov	r2, r0
 8105824:	f9b7 300e 	ldrsh.w	r3, [r7, #14]
 8105828:	4611      	mov	r1, r2
 810582a:	4618      	mov	r0, r3
 810582c:	f7ff ff82 	bl	8105734 <__NVIC_SetPriority>
}
 8105830:	bf00      	nop
 8105832:	3718      	adds	r7, #24
 8105834:	46bd      	mov	sp, r7
 8105836:	bd80      	pop	{r7, pc}

08105838 <HAL_NVIC_EnableIRQ>:
  *         This parameter can be an enumerator of IRQn_Type enumeration
  *         (For the complete STM32 Devices IRQ Channels list, please refer to the appropriate CMSIS device file (stm32h7xxxx.h))
  * @retval None
  */
void HAL_NVIC_EnableIRQ(IRQn_Type IRQn)
{
 8105838:	b580      	push	{r7, lr}
 810583a:	b082      	sub	sp, #8
 810583c:	af00      	add	r7, sp, #0
 810583e:	4603      	mov	r3, r0
 8105840:	80fb      	strh	r3, [r7, #6]
  /* Check the parameters */
  assert_param(IS_NVIC_DEVICE_IRQ(IRQn));

  /* Enable interrupt */
  NVIC_EnableIRQ(IRQn);
 8105842:	f9b7 3006 	ldrsh.w	r3, [r7, #6]
 8105846:	4618      	mov	r0, r3
 8105848:	f7ff ff56 	bl	81056f8 <__NVIC_EnableIRQ>
}
 810584c:	bf00      	nop
 810584e:	3708      	adds	r7, #8
 8105850:	46bd      	mov	sp, r7
 8105852:	bd80      	pop	{r7, pc}

08105854 <HAL_MPU_Disable>:
/**
  * @brief  Disables the MPU
  * @retval None
  */
void HAL_MPU_Disable(void)
{
 8105854:	b480      	push	{r7}
 8105856:	af00      	add	r7, sp, #0
  \details Ensures the apparent order of the explicit memory operations before
           and after the instruction, without ensuring their completion.
 */
__STATIC_FORCEINLINE void __DMB(void)
{
  __ASM volatile ("dmb 0xF":::"memory");
 8105858:	f3bf 8f5f 	dmb	sy
}
 810585c:	bf00      	nop
  /* Make sure outstanding transfers are done */
  __DMB();

  /* Disable fault exceptions */
  SCB->SHCSR &= ~SCB_SHCSR_MEMFAULTENA_Msk;
 810585e:	4b07      	ldr	r3, [pc, #28]	; (810587c <HAL_MPU_Disable+0x28>)
 8105860:	6a5b      	ldr	r3, [r3, #36]	; 0x24
 8105862:	4a06      	ldr	r2, [pc, #24]	; (810587c <HAL_MPU_Disable+0x28>)
 8105864:	f423 3380 	bic.w	r3, r3, #65536	; 0x10000
 8105868:	6253      	str	r3, [r2, #36]	; 0x24

  /* Disable the MPU and clear the control register*/
  MPU->CTRL = 0;
 810586a:	4b05      	ldr	r3, [pc, #20]	; (8105880 <HAL_MPU_Disable+0x2c>)
 810586c:	2200      	movs	r2, #0
 810586e:	605a      	str	r2, [r3, #4]
}
 8105870:	bf00      	nop
 8105872:	46bd      	mov	sp, r7
 8105874:	f85d 7b04 	ldr.w	r7, [sp], #4
 8105878:	4770      	bx	lr
 810587a:	bf00      	nop
 810587c:	e000ed00 	.word	0xe000ed00
 8105880:	e000ed90 	.word	0xe000ed90

08105884 <HAL_MPU_Enable>:
  *            @arg MPU_PRIVILEGED_DEFAULT
  *            @arg MPU_HFNMI_PRIVDEF
  * @retval None
  */
void HAL_MPU_Enable(uint32_t MPU_Control)
{
 8105884:	b480      	push	{r7}
 8105886:	b083      	sub	sp, #12
 8105888:	af00      	add	r7, sp, #0
 810588a:	6078      	str	r0, [r7, #4]
  /* Enable the MPU */
  MPU->CTRL = MPU_Control | MPU_CTRL_ENABLE_Msk;
 810588c:	4a0b      	ldr	r2, [pc, #44]	; (81058bc <HAL_MPU_Enable+0x38>)
 810588e:	687b      	ldr	r3, [r7, #4]
 8105890:	f043 0301 	orr.w	r3, r3, #1
 8105894:	6053      	str	r3, [r2, #4]

  /* Enable fault exceptions */
  SCB->SHCSR |= SCB_SHCSR_MEMFAULTENA_Msk;
 8105896:	4b0a      	ldr	r3, [pc, #40]	; (81058c0 <HAL_MPU_Enable+0x3c>)
 8105898:	6a5b      	ldr	r3, [r3, #36]	; 0x24
 810589a:	4a09      	ldr	r2, [pc, #36]	; (81058c0 <HAL_MPU_Enable+0x3c>)
 810589c:	f443 3380 	orr.w	r3, r3, #65536	; 0x10000
 81058a0:	6253      	str	r3, [r2, #36]	; 0x24
  __ASM volatile ("dsb 0xF":::"memory");
 81058a2:	f3bf 8f4f 	dsb	sy
}
 81058a6:	bf00      	nop
  __ASM volatile ("isb 0xF":::"memory");
 81058a8:	f3bf 8f6f 	isb	sy
}
 81058ac:	bf00      	nop

  /* Ensure MPU setting take effects */
  __DSB();
  __ISB();
}
 81058ae:	bf00      	nop
 81058b0:	370c      	adds	r7, #12
 81058b2:	46bd      	mov	sp, r7
 81058b4:	f85d 7b04 	ldr.w	r7, [sp], #4
 81058b8:	4770      	bx	lr
 81058ba:	bf00      	nop
 81058bc:	e000ed90 	.word	0xe000ed90
 81058c0:	e000ed00 	.word	0xe000ed00

081058c4 <HAL_MPU_ConfigRegion>:
  * @param  MPU_Init Pointer to a MPU_Region_InitTypeDef structure that contains
  *                  the initialization and configuration information.
  * @retval None
  */
void HAL_MPU_ConfigRegion(MPU_Region_InitTypeDef *MPU_Init)
{
 81058c4:	b480      	push	{r7}
 81058c6:	b083      	sub	sp, #12
 81058c8:	af00      	add	r7, sp, #0
 81058ca:	6078      	str	r0, [r7, #4]
  /* Check the parameters */
  assert_param(IS_MPU_REGION_NUMBER(MPU_Init->Number));
  assert_param(IS_MPU_REGION_ENABLE(MPU_Init->Enable));

  /* Set the Region number */
  MPU->RNR = MPU_Init->Number;
 81058cc:	687b      	ldr	r3, [r7, #4]
 81058ce:	785a      	ldrb	r2, [r3, #1]
 81058d0:	4b1d      	ldr	r3, [pc, #116]	; (8105948 <HAL_MPU_ConfigRegion+0x84>)
 81058d2:	609a      	str	r2, [r3, #8]

  if ((MPU_Init->Enable) != 0UL)
 81058d4:	687b      	ldr	r3, [r7, #4]
 81058d6:	781b      	ldrb	r3, [r3, #0]
 81058d8:	2b00      	cmp	r3, #0
 81058da:	d029      	beq.n	8105930 <HAL_MPU_ConfigRegion+0x6c>
    assert_param(IS_MPU_ACCESS_CACHEABLE(MPU_Init->IsCacheable));
    assert_param(IS_MPU_ACCESS_BUFFERABLE(MPU_Init->IsBufferable));
    assert_param(IS_MPU_SUB_REGION_DISABLE(MPU_Init->SubRegionDisable));
    assert_param(IS_MPU_REGION_SIZE(MPU_Init->Size));

    MPU->RBAR = MPU_Init->BaseAddress;
 81058dc:	4a1a      	ldr	r2, [pc, #104]	; (8105948 <HAL_MPU_ConfigRegion+0x84>)
 81058de:	687b      	ldr	r3, [r7, #4]
 81058e0:	685b      	ldr	r3, [r3, #4]
 81058e2:	60d3      	str	r3, [r2, #12]
    MPU->RASR = ((uint32_t)MPU_Init->DisableExec             << MPU_RASR_XN_Pos)   |
 81058e4:	687b      	ldr	r3, [r7, #4]
 81058e6:	7b1b      	ldrb	r3, [r3, #12]
 81058e8:	071a      	lsls	r2, r3, #28
                ((uint32_t)MPU_Init->AccessPermission        << MPU_RASR_AP_Pos)   |
 81058ea:	687b      	ldr	r3, [r7, #4]
 81058ec:	7adb      	ldrb	r3, [r3, #11]
 81058ee:	061b      	lsls	r3, r3, #24
    MPU->RASR = ((uint32_t)MPU_Init->DisableExec             << MPU_RASR_XN_Pos)   |
 81058f0:	431a      	orrs	r2, r3
                ((uint32_t)MPU_Init->TypeExtField            << MPU_RASR_TEX_Pos)  |
 81058f2:	687b      	ldr	r3, [r7, #4]
 81058f4:	7a9b      	ldrb	r3, [r3, #10]
 81058f6:	04db      	lsls	r3, r3, #19
                ((uint32_t)MPU_Init->AccessPermission        << MPU_RASR_AP_Pos)   |
 81058f8:	431a      	orrs	r2, r3
                ((uint32_t)MPU_Init->IsShareable             << MPU_RASR_S_Pos)    |
 81058fa:	687b      	ldr	r3, [r7, #4]
 81058fc:	7b5b      	ldrb	r3, [r3, #13]
 81058fe:	049b      	lsls	r3, r3, #18
                ((uint32_t)MPU_Init->TypeExtField            << MPU_RASR_TEX_Pos)  |
 8105900:	431a      	orrs	r2, r3
                ((uint32_t)MPU_Init->IsCacheable             << MPU_RASR_C_Pos)    |
 8105902:	687b      	ldr	r3, [r7, #4]
 8105904:	7b9b      	ldrb	r3, [r3, #14]
 8105906:	045b      	lsls	r3, r3, #17
                ((uint32_t)MPU_Init->IsShareable             << MPU_RASR_S_Pos)    |
 8105908:	431a      	orrs	r2, r3
                ((uint32_t)MPU_Init->IsBufferable            << MPU_RASR_B_Pos)    |
 810590a:	687b      	ldr	r3, [r7, #4]
 810590c:	7bdb      	ldrb	r3, [r3, #15]
 810590e:	041b      	lsls	r3, r3, #16
                ((uint32_t)MPU_Init->IsCacheable             << MPU_RASR_C_Pos)    |
 8105910:	431a      	orrs	r2, r3
                ((uint32_t)MPU_Init->SubRegionDisable        << MPU_RASR_SRD_Pos)  |
 8105912:	687b      	ldr	r3, [r7, #4]
 8105914:	7a5b      	ldrb	r3, [r3, #9]
 8105916:	021b      	lsls	r3, r3, #8
                ((uint32_t)MPU_Init->IsBufferable            << MPU_RASR_B_Pos)    |
 8105918:	431a      	orrs	r2, r3
                ((uint32_t)MPU_Init->Size                    << MPU_RASR_SIZE_Pos) |
 810591a:	687b      	ldr	r3, [r7, #4]
 810591c:	7a1b      	ldrb	r3, [r3, #8]
 810591e:	005b      	lsls	r3, r3, #1
                ((uint32_t)MPU_Init->SubRegionDisable        << MPU_RASR_SRD_Pos)  |
 8105920:	4313      	orrs	r3, r2
                ((uint32_t)MPU_Init->Enable                  << MPU_RASR_ENABLE_Pos);
 8105922:	687a      	ldr	r2, [r7, #4]
 8105924:	7812      	ldrb	r2, [r2, #0]
 8105926:	4611      	mov	r1, r2
    MPU->RASR = ((uint32_t)MPU_Init->DisableExec             << MPU_RASR_XN_Pos)   |
 8105928:	4a07      	ldr	r2, [pc, #28]	; (8105948 <HAL_MPU_ConfigRegion+0x84>)
                ((uint32_t)MPU_Init->Size                    << MPU_RASR_SIZE_Pos) |
 810592a:	430b      	orrs	r3, r1
    MPU->RASR = ((uint32_t)MPU_Init->DisableExec             << MPU_RASR_XN_Pos)   |
 810592c:	6113      	str	r3, [r2, #16]
  else
  {
    MPU->RBAR = 0x00;
    MPU->RASR = 0x00;
  }
}
 810592e:	e005      	b.n	810593c <HAL_MPU_ConfigRegion+0x78>
    MPU->RBAR = 0x00;
 8105930:	4b05      	ldr	r3, [pc, #20]	; (8105948 <HAL_MPU_ConfigRegion+0x84>)
 8105932:	2200      	movs	r2, #0
 8105934:	60da      	str	r2, [r3, #12]
    MPU->RASR = 0x00;
 8105936:	4b04      	ldr	r3, [pc, #16]	; (8105948 <HAL_MPU_ConfigRegion+0x84>)
 8105938:	2200      	movs	r2, #0
 810593a:	611a      	str	r2, [r3, #16]
}
 810593c:	bf00      	nop
 810593e:	370c      	adds	r7, #12
 8105940:	46bd      	mov	sp, r7
 8105942:	f85d 7b04 	ldr.w	r7, [sp], #4
 8105946:	4770      	bx	lr
 8105948:	e000ed90 	.word	0xe000ed90

0810594c <HAL_GetCurrentCPUID>:
/**
  * @brief  Returns the current CPU ID.
  * @retval CPU identifier
  */
uint32_t HAL_GetCurrentCPUID(void)
{
 810594c:	b480      	push	{r7}
 810594e:	af00      	add	r7, sp, #0
  if (((SCB->CPUID & 0x000000F0U) >> 4 )== 0x7U)
 8105950:	4b07      	ldr	r3, [pc, #28]	; (8105970 <HAL_GetCurrentCPUID+0x24>)
 8105952:	681b      	ldr	r3, [r3, #0]
 8105954:	091b      	lsrs	r3, r3, #4
 8105956:	f003 030f 	and.w	r3, r3, #15
 810595a:	2b07      	cmp	r3, #7
 810595c:	d101      	bne.n	8105962 <HAL_GetCurrentCPUID+0x16>
  {
    return  CM7_CPUID;
 810595e:	2303      	movs	r3, #3
 8105960:	e000      	b.n	8105964 <HAL_GetCurrentCPUID+0x18>
  }
  else
  {
    return CM4_CPUID;
 8105962:	2301      	movs	r3, #1
  }
}
 8105964:	4618      	mov	r0, r3
 8105966:	46bd      	mov	sp, r7
 8105968:	f85d 7b04 	ldr.w	r7, [sp], #4
 810596c:	4770      	bx	lr
 810596e:	bf00      	nop
 8105970:	e000ed00 	.word	0xe000ed00

08105974 <HAL_GPIO_Init>:
  * @param  GPIO_Init: pointer to a GPIO_InitTypeDef structure that contains
  *         the configuration information for the specified GPIO peripheral.
  * @retval None
  */
void HAL_GPIO_Init(GPIO_TypeDef  *GPIOx, GPIO_InitTypeDef *GPIO_Init)
{
 8105974:	b480      	push	{r7}
 8105976:	b089      	sub	sp, #36	; 0x24
 8105978:	af00      	add	r7, sp, #0
 810597a:	6078      	str	r0, [r7, #4]
 810597c:	6039      	str	r1, [r7, #0]
  uint32_t position = 0x00U;
 810597e:	2300      	movs	r3, #0
 8105980:	61fb      	str	r3, [r7, #28]
  uint32_t iocurrent;
  uint32_t temp;
  EXTI_Core_TypeDef *EXTI_CurrentCPU;

#if defined(DUAL_CORE) && defined(CORE_CM4)
  EXTI_CurrentCPU = EXTI_D2; /* EXTI for CM4 CPU */
 8105982:	4b89      	ldr	r3, [pc, #548]	; (8105ba8 <HAL_GPIO_Init+0x234>)
 8105984:	617b      	str	r3, [r7, #20]
  assert_param(IS_GPIO_PIN(GPIO_Init->Pin));
  assert_param(IS_GPIO_MODE(GPIO_Init->Mode));
  assert_param(IS_GPIO_PULL(GPIO_Init->Pull));

  /* Configure the port pins */
  while (((GPIO_Init->Pin) >> position) != 0x00U)
 8105986:	e194      	b.n	8105cb2 <HAL_GPIO_Init+0x33e>
  {
    /* Get current io position */
    iocurrent = (GPIO_Init->Pin) & (1UL << position);
 8105988:	683b      	ldr	r3, [r7, #0]
 810598a:	681a      	ldr	r2, [r3, #0]
 810598c:	2101      	movs	r1, #1
 810598e:	69fb      	ldr	r3, [r7, #28]
 8105990:	fa01 f303 	lsl.w	r3, r1, r3
 8105994:	4013      	ands	r3, r2
 8105996:	613b      	str	r3, [r7, #16]

    if (iocurrent != 0x00U)
 8105998:	693b      	ldr	r3, [r7, #16]
 810599a:	2b00      	cmp	r3, #0
 810599c:	f000 8186 	beq.w	8105cac <HAL_GPIO_Init+0x338>
    {
      /*--------------------- GPIO Mode Configuration ------------------------*/
      /* In case of Output or Alternate function mode selection */
      if ((GPIO_Init->Mode == GPIO_MODE_OUTPUT_PP) || (GPIO_Init->Mode == GPIO_MODE_AF_PP) ||
 81059a0:	683b      	ldr	r3, [r7, #0]
 81059a2:	685b      	ldr	r3, [r3, #4]
 81059a4:	2b01      	cmp	r3, #1
 81059a6:	d00b      	beq.n	81059c0 <HAL_GPIO_Init+0x4c>
 81059a8:	683b      	ldr	r3, [r7, #0]
 81059aa:	685b      	ldr	r3, [r3, #4]
 81059ac:	2b02      	cmp	r3, #2
 81059ae:	d007      	beq.n	81059c0 <HAL_GPIO_Init+0x4c>
          (GPIO_Init->Mode == GPIO_MODE_OUTPUT_OD) || (GPIO_Init->Mode == GPIO_MODE_AF_OD))
 81059b0:	683b      	ldr	r3, [r7, #0]
 81059b2:	685b      	ldr	r3, [r3, #4]
      if ((GPIO_Init->Mode == GPIO_MODE_OUTPUT_PP) || (GPIO_Init->Mode == GPIO_MODE_AF_PP) ||
 81059b4:	2b11      	cmp	r3, #17
 81059b6:	d003      	beq.n	81059c0 <HAL_GPIO_Init+0x4c>
          (GPIO_Init->Mode == GPIO_MODE_OUTPUT_OD) || (GPIO_Init->Mode == GPIO_MODE_AF_OD))
 81059b8:	683b      	ldr	r3, [r7, #0]
 81059ba:	685b      	ldr	r3, [r3, #4]
 81059bc:	2b12      	cmp	r3, #18
 81059be:	d130      	bne.n	8105a22 <HAL_GPIO_Init+0xae>
      {
        /* Check the Speed parameter */
        assert_param(IS_GPIO_SPEED(GPIO_Init->Speed));
        /* Configure the IO Speed */
        temp = GPIOx->OSPEEDR;
 81059c0:	687b      	ldr	r3, [r7, #4]
 81059c2:	689b      	ldr	r3, [r3, #8]
 81059c4:	61bb      	str	r3, [r7, #24]
        temp &= ~(GPIO_OSPEEDR_OSPEED0 << (position * 2U));
 81059c6:	69fb      	ldr	r3, [r7, #28]
 81059c8:	005b      	lsls	r3, r3, #1
 81059ca:	2203      	movs	r2, #3
 81059cc:	fa02 f303 	lsl.w	r3, r2, r3
 81059d0:	43db      	mvns	r3, r3
 81059d2:	69ba      	ldr	r2, [r7, #24]
 81059d4:	4013      	ands	r3, r2
 81059d6:	61bb      	str	r3, [r7, #24]
        temp |= (GPIO_Init->Speed << (position * 2U));
 81059d8:	683b      	ldr	r3, [r7, #0]
 81059da:	68da      	ldr	r2, [r3, #12]
 81059dc:	69fb      	ldr	r3, [r7, #28]
 81059de:	005b      	lsls	r3, r3, #1
 81059e0:	fa02 f303 	lsl.w	r3, r2, r3
 81059e4:	69ba      	ldr	r2, [r7, #24]
 81059e6:	4313      	orrs	r3, r2
 81059e8:	61bb      	str	r3, [r7, #24]
        GPIOx->OSPEEDR = temp;
 81059ea:	687b      	ldr	r3, [r7, #4]
 81059ec:	69ba      	ldr	r2, [r7, #24]
 81059ee:	609a      	str	r2, [r3, #8]

        /* Configure the IO Output Type */
        temp = GPIOx->OTYPER;
 81059f0:	687b      	ldr	r3, [r7, #4]
 81059f2:	685b      	ldr	r3, [r3, #4]
 81059f4:	61bb      	str	r3, [r7, #24]
        temp &= ~(GPIO_OTYPER_OT0 << position) ;
 81059f6:	2201      	movs	r2, #1
 81059f8:	69fb      	ldr	r3, [r7, #28]
 81059fa:	fa02 f303 	lsl.w	r3, r2, r3
 81059fe:	43db      	mvns	r3, r3
 8105a00:	69ba      	ldr	r2, [r7, #24]
 8105a02:	4013      	ands	r3, r2
 8105a04:	61bb      	str	r3, [r7, #24]
        temp |= (((GPIO_Init->Mode & GPIO_OUTPUT_TYPE) >> 4U) << position);
 8105a06:	683b      	ldr	r3, [r7, #0]
 8105a08:	685b      	ldr	r3, [r3, #4]
 8105a0a:	091b      	lsrs	r3, r3, #4
 8105a0c:	f003 0201 	and.w	r2, r3, #1
 8105a10:	69fb      	ldr	r3, [r7, #28]
 8105a12:	fa02 f303 	lsl.w	r3, r2, r3
 8105a16:	69ba      	ldr	r2, [r7, #24]
 8105a18:	4313      	orrs	r3, r2
 8105a1a:	61bb      	str	r3, [r7, #24]
        GPIOx->OTYPER = temp;
 8105a1c:	687b      	ldr	r3, [r7, #4]
 8105a1e:	69ba      	ldr	r2, [r7, #24]
 8105a20:	605a      	str	r2, [r3, #4]
      }

      /* Activate the Pull-up or Pull down resistor for the current IO */
      temp = GPIOx->PUPDR;
 8105a22:	687b      	ldr	r3, [r7, #4]
 8105a24:	68db      	ldr	r3, [r3, #12]
 8105a26:	61bb      	str	r3, [r7, #24]
      temp &= ~(GPIO_PUPDR_PUPD0 << (position * 2U));
 8105a28:	69fb      	ldr	r3, [r7, #28]
 8105a2a:	005b      	lsls	r3, r3, #1
 8105a2c:	2203      	movs	r2, #3
 8105a2e:	fa02 f303 	lsl.w	r3, r2, r3
 8105a32:	43db      	mvns	r3, r3
 8105a34:	69ba      	ldr	r2, [r7, #24]
 8105a36:	4013      	ands	r3, r2
 8105a38:	61bb      	str	r3, [r7, #24]
      temp |= ((GPIO_Init->Pull) << (position * 2U));
 8105a3a:	683b      	ldr	r3, [r7, #0]
 8105a3c:	689a      	ldr	r2, [r3, #8]
 8105a3e:	69fb      	ldr	r3, [r7, #28]
 8105a40:	005b      	lsls	r3, r3, #1
 8105a42:	fa02 f303 	lsl.w	r3, r2, r3
 8105a46:	69ba      	ldr	r2, [r7, #24]
 8105a48:	4313      	orrs	r3, r2
 8105a4a:	61bb      	str	r3, [r7, #24]
      GPIOx->PUPDR = temp;
 8105a4c:	687b      	ldr	r3, [r7, #4]
 8105a4e:	69ba      	ldr	r2, [r7, #24]
 8105a50:	60da      	str	r2, [r3, #12]

      /* In case of Alternate function mode selection */
      if ((GPIO_Init->Mode == GPIO_MODE_AF_PP) || (GPIO_Init->Mode == GPIO_MODE_AF_OD))
 8105a52:	683b      	ldr	r3, [r7, #0]
 8105a54:	685b      	ldr	r3, [r3, #4]
 8105a56:	2b02      	cmp	r3, #2
 8105a58:	d003      	beq.n	8105a62 <HAL_GPIO_Init+0xee>
 8105a5a:	683b      	ldr	r3, [r7, #0]
 8105a5c:	685b      	ldr	r3, [r3, #4]
 8105a5e:	2b12      	cmp	r3, #18
 8105a60:	d123      	bne.n	8105aaa <HAL_GPIO_Init+0x136>
        /* Check the Alternate function parameters */
        assert_param(IS_GPIO_AF_INSTANCE(GPIOx));
        assert_param(IS_GPIO_AF(GPIO_Init->Alternate));

        /* Configure Alternate function mapped with the current IO */
        temp = GPIOx->AFR[position >> 3U];
 8105a62:	69fb      	ldr	r3, [r7, #28]
 8105a64:	08da      	lsrs	r2, r3, #3
 8105a66:	687b      	ldr	r3, [r7, #4]
 8105a68:	3208      	adds	r2, #8
 8105a6a:	f853 3022 	ldr.w	r3, [r3, r2, lsl #2]
 8105a6e:	61bb      	str	r3, [r7, #24]
        temp &= ~(0xFU << ((position & 0x07U) * 4U));
 8105a70:	69fb      	ldr	r3, [r7, #28]
 8105a72:	f003 0307 	and.w	r3, r3, #7
 8105a76:	009b      	lsls	r3, r3, #2
 8105a78:	220f      	movs	r2, #15
 8105a7a:	fa02 f303 	lsl.w	r3, r2, r3
 8105a7e:	43db      	mvns	r3, r3
 8105a80:	69ba      	ldr	r2, [r7, #24]
 8105a82:	4013      	ands	r3, r2
 8105a84:	61bb      	str	r3, [r7, #24]
        temp |= ((GPIO_Init->Alternate) << ((position & 0x07U) * 4U));
 8105a86:	683b      	ldr	r3, [r7, #0]
 8105a88:	691a      	ldr	r2, [r3, #16]
 8105a8a:	69fb      	ldr	r3, [r7, #28]
 8105a8c:	f003 0307 	and.w	r3, r3, #7
 8105a90:	009b      	lsls	r3, r3, #2
 8105a92:	fa02 f303 	lsl.w	r3, r2, r3
 8105a96:	69ba      	ldr	r2, [r7, #24]
 8105a98:	4313      	orrs	r3, r2
 8105a9a:	61bb      	str	r3, [r7, #24]
        GPIOx->AFR[position >> 3U] = temp;
 8105a9c:	69fb      	ldr	r3, [r7, #28]
 8105a9e:	08da      	lsrs	r2, r3, #3
 8105aa0:	687b      	ldr	r3, [r7, #4]
 8105aa2:	3208      	adds	r2, #8
 8105aa4:	69b9      	ldr	r1, [r7, #24]
 8105aa6:	f843 1022 	str.w	r1, [r3, r2, lsl #2]
      }

      /* Configure IO Direction mode (Input, Output, Alternate or Analog) */
      temp = GPIOx->MODER;
 8105aaa:	687b      	ldr	r3, [r7, #4]
 8105aac:	681b      	ldr	r3, [r3, #0]
 8105aae:	61bb      	str	r3, [r7, #24]
      temp &= ~(GPIO_MODER_MODE0 << (position * 2U));
 8105ab0:	69fb      	ldr	r3, [r7, #28]
 8105ab2:	005b      	lsls	r3, r3, #1
 8105ab4:	2203      	movs	r2, #3
 8105ab6:	fa02 f303 	lsl.w	r3, r2, r3
 8105aba:	43db      	mvns	r3, r3
 8105abc:	69ba      	ldr	r2, [r7, #24]
 8105abe:	4013      	ands	r3, r2
 8105ac0:	61bb      	str	r3, [r7, #24]
      temp |= ((GPIO_Init->Mode & GPIO_MODE) << (position * 2U));
 8105ac2:	683b      	ldr	r3, [r7, #0]
 8105ac4:	685b      	ldr	r3, [r3, #4]
 8105ac6:	f003 0203 	and.w	r2, r3, #3
 8105aca:	69fb      	ldr	r3, [r7, #28]
 8105acc:	005b      	lsls	r3, r3, #1
 8105ace:	fa02 f303 	lsl.w	r3, r2, r3
 8105ad2:	69ba      	ldr	r2, [r7, #24]
 8105ad4:	4313      	orrs	r3, r2
 8105ad6:	61bb      	str	r3, [r7, #24]
      GPIOx->MODER = temp;
 8105ad8:	687b      	ldr	r3, [r7, #4]
 8105ada:	69ba      	ldr	r2, [r7, #24]
 8105adc:	601a      	str	r2, [r3, #0]

      /*--------------------- EXTI Mode Configuration ------------------------*/
      /* Configure the External Interrupt or event for the current IO */
      if ((GPIO_Init->Mode & EXTI_MODE) == EXTI_MODE)
 8105ade:	683b      	ldr	r3, [r7, #0]
 8105ae0:	685b      	ldr	r3, [r3, #4]
 8105ae2:	f003 5380 	and.w	r3, r3, #268435456	; 0x10000000
 8105ae6:	2b00      	cmp	r3, #0
 8105ae8:	f000 80e0 	beq.w	8105cac <HAL_GPIO_Init+0x338>
      {
        /* Enable SYSCFG Clock */
        __HAL_RCC_SYSCFG_CLK_ENABLE();
 8105aec:	4b2f      	ldr	r3, [pc, #188]	; (8105bac <HAL_GPIO_Init+0x238>)
 8105aee:	f8d3 30f4 	ldr.w	r3, [r3, #244]	; 0xf4
 8105af2:	4a2e      	ldr	r2, [pc, #184]	; (8105bac <HAL_GPIO_Init+0x238>)
 8105af4:	f043 0302 	orr.w	r3, r3, #2
 8105af8:	f8c2 30f4 	str.w	r3, [r2, #244]	; 0xf4
 8105afc:	4b2b      	ldr	r3, [pc, #172]	; (8105bac <HAL_GPIO_Init+0x238>)
 8105afe:	f8d3 30f4 	ldr.w	r3, [r3, #244]	; 0xf4
 8105b02:	f003 0302 	and.w	r3, r3, #2
 8105b06:	60fb      	str	r3, [r7, #12]
 8105b08:	68fb      	ldr	r3, [r7, #12]

        temp = SYSCFG->EXTICR[position >> 2U];
 8105b0a:	4a29      	ldr	r2, [pc, #164]	; (8105bb0 <HAL_GPIO_Init+0x23c>)
 8105b0c:	69fb      	ldr	r3, [r7, #28]
 8105b0e:	089b      	lsrs	r3, r3, #2
 8105b10:	3302      	adds	r3, #2
 8105b12:	f852 3023 	ldr.w	r3, [r2, r3, lsl #2]
 8105b16:	61bb      	str	r3, [r7, #24]
        temp &= ~(0x0FUL << (4U * (position & 0x03U)));
 8105b18:	69fb      	ldr	r3, [r7, #28]
 8105b1a:	f003 0303 	and.w	r3, r3, #3
 8105b1e:	009b      	lsls	r3, r3, #2
 8105b20:	220f      	movs	r2, #15
 8105b22:	fa02 f303 	lsl.w	r3, r2, r3
 8105b26:	43db      	mvns	r3, r3
 8105b28:	69ba      	ldr	r2, [r7, #24]
 8105b2a:	4013      	ands	r3, r2
 8105b2c:	61bb      	str	r3, [r7, #24]
        temp |= (GPIO_GET_INDEX(GPIOx) << (4U * (position & 0x03U)));
 8105b2e:	687b      	ldr	r3, [r7, #4]
 8105b30:	4a20      	ldr	r2, [pc, #128]	; (8105bb4 <HAL_GPIO_Init+0x240>)
 8105b32:	4293      	cmp	r3, r2
 8105b34:	d052      	beq.n	8105bdc <HAL_GPIO_Init+0x268>
 8105b36:	687b      	ldr	r3, [r7, #4]
 8105b38:	4a1f      	ldr	r2, [pc, #124]	; (8105bb8 <HAL_GPIO_Init+0x244>)
 8105b3a:	4293      	cmp	r3, r2
 8105b3c:	d031      	beq.n	8105ba2 <HAL_GPIO_Init+0x22e>
 8105b3e:	687b      	ldr	r3, [r7, #4]
 8105b40:	4a1e      	ldr	r2, [pc, #120]	; (8105bbc <HAL_GPIO_Init+0x248>)
 8105b42:	4293      	cmp	r3, r2
 8105b44:	d02b      	beq.n	8105b9e <HAL_GPIO_Init+0x22a>
 8105b46:	687b      	ldr	r3, [r7, #4]
 8105b48:	4a1d      	ldr	r2, [pc, #116]	; (8105bc0 <HAL_GPIO_Init+0x24c>)
 8105b4a:	4293      	cmp	r3, r2
 8105b4c:	d025      	beq.n	8105b9a <HAL_GPIO_Init+0x226>
 8105b4e:	687b      	ldr	r3, [r7, #4]
 8105b50:	4a1c      	ldr	r2, [pc, #112]	; (8105bc4 <HAL_GPIO_Init+0x250>)
 8105b52:	4293      	cmp	r3, r2
 8105b54:	d01f      	beq.n	8105b96 <HAL_GPIO_Init+0x222>
 8105b56:	687b      	ldr	r3, [r7, #4]
 8105b58:	4a1b      	ldr	r2, [pc, #108]	; (8105bc8 <HAL_GPIO_Init+0x254>)
 8105b5a:	4293      	cmp	r3, r2
 8105b5c:	d019      	beq.n	8105b92 <HAL_GPIO_Init+0x21e>
 8105b5e:	687b      	ldr	r3, [r7, #4]
 8105b60:	4a1a      	ldr	r2, [pc, #104]	; (8105bcc <HAL_GPIO_Init+0x258>)
 8105b62:	4293      	cmp	r3, r2
 8105b64:	d013      	beq.n	8105b8e <HAL_GPIO_Init+0x21a>
 8105b66:	687b      	ldr	r3, [r7, #4]
 8105b68:	4a19      	ldr	r2, [pc, #100]	; (8105bd0 <HAL_GPIO_Init+0x25c>)
 8105b6a:	4293      	cmp	r3, r2
 8105b6c:	d00d      	beq.n	8105b8a <HAL_GPIO_Init+0x216>
 8105b6e:	687b      	ldr	r3, [r7, #4]
 8105b70:	4a18      	ldr	r2, [pc, #96]	; (8105bd4 <HAL_GPIO_Init+0x260>)
 8105b72:	4293      	cmp	r3, r2
 8105b74:	d007      	beq.n	8105b86 <HAL_GPIO_Init+0x212>
 8105b76:	687b      	ldr	r3, [r7, #4]
 8105b78:	4a17      	ldr	r2, [pc, #92]	; (8105bd8 <HAL_GPIO_Init+0x264>)
 8105b7a:	4293      	cmp	r3, r2
 8105b7c:	d101      	bne.n	8105b82 <HAL_GPIO_Init+0x20e>
 8105b7e:	2309      	movs	r3, #9
 8105b80:	e02d      	b.n	8105bde <HAL_GPIO_Init+0x26a>
 8105b82:	230a      	movs	r3, #10
 8105b84:	e02b      	b.n	8105bde <HAL_GPIO_Init+0x26a>
 8105b86:	2308      	movs	r3, #8
 8105b88:	e029      	b.n	8105bde <HAL_GPIO_Init+0x26a>
 8105b8a:	2307      	movs	r3, #7
 8105b8c:	e027      	b.n	8105bde <HAL_GPIO_Init+0x26a>
 8105b8e:	2306      	movs	r3, #6
 8105b90:	e025      	b.n	8105bde <HAL_GPIO_Init+0x26a>
 8105b92:	2305      	movs	r3, #5
 8105b94:	e023      	b.n	8105bde <HAL_GPIO_Init+0x26a>
 8105b96:	2304      	movs	r3, #4
 8105b98:	e021      	b.n	8105bde <HAL_GPIO_Init+0x26a>
 8105b9a:	2303      	movs	r3, #3
 8105b9c:	e01f      	b.n	8105bde <HAL_GPIO_Init+0x26a>
 8105b9e:	2302      	movs	r3, #2
 8105ba0:	e01d      	b.n	8105bde <HAL_GPIO_Init+0x26a>
 8105ba2:	2301      	movs	r3, #1
 8105ba4:	e01b      	b.n	8105bde <HAL_GPIO_Init+0x26a>
 8105ba6:	bf00      	nop
 8105ba8:	580000c0 	.word	0x580000c0
 8105bac:	58024400 	.word	0x58024400
 8105bb0:	58000400 	.word	0x58000400
 8105bb4:	58020000 	.word	0x58020000
 8105bb8:	58020400 	.word	0x58020400
 8105bbc:	58020800 	.word	0x58020800
 8105bc0:	58020c00 	.word	0x58020c00
 8105bc4:	58021000 	.word	0x58021000
 8105bc8:	58021400 	.word	0x58021400
 8105bcc:	58021800 	.word	0x58021800
 8105bd0:	58021c00 	.word	0x58021c00
 8105bd4:	58022000 	.word	0x58022000
 8105bd8:	58022400 	.word	0x58022400
 8105bdc:	2300      	movs	r3, #0
 8105bde:	69fa      	ldr	r2, [r7, #28]
 8105be0:	f002 0203 	and.w	r2, r2, #3
 8105be4:	0092      	lsls	r2, r2, #2
 8105be6:	4093      	lsls	r3, r2
 8105be8:	69ba      	ldr	r2, [r7, #24]
 8105bea:	4313      	orrs	r3, r2
 8105bec:	61bb      	str	r3, [r7, #24]
        SYSCFG->EXTICR[position >> 2U] = temp;
 8105bee:	4938      	ldr	r1, [pc, #224]	; (8105cd0 <HAL_GPIO_Init+0x35c>)
 8105bf0:	69fb      	ldr	r3, [r7, #28]
 8105bf2:	089b      	lsrs	r3, r3, #2
 8105bf4:	3302      	adds	r3, #2
 8105bf6:	69ba      	ldr	r2, [r7, #24]
 8105bf8:	f841 2023 	str.w	r2, [r1, r3, lsl #2]

        /* Clear EXTI line configuration */
        temp = EXTI_CurrentCPU->IMR1;
 8105bfc:	697b      	ldr	r3, [r7, #20]
 8105bfe:	681b      	ldr	r3, [r3, #0]
 8105c00:	61bb      	str	r3, [r7, #24]
        temp &= ~(iocurrent);
 8105c02:	693b      	ldr	r3, [r7, #16]
 8105c04:	43db      	mvns	r3, r3
 8105c06:	69ba      	ldr	r2, [r7, #24]
 8105c08:	4013      	ands	r3, r2
 8105c0a:	61bb      	str	r3, [r7, #24]
        if ((GPIO_Init->Mode & GPIO_MODE_IT) == GPIO_MODE_IT)
 8105c0c:	683b      	ldr	r3, [r7, #0]
 8105c0e:	685b      	ldr	r3, [r3, #4]
 8105c10:	f403 3380 	and.w	r3, r3, #65536	; 0x10000
 8105c14:	2b00      	cmp	r3, #0
 8105c16:	d003      	beq.n	8105c20 <HAL_GPIO_Init+0x2ac>
        {
          temp |= iocurrent;
 8105c18:	69ba      	ldr	r2, [r7, #24]
 8105c1a:	693b      	ldr	r3, [r7, #16]
 8105c1c:	4313      	orrs	r3, r2
 8105c1e:	61bb      	str	r3, [r7, #24]
        }
        EXTI_CurrentCPU->IMR1 = temp;
 8105c20:	697b      	ldr	r3, [r7, #20]
 8105c22:	69ba      	ldr	r2, [r7, #24]
 8105c24:	601a      	str	r2, [r3, #0]

        temp = EXTI_CurrentCPU->EMR1;
 8105c26:	697b      	ldr	r3, [r7, #20]
 8105c28:	685b      	ldr	r3, [r3, #4]
 8105c2a:	61bb      	str	r3, [r7, #24]
        temp &= ~(iocurrent);
 8105c2c:	693b      	ldr	r3, [r7, #16]
 8105c2e:	43db      	mvns	r3, r3
 8105c30:	69ba      	ldr	r2, [r7, #24]
 8105c32:	4013      	ands	r3, r2
 8105c34:	61bb      	str	r3, [r7, #24]
        if ((GPIO_Init->Mode & GPIO_MODE_EVT) == GPIO_MODE_EVT)
 8105c36:	683b      	ldr	r3, [r7, #0]
 8105c38:	685b      	ldr	r3, [r3, #4]
 8105c3a:	f403 3300 	and.w	r3, r3, #131072	; 0x20000
 8105c3e:	2b00      	cmp	r3, #0
 8105c40:	d003      	beq.n	8105c4a <HAL_GPIO_Init+0x2d6>
        {
          temp |= iocurrent;
 8105c42:	69ba      	ldr	r2, [r7, #24]
 8105c44:	693b      	ldr	r3, [r7, #16]
 8105c46:	4313      	orrs	r3, r2
 8105c48:	61bb      	str	r3, [r7, #24]
        }
        EXTI_CurrentCPU->EMR1 = temp;
 8105c4a:	697b      	ldr	r3, [r7, #20]
 8105c4c:	69ba      	ldr	r2, [r7, #24]
 8105c4e:	605a      	str	r2, [r3, #4]

        /* Clear Rising Falling edge configuration */
        temp = EXTI->RTSR1;
 8105c50:	f04f 43b0 	mov.w	r3, #1476395008	; 0x58000000
 8105c54:	681b      	ldr	r3, [r3, #0]
 8105c56:	61bb      	str	r3, [r7, #24]
        temp &= ~(iocurrent);
 8105c58:	693b      	ldr	r3, [r7, #16]
 8105c5a:	43db      	mvns	r3, r3
 8105c5c:	69ba      	ldr	r2, [r7, #24]
 8105c5e:	4013      	ands	r3, r2
 8105c60:	61bb      	str	r3, [r7, #24]
        if ((GPIO_Init->Mode & RISING_EDGE) == RISING_EDGE)
 8105c62:	683b      	ldr	r3, [r7, #0]
 8105c64:	685b      	ldr	r3, [r3, #4]
 8105c66:	f403 1380 	and.w	r3, r3, #1048576	; 0x100000
 8105c6a:	2b00      	cmp	r3, #0
 8105c6c:	d003      	beq.n	8105c76 <HAL_GPIO_Init+0x302>
        {
          temp |= iocurrent;
 8105c6e:	69ba      	ldr	r2, [r7, #24]
 8105c70:	693b      	ldr	r3, [r7, #16]
 8105c72:	4313      	orrs	r3, r2
 8105c74:	61bb      	str	r3, [r7, #24]
        }
        EXTI->RTSR1 = temp;
 8105c76:	f04f 42b0 	mov.w	r2, #1476395008	; 0x58000000
 8105c7a:	69bb      	ldr	r3, [r7, #24]
 8105c7c:	6013      	str	r3, [r2, #0]

        temp = EXTI->FTSR1;
 8105c7e:	f04f 43b0 	mov.w	r3, #1476395008	; 0x58000000
 8105c82:	685b      	ldr	r3, [r3, #4]
 8105c84:	61bb      	str	r3, [r7, #24]
        temp &= ~(iocurrent);
 8105c86:	693b      	ldr	r3, [r7, #16]
 8105c88:	43db      	mvns	r3, r3
 8105c8a:	69ba      	ldr	r2, [r7, #24]
 8105c8c:	4013      	ands	r3, r2
 8105c8e:	61bb      	str	r3, [r7, #24]
        if ((GPIO_Init->Mode & FALLING_EDGE) == FALLING_EDGE)
 8105c90:	683b      	ldr	r3, [r7, #0]
 8105c92:	685b      	ldr	r3, [r3, #4]
 8105c94:	f403 1300 	and.w	r3, r3, #2097152	; 0x200000
 8105c98:	2b00      	cmp	r3, #0
 8105c9a:	d003      	beq.n	8105ca4 <HAL_GPIO_Init+0x330>
        {
          temp |= iocurrent;
 8105c9c:	69ba      	ldr	r2, [r7, #24]
 8105c9e:	693b      	ldr	r3, [r7, #16]
 8105ca0:	4313      	orrs	r3, r2
 8105ca2:	61bb      	str	r3, [r7, #24]
        }
        EXTI->FTSR1 = temp;
 8105ca4:	f04f 42b0 	mov.w	r2, #1476395008	; 0x58000000
 8105ca8:	69bb      	ldr	r3, [r7, #24]
 8105caa:	6053      	str	r3, [r2, #4]
      }
    }

    position++;
 8105cac:	69fb      	ldr	r3, [r7, #28]
 8105cae:	3301      	adds	r3, #1
 8105cb0:	61fb      	str	r3, [r7, #28]
  while (((GPIO_Init->Pin) >> position) != 0x00U)
 8105cb2:	683b      	ldr	r3, [r7, #0]
 8105cb4:	681a      	ldr	r2, [r3, #0]
 8105cb6:	69fb      	ldr	r3, [r7, #28]
 8105cb8:	fa22 f303 	lsr.w	r3, r2, r3
 8105cbc:	2b00      	cmp	r3, #0
 8105cbe:	f47f ae63 	bne.w	8105988 <HAL_GPIO_Init+0x14>
  }
}
 8105cc2:	bf00      	nop
 8105cc4:	bf00      	nop
 8105cc6:	3724      	adds	r7, #36	; 0x24
 8105cc8:	46bd      	mov	sp, r7
 8105cca:	f85d 7b04 	ldr.w	r7, [sp], #4
 8105cce:	4770      	bx	lr
 8105cd0:	58000400 	.word	0x58000400

08105cd4 <HAL_GPIO_WritePin>:
  *            @arg GPIO_PIN_RESET: to clear the port pin
  *            @arg GPIO_PIN_SET: to set the port pin
  * @retval None
  */
void HAL_GPIO_WritePin(GPIO_TypeDef *GPIOx, uint16_t GPIO_Pin, GPIO_PinState PinState)
{
 8105cd4:	b480      	push	{r7}
 8105cd6:	b083      	sub	sp, #12
 8105cd8:	af00      	add	r7, sp, #0
 8105cda:	6078      	str	r0, [r7, #4]
 8105cdc:	460b      	mov	r3, r1
 8105cde:	807b      	strh	r3, [r7, #2]
 8105ce0:	4613      	mov	r3, r2
 8105ce2:	707b      	strb	r3, [r7, #1]
  /* Check the parameters */
  assert_param(IS_GPIO_PIN(GPIO_Pin));
  assert_param(IS_GPIO_PIN_ACTION(PinState));

  if (PinState != GPIO_PIN_RESET)
 8105ce4:	787b      	ldrb	r3, [r7, #1]
 8105ce6:	2b00      	cmp	r3, #0
 8105ce8:	d003      	beq.n	8105cf2 <HAL_GPIO_WritePin+0x1e>
  {
    GPIOx->BSRR = GPIO_Pin;
 8105cea:	887a      	ldrh	r2, [r7, #2]
 8105cec:	687b      	ldr	r3, [r7, #4]
 8105cee:	619a      	str	r2, [r3, #24]
  }
  else
  {
    GPIOx->BSRR = (uint32_t)GPIO_Pin << GPIO_NUMBER;
  }
}
 8105cf0:	e003      	b.n	8105cfa <HAL_GPIO_WritePin+0x26>
    GPIOx->BSRR = (uint32_t)GPIO_Pin << GPIO_NUMBER;
 8105cf2:	887b      	ldrh	r3, [r7, #2]
 8105cf4:	041a      	lsls	r2, r3, #16
 8105cf6:	687b      	ldr	r3, [r7, #4]
 8105cf8:	619a      	str	r2, [r3, #24]
}
 8105cfa:	bf00      	nop
 8105cfc:	370c      	adds	r7, #12
 8105cfe:	46bd      	mov	sp, r7
 8105d00:	f85d 7b04 	ldr.w	r7, [sp], #4
 8105d04:	4770      	bx	lr

08105d06 <HAL_GPIO_TogglePin>:
  * @param  GPIOx: Where x can be (A..K) to select the GPIO peripheral.
  * @param  GPIO_Pin: Specifies the pins to be toggled.
  * @retval None
  */
void HAL_GPIO_TogglePin(GPIO_TypeDef *GPIOx, uint16_t GPIO_Pin)
{
 8105d06:	b480      	push	{r7}
 8105d08:	b083      	sub	sp, #12
 8105d0a:	af00      	add	r7, sp, #0
 8105d0c:	6078      	str	r0, [r7, #4]
 8105d0e:	460b      	mov	r3, r1
 8105d10:	807b      	strh	r3, [r7, #2]
  /* Check the parameters */
  assert_param(IS_GPIO_PIN(GPIO_Pin));

  if ((GPIOx->ODR & GPIO_Pin) == GPIO_Pin)
 8105d12:	687b      	ldr	r3, [r7, #4]
 8105d14:	695a      	ldr	r2, [r3, #20]
 8105d16:	887b      	ldrh	r3, [r7, #2]
 8105d18:	401a      	ands	r2, r3
 8105d1a:	887b      	ldrh	r3, [r7, #2]
 8105d1c:	429a      	cmp	r2, r3
 8105d1e:	d104      	bne.n	8105d2a <HAL_GPIO_TogglePin+0x24>
  {
    GPIOx->BSRR = (uint32_t)GPIO_Pin << GPIO_NUMBER;
 8105d20:	887b      	ldrh	r3, [r7, #2]
 8105d22:	041a      	lsls	r2, r3, #16
 8105d24:	687b      	ldr	r3, [r7, #4]
 8105d26:	619a      	str	r2, [r3, #24]
  }
  else
  {
    GPIOx->BSRR = GPIO_Pin;
  }
}
 8105d28:	e002      	b.n	8105d30 <HAL_GPIO_TogglePin+0x2a>
    GPIOx->BSRR = GPIO_Pin;
 8105d2a:	887a      	ldrh	r2, [r7, #2]
 8105d2c:	687b      	ldr	r3, [r7, #4]
 8105d2e:	619a      	str	r2, [r3, #24]
}
 8105d30:	bf00      	nop
 8105d32:	370c      	adds	r7, #12
 8105d34:	46bd      	mov	sp, r7
 8105d36:	f85d 7b04 	ldr.w	r7, [sp], #4
 8105d3a:	4770      	bx	lr

08105d3c <HAL_HSEM_Take>:
  * @param  SemID: semaphore ID from 0 to 31
  * @param  ProcessID: Process ID from 0 to 255
  * @retval HAL status
  */
HAL_StatusTypeDef  HAL_HSEM_Take(uint32_t SemID, uint32_t ProcessID)
{
 8105d3c:	b5b0      	push	{r4, r5, r7, lr}
 8105d3e:	b086      	sub	sp, #24
 8105d40:	af00      	add	r7, sp, #0
 8105d42:	6078      	str	r0, [r7, #4]
 8105d44:	6039      	str	r1, [r7, #0]
  assert_param(IS_HSEM_SEMID(SemID));
  assert_param(IS_HSEM_PROCESSID(ProcessID));

#if  USE_MULTI_CORE_SHARED_CODE != 0U
  /* First step  write R register with MasterID, processID and take bit=1*/
  HSEM->R[SemID] = ((ProcessID & HSEM_R_PROCID) | ((HAL_GetCurrentCPUID() << POSITION_VAL(HSEM_R_MASTERID)) & HSEM_R_MASTERID) | HSEM_R_LOCK);
 8105d46:	683b      	ldr	r3, [r7, #0]
 8105d48:	b2dc      	uxtb	r4, r3
 8105d4a:	f7ff fdff 	bl	810594c <HAL_GetCurrentCPUID>
 8105d4e:	4602      	mov	r2, r0
 8105d50:	f44f 437f 	mov.w	r3, #65280	; 0xff00
 8105d54:	60fb      	str	r3, [r7, #12]
  uint32_t result;

#if ((defined (__ARM_ARCH_7M__      ) && (__ARM_ARCH_7M__      == 1)) || \
     (defined (__ARM_ARCH_7EM__     ) && (__ARM_ARCH_7EM__     == 1)) || \
     (defined (__ARM_ARCH_8M_MAIN__ ) && (__ARM_ARCH_8M_MAIN__ == 1))    )
   __ASM volatile ("rbit %0, %1" : "=r" (result) : "r" (value) );
 8105d56:	68fb      	ldr	r3, [r7, #12]
 8105d58:	fa93 f3a3 	rbit	r3, r3
 8105d5c:	60bb      	str	r3, [r7, #8]
    result |= value & 1U;
    s--;
  }
  result <<= s;                        /* shift when v's highest bits are zero */
#endif
  return result;
 8105d5e:	68bb      	ldr	r3, [r7, #8]
 8105d60:	fab3 f383 	clz	r3, r3
 8105d64:	b2db      	uxtb	r3, r3
 8105d66:	fa02 f303 	lsl.w	r3, r2, r3
 8105d6a:	f403 437f 	and.w	r3, r3, #65280	; 0xff00
 8105d6e:	4323      	orrs	r3, r4
 8105d70:	4914      	ldr	r1, [pc, #80]	; (8105dc4 <HAL_HSEM_Take+0x88>)
 8105d72:	f043 4200 	orr.w	r2, r3, #2147483648	; 0x80000000
 8105d76:	687b      	ldr	r3, [r7, #4]
 8105d78:	f841 2023 	str.w	r2, [r1, r3, lsl #2]

  /* second step : read the R register . Take achieved if MasterID and processID match and take bit set to 1 */
  if (HSEM->R[SemID] == ((ProcessID & HSEM_R_PROCID) | ((HAL_GetCurrentCPUID() << POSITION_VAL(HSEM_R_MASTERID)) & HSEM_R_MASTERID) | HSEM_R_LOCK))
 8105d7c:	4a11      	ldr	r2, [pc, #68]	; (8105dc4 <HAL_HSEM_Take+0x88>)
 8105d7e:	687b      	ldr	r3, [r7, #4]
 8105d80:	f852 4023 	ldr.w	r4, [r2, r3, lsl #2]
 8105d84:	683b      	ldr	r3, [r7, #0]
 8105d86:	b2dd      	uxtb	r5, r3
 8105d88:	f7ff fde0 	bl	810594c <HAL_GetCurrentCPUID>
 8105d8c:	4602      	mov	r2, r0
 8105d8e:	f44f 437f 	mov.w	r3, #65280	; 0xff00
 8105d92:	617b      	str	r3, [r7, #20]
   __ASM volatile ("rbit %0, %1" : "=r" (result) : "r" (value) );
 8105d94:	697b      	ldr	r3, [r7, #20]
 8105d96:	fa93 f3a3 	rbit	r3, r3
 8105d9a:	613b      	str	r3, [r7, #16]
  return result;
 8105d9c:	693b      	ldr	r3, [r7, #16]
 8105d9e:	fab3 f383 	clz	r3, r3
 8105da2:	b2db      	uxtb	r3, r3
 8105da4:	fa02 f303 	lsl.w	r3, r2, r3
 8105da8:	f403 437f 	and.w	r3, r3, #65280	; 0xff00
 8105dac:	432b      	orrs	r3, r5
 8105dae:	f043 4300 	orr.w	r3, r3, #2147483648	; 0x80000000
 8105db2:	429c      	cmp	r4, r3
 8105db4:	d101      	bne.n	8105dba <HAL_HSEM_Take+0x7e>
  {
    /*take success when MasterID and ProcessID match and take bit set*/
    return HAL_OK;
 8105db6:	2300      	movs	r3, #0
 8105db8:	e000      	b.n	8105dbc <HAL_HSEM_Take+0x80>
    return HAL_OK;
  }
#endif

  /* Semaphore take fails*/
  return HAL_ERROR;
 8105dba:	2301      	movs	r3, #1
}
 8105dbc:	4618      	mov	r0, r3
 8105dbe:	3718      	adds	r7, #24
 8105dc0:	46bd      	mov	sp, r7
 8105dc2:	bdb0      	pop	{r4, r5, r7, pc}
 8105dc4:	58026400 	.word	0x58026400

08105dc8 <HAL_HSEM_Release>:
  * @param  SemID: semaphore ID from 0 to 31
  * @param  ProcessID: Process ID from 0 to 255
  * @retval None
  */
void  HAL_HSEM_Release(uint32_t SemID, uint32_t ProcessID)
{
 8105dc8:	b580      	push	{r7, lr}
 8105dca:	b084      	sub	sp, #16
 8105dcc:	af00      	add	r7, sp, #0
 8105dce:	6078      	str	r0, [r7, #4]
 8105dd0:	6039      	str	r1, [r7, #0]
  assert_param(IS_HSEM_SEMID(SemID));
  assert_param(IS_HSEM_PROCESSID(ProcessID));

  /* Clear the semaphore by writing to the R register : the MasterID , the processID and take bit = 0  */
#if  USE_MULTI_CORE_SHARED_CODE != 0U
  HSEM->R[SemID] = (ProcessID | ((HAL_GetCurrentCPUID() << POSITION_VAL(HSEM_R_MASTERID)) & HSEM_R_MASTERID));
 8105dd2:	f7ff fdbb 	bl	810594c <HAL_GetCurrentCPUID>
 8105dd6:	4602      	mov	r2, r0
 8105dd8:	f44f 437f 	mov.w	r3, #65280	; 0xff00
 8105ddc:	60fb      	str	r3, [r7, #12]
   __ASM volatile ("rbit %0, %1" : "=r" (result) : "r" (value) );
 8105dde:	68fb      	ldr	r3, [r7, #12]
 8105de0:	fa93 f3a3 	rbit	r3, r3
 8105de4:	60bb      	str	r3, [r7, #8]
  return result;
 8105de6:	68bb      	ldr	r3, [r7, #8]
 8105de8:	fab3 f383 	clz	r3, r3
 8105dec:	b2db      	uxtb	r3, r3
 8105dee:	fa02 f303 	lsl.w	r3, r2, r3
 8105df2:	f403 427f 	and.w	r2, r3, #65280	; 0xff00
 8105df6:	4905      	ldr	r1, [pc, #20]	; (8105e0c <HAL_HSEM_Release+0x44>)
 8105df8:	683b      	ldr	r3, [r7, #0]
 8105dfa:	431a      	orrs	r2, r3
 8105dfc:	687b      	ldr	r3, [r7, #4]
 8105dfe:	f841 2023 	str.w	r2, [r1, r3, lsl #2]
#else
  HSEM->R[SemID] = (ProcessID | HSEM_CR_COREID_CURRENT);
#endif

}
 8105e02:	bf00      	nop
 8105e04:	3710      	adds	r7, #16
 8105e06:	46bd      	mov	sp, r7
 8105e08:	bd80      	pop	{r7, pc}
 8105e0a:	bf00      	nop
 8105e0c:	58026400 	.word	0x58026400

08105e10 <HAL_HSEM_ActivateNotification>:
  * @brief  Activate Semaphore release Notification for a given Semaphores Mask .
  * @param  SemMask: Mask of Released semaphores
  * @retval Semaphore Key
  */
void HAL_HSEM_ActivateNotification(uint32_t SemMask)
{
 8105e10:	b580      	push	{r7, lr}
 8105e12:	b082      	sub	sp, #8
 8105e14:	af00      	add	r7, sp, #0
 8105e16:	6078      	str	r0, [r7, #4]
#if  USE_MULTI_CORE_SHARED_CODE != 0U
  /*enable the semaphore mask interrupts */
  if (HAL_GetCurrentCPUID() == HSEM_CPU1_COREID)
 8105e18:	f7ff fd98 	bl	810594c <HAL_GetCurrentCPUID>
 8105e1c:	4603      	mov	r3, r0
 8105e1e:	2b03      	cmp	r3, #3
 8105e20:	d108      	bne.n	8105e34 <HAL_HSEM_ActivateNotification+0x24>
  {
    /*Use interrupt line 0 for CPU1 Master */
    HSEM->C1IER |= SemMask;
 8105e22:	4b0a      	ldr	r3, [pc, #40]	; (8105e4c <HAL_HSEM_ActivateNotification+0x3c>)
 8105e24:	f8d3 2100 	ldr.w	r2, [r3, #256]	; 0x100
 8105e28:	4908      	ldr	r1, [pc, #32]	; (8105e4c <HAL_HSEM_ActivateNotification+0x3c>)
 8105e2a:	687b      	ldr	r3, [r7, #4]
 8105e2c:	4313      	orrs	r3, r2
 8105e2e:	f8c1 3100 	str.w	r3, [r1, #256]	; 0x100
    HSEM->C2IER |= SemMask;
  }
#else
  HSEM_COMMON->IER |= SemMask;
#endif
}
 8105e32:	e007      	b.n	8105e44 <HAL_HSEM_ActivateNotification+0x34>
    HSEM->C2IER |= SemMask;
 8105e34:	4b05      	ldr	r3, [pc, #20]	; (8105e4c <HAL_HSEM_ActivateNotification+0x3c>)
 8105e36:	f8d3 2110 	ldr.w	r2, [r3, #272]	; 0x110
 8105e3a:	4904      	ldr	r1, [pc, #16]	; (8105e4c <HAL_HSEM_ActivateNotification+0x3c>)
 8105e3c:	687b      	ldr	r3, [r7, #4]
 8105e3e:	4313      	orrs	r3, r2
 8105e40:	f8c1 3110 	str.w	r3, [r1, #272]	; 0x110
}
 8105e44:	bf00      	nop
 8105e46:	3708      	adds	r7, #8
 8105e48:	46bd      	mov	sp, r7
 8105e4a:	bd80      	pop	{r7, pc}
 8105e4c:	58026400 	.word	0x58026400

08105e50 <HAL_PWREx_EnterSTOPMode>:
  *            @arg PWR_D2_DOMAIN : Enter D2 Domain to DSTOP mode.
  *            @arg PWR_D3_DOMAIN : Enter D3/SRD Domain to DSTOP mode.
  * @retval None.
  */
void HAL_PWREx_EnterSTOPMode (uint32_t Regulator, uint8_t STOPEntry, uint32_t Domain)
{
 8105e50:	b580      	push	{r7, lr}
 8105e52:	b084      	sub	sp, #16
 8105e54:	af00      	add	r7, sp, #0
 8105e56:	60f8      	str	r0, [r7, #12]
 8105e58:	460b      	mov	r3, r1
 8105e5a:	607a      	str	r2, [r7, #4]
 8105e5c:	72fb      	strb	r3, [r7, #11]
  assert_param (IS_PWR_REGULATOR (Regulator));
  assert_param (IS_PWR_STOP_ENTRY (STOPEntry));
  assert_param (IS_PWR_DOMAIN (Domain));

  /* Select the regulator state in Stop mode */
  MODIFY_REG (PWR->CR1, PWR_CR1_LPDS, Regulator);
 8105e5e:	4b37      	ldr	r3, [pc, #220]	; (8105f3c <HAL_PWREx_EnterSTOPMode+0xec>)
 8105e60:	681b      	ldr	r3, [r3, #0]
 8105e62:	f023 0201 	bic.w	r2, r3, #1
 8105e66:	4935      	ldr	r1, [pc, #212]	; (8105f3c <HAL_PWREx_EnterSTOPMode+0xec>)
 8105e68:	68fb      	ldr	r3, [r7, #12]
 8105e6a:	4313      	orrs	r3, r2
 8105e6c:	600b      	str	r3, [r1, #0]

  /* Select the domain Power Down DeepSleep */
  if (Domain == PWR_D1_DOMAIN)
 8105e6e:	687b      	ldr	r3, [r7, #4]
 8105e70:	2b00      	cmp	r3, #0
 8105e72:	d123      	bne.n	8105ebc <HAL_PWREx_EnterSTOPMode+0x6c>
  {
#if defined (DUAL_CORE)
    /* Check current core */
    if (HAL_GetCurrentCPUID () != CM7_CPUID)
 8105e74:	f7ff fd6a 	bl	810594c <HAL_GetCurrentCPUID>
 8105e78:	4603      	mov	r3, r0
 8105e7a:	2b03      	cmp	r3, #3
 8105e7c:	d158      	bne.n	8105f30 <HAL_PWREx_EnterSTOPMode+0xe0>
      return;
    }
#endif /* defined (DUAL_CORE) */

    /* Keep DSTOP mode when D1/CD domain enters Deepsleep */
    CLEAR_BIT (PWR->CPUCR, PWR_CPUCR_PDDS_D1);
 8105e7e:	4b2f      	ldr	r3, [pc, #188]	; (8105f3c <HAL_PWREx_EnterSTOPMode+0xec>)
 8105e80:	691b      	ldr	r3, [r3, #16]
 8105e82:	4a2e      	ldr	r2, [pc, #184]	; (8105f3c <HAL_PWREx_EnterSTOPMode+0xec>)
 8105e84:	f023 0301 	bic.w	r3, r3, #1
 8105e88:	6113      	str	r3, [r2, #16]

    /* Set SLEEPDEEP bit of Cortex System Control Register */
    SET_BIT (SCB->SCR, SCB_SCR_SLEEPDEEP_Msk);
 8105e8a:	4b2d      	ldr	r3, [pc, #180]	; (8105f40 <HAL_PWREx_EnterSTOPMode+0xf0>)
 8105e8c:	691b      	ldr	r3, [r3, #16]
 8105e8e:	4a2c      	ldr	r2, [pc, #176]	; (8105f40 <HAL_PWREx_EnterSTOPMode+0xf0>)
 8105e90:	f043 0304 	orr.w	r3, r3, #4
 8105e94:	6113      	str	r3, [r2, #16]
  __ASM volatile ("dsb 0xF":::"memory");
 8105e96:	f3bf 8f4f 	dsb	sy
}
 8105e9a:	bf00      	nop
  __ASM volatile ("isb 0xF":::"memory");
 8105e9c:	f3bf 8f6f 	isb	sy
}
 8105ea0:	bf00      	nop
    /* Ensure that all instructions are done before entering STOP mode */
    __DSB ();
    __ISB ();

    /* Select Stop mode entry */
    if (STOPEntry == PWR_STOPENTRY_WFI)
 8105ea2:	7afb      	ldrb	r3, [r7, #11]
 8105ea4:	2b01      	cmp	r3, #1
 8105ea6:	d101      	bne.n	8105eac <HAL_PWREx_EnterSTOPMode+0x5c>
    {
      /* Request Wait For Interrupt */
      __WFI ();
 8105ea8:	bf30      	wfi
 8105eaa:	e000      	b.n	8105eae <HAL_PWREx_EnterSTOPMode+0x5e>
    }
    else
    {
      /* Request Wait For Event */
      __WFE ();
 8105eac:	bf20      	wfe
    }

    /* Clear SLEEPDEEP bit of Cortex-Mx in the System Control Register */
    CLEAR_BIT (SCB->SCR, SCB_SCR_SLEEPDEEP_Msk);
 8105eae:	4b24      	ldr	r3, [pc, #144]	; (8105f40 <HAL_PWREx_EnterSTOPMode+0xf0>)
 8105eb0:	691b      	ldr	r3, [r3, #16]
 8105eb2:	4a23      	ldr	r2, [pc, #140]	; (8105f40 <HAL_PWREx_EnterSTOPMode+0xf0>)
 8105eb4:	f023 0304 	bic.w	r3, r3, #4
 8105eb8:	6113      	str	r3, [r2, #16]
 8105eba:	e03c      	b.n	8105f36 <HAL_PWREx_EnterSTOPMode+0xe6>
  }
#if defined (PWR_CPUCR_PDDS_D2)
  else if (Domain == PWR_D2_DOMAIN)
 8105ebc:	687b      	ldr	r3, [r7, #4]
 8105ebe:	2b01      	cmp	r3, #1
 8105ec0:	d123      	bne.n	8105f0a <HAL_PWREx_EnterSTOPMode+0xba>
  {
#if defined (DUAL_CORE)
    /* Check current core */
    if (HAL_GetCurrentCPUID () != CM4_CPUID)
 8105ec2:	f7ff fd43 	bl	810594c <HAL_GetCurrentCPUID>
 8105ec6:	4603      	mov	r3, r0
 8105ec8:	2b01      	cmp	r3, #1
 8105eca:	d133      	bne.n	8105f34 <HAL_PWREx_EnterSTOPMode+0xe4>
      */
      return;
    }

    /* Keep DSTOP mode when D2 domain enters Deepsleep */
    CLEAR_BIT (PWR->CPU2CR, PWR_CPU2CR_PDDS_D2);
 8105ecc:	4b1b      	ldr	r3, [pc, #108]	; (8105f3c <HAL_PWREx_EnterSTOPMode+0xec>)
 8105ece:	695b      	ldr	r3, [r3, #20]
 8105ed0:	4a1a      	ldr	r2, [pc, #104]	; (8105f3c <HAL_PWREx_EnterSTOPMode+0xec>)
 8105ed2:	f023 0302 	bic.w	r3, r3, #2
 8105ed6:	6153      	str	r3, [r2, #20]

    /* Set SLEEPDEEP bit of Cortex System Control Register */
    SET_BIT (SCB->SCR, SCB_SCR_SLEEPDEEP_Msk);
 8105ed8:	4b19      	ldr	r3, [pc, #100]	; (8105f40 <HAL_PWREx_EnterSTOPMode+0xf0>)
 8105eda:	691b      	ldr	r3, [r3, #16]
 8105edc:	4a18      	ldr	r2, [pc, #96]	; (8105f40 <HAL_PWREx_EnterSTOPMode+0xf0>)
 8105ede:	f043 0304 	orr.w	r3, r3, #4
 8105ee2:	6113      	str	r3, [r2, #16]
  __ASM volatile ("dsb 0xF":::"memory");
 8105ee4:	f3bf 8f4f 	dsb	sy
}
 8105ee8:	bf00      	nop
  __ASM volatile ("isb 0xF":::"memory");
 8105eea:	f3bf 8f6f 	isb	sy
}
 8105eee:	bf00      	nop
    /* Ensure that all instructions are done before entering STOP mode */
    __DSB ();
    __ISB ();

    /* Select Stop mode entry */
    if (STOPEntry == PWR_STOPENTRY_WFI)
 8105ef0:	7afb      	ldrb	r3, [r7, #11]
 8105ef2:	2b01      	cmp	r3, #1
 8105ef4:	d101      	bne.n	8105efa <HAL_PWREx_EnterSTOPMode+0xaa>
    {
      /* Request Wait For Interrupt */
      __WFI ();
 8105ef6:	bf30      	wfi
 8105ef8:	e000      	b.n	8105efc <HAL_PWREx_EnterSTOPMode+0xac>
    }
    else
    {
      /* Request Wait For Event */
      __WFE ();
 8105efa:	bf20      	wfe
    }

    /* Clear SLEEPDEEP bit of Cortex-Mx in the System Control Register */
    CLEAR_BIT (SCB->SCR, SCB_SCR_SLEEPDEEP_Msk);
 8105efc:	4b10      	ldr	r3, [pc, #64]	; (8105f40 <HAL_PWREx_EnterSTOPMode+0xf0>)
 8105efe:	691b      	ldr	r3, [r3, #16]
 8105f00:	4a0f      	ldr	r2, [pc, #60]	; (8105f40 <HAL_PWREx_EnterSTOPMode+0xf0>)
 8105f02:	f023 0304 	bic.w	r3, r3, #4
 8105f06:	6113      	str	r3, [r2, #16]
 8105f08:	e015      	b.n	8105f36 <HAL_PWREx_EnterSTOPMode+0xe6>
#endif /* defined (PWR_CPUCR_PDDS_D2) */
  else
  {
#if defined (DUAL_CORE)
    /* Check current core */
    if (HAL_GetCurrentCPUID () == CM7_CPUID)
 8105f0a:	f7ff fd1f 	bl	810594c <HAL_GetCurrentCPUID>
 8105f0e:	4603      	mov	r3, r0
 8105f10:	2b03      	cmp	r3, #3
 8105f12:	d106      	bne.n	8105f22 <HAL_PWREx_EnterSTOPMode+0xd2>
    {
      /* Keep DSTOP mode when D3 domain enters Deepsleep */
      CLEAR_BIT (PWR->CPUCR, PWR_CPUCR_PDDS_D3);
 8105f14:	4b09      	ldr	r3, [pc, #36]	; (8105f3c <HAL_PWREx_EnterSTOPMode+0xec>)
 8105f16:	691b      	ldr	r3, [r3, #16]
 8105f18:	4a08      	ldr	r2, [pc, #32]	; (8105f3c <HAL_PWREx_EnterSTOPMode+0xec>)
 8105f1a:	f023 0304 	bic.w	r3, r3, #4
 8105f1e:	6113      	str	r3, [r2, #16]
 8105f20:	e009      	b.n	8105f36 <HAL_PWREx_EnterSTOPMode+0xe6>
    }
    else
    {
      /* Keep DSTOP mode when D3 domain enters Deepsleep */
      CLEAR_BIT (PWR->CPU2CR, PWR_CPU2CR_PDDS_D3);
 8105f22:	4b06      	ldr	r3, [pc, #24]	; (8105f3c <HAL_PWREx_EnterSTOPMode+0xec>)
 8105f24:	695b      	ldr	r3, [r3, #20]
 8105f26:	4a05      	ldr	r2, [pc, #20]	; (8105f3c <HAL_PWREx_EnterSTOPMode+0xec>)
 8105f28:	f023 0304 	bic.w	r3, r3, #4
 8105f2c:	6153      	str	r3, [r2, #20]
 8105f2e:	e002      	b.n	8105f36 <HAL_PWREx_EnterSTOPMode+0xe6>
      return;
 8105f30:	bf00      	nop
 8105f32:	e000      	b.n	8105f36 <HAL_PWREx_EnterSTOPMode+0xe6>
      return;
 8105f34:	bf00      	nop
#else
    /* Keep DSTOP mode when D3/SRD domain enters Deepsleep */
    CLEAR_BIT (PWR->CPUCR, PWR_CPUCR_PDDS_D3);
#endif  /* defined (DUAL_CORE) */
  }
}
 8105f36:	3710      	adds	r7, #16
 8105f38:	46bd      	mov	sp, r7
 8105f3a:	bd80      	pop	{r7, pc}
 8105f3c:	58024800 	.word	0x58024800
 8105f40:	e000ed00 	.word	0xe000ed00

08105f44 <HAL_PWREx_ClearPendingEvent>:
  *         enter low power mode using Wait For Event request.
  * @note   Cortex-M7 must be in CRUN mode when calling this API by Cortex-M4.
  * @retval None.
  */
void HAL_PWREx_ClearPendingEvent (void)
{
 8105f44:	b580      	push	{r7, lr}
 8105f46:	af00      	add	r7, sp, #0
#if defined (DUAL_CORE)
  /* Check the current Core */
  if (HAL_GetCurrentCPUID () == CM7_CPUID)
 8105f48:	f7ff fd00 	bl	810594c <HAL_GetCurrentCPUID>
 8105f4c:	4603      	mov	r3, r0
 8105f4e:	2b03      	cmp	r3, #3
 8105f50:	d101      	bne.n	8105f56 <HAL_PWREx_ClearPendingEvent+0x12>
  {
    __WFE ();
 8105f52:	bf20      	wfe
    __WFE ();
  }
#else
  __WFE ();
#endif /* defined (DUAL_CORE) */
}
 8105f54:	e001      	b.n	8105f5a <HAL_PWREx_ClearPendingEvent+0x16>
    __SEV ();
 8105f56:	bf40      	sev
    __WFE ();
 8105f58:	bf20      	wfe
}
 8105f5a:	bf00      	nop
 8105f5c:	bd80      	pop	{r7, pc}
	...

08105f60 <HAL_RCC_GetSysClockFreq>:
  *
  *
  * @retval SYSCLK frequency
  */
uint32_t HAL_RCC_GetSysClockFreq(void)
{
 8105f60:	b480      	push	{r7}
 8105f62:	b089      	sub	sp, #36	; 0x24
 8105f64:	af00      	add	r7, sp, #0
  float_t fracn1, pllvco;
  uint32_t sysclockfreq;

  /* Get SYSCLK source -------------------------------------------------------*/

  switch (RCC->CFGR & RCC_CFGR_SWS)
 8105f66:	4bb3      	ldr	r3, [pc, #716]	; (8106234 <HAL_RCC_GetSysClockFreq+0x2d4>)
 8105f68:	691b      	ldr	r3, [r3, #16]
 8105f6a:	f003 0338 	and.w	r3, r3, #56	; 0x38
 8105f6e:	2b18      	cmp	r3, #24
 8105f70:	f200 8155 	bhi.w	810621e <HAL_RCC_GetSysClockFreq+0x2be>
 8105f74:	a201      	add	r2, pc, #4	; (adr r2, 8105f7c <HAL_RCC_GetSysClockFreq+0x1c>)
 8105f76:	f852 f023 	ldr.w	pc, [r2, r3, lsl #2]
 8105f7a:	bf00      	nop
 8105f7c:	08105fe1 	.word	0x08105fe1
 8105f80:	0810621f 	.word	0x0810621f
 8105f84:	0810621f 	.word	0x0810621f
 8105f88:	0810621f 	.word	0x0810621f
 8105f8c:	0810621f 	.word	0x0810621f
 8105f90:	0810621f 	.word	0x0810621f
 8105f94:	0810621f 	.word	0x0810621f
 8105f98:	0810621f 	.word	0x0810621f
 8105f9c:	08106007 	.word	0x08106007
 8105fa0:	0810621f 	.word	0x0810621f
 8105fa4:	0810621f 	.word	0x0810621f
 8105fa8:	0810621f 	.word	0x0810621f
 8105fac:	0810621f 	.word	0x0810621f
 8105fb0:	0810621f 	.word	0x0810621f
 8105fb4:	0810621f 	.word	0x0810621f
 8105fb8:	0810621f 	.word	0x0810621f
 8105fbc:	0810600d 	.word	0x0810600d
 8105fc0:	0810621f 	.word	0x0810621f
 8105fc4:	0810621f 	.word	0x0810621f
 8105fc8:	0810621f 	.word	0x0810621f
 8105fcc:	0810621f 	.word	0x0810621f
 8105fd0:	0810621f 	.word	0x0810621f
 8105fd4:	0810621f 	.word	0x0810621f
 8105fd8:	0810621f 	.word	0x0810621f
 8105fdc:	08106013 	.word	0x08106013
  {
  case RCC_CFGR_SWS_HSI:  /* HSI used as system clock source */

   if (__HAL_RCC_GET_FLAG(RCC_FLAG_HSIDIV) != 0U)
 8105fe0:	4b94      	ldr	r3, [pc, #592]	; (8106234 <HAL_RCC_GetSysClockFreq+0x2d4>)
 8105fe2:	681b      	ldr	r3, [r3, #0]
 8105fe4:	f003 0320 	and.w	r3, r3, #32
 8105fe8:	2b00      	cmp	r3, #0
 8105fea:	d009      	beq.n	8106000 <HAL_RCC_GetSysClockFreq+0xa0>
      {
        sysclockfreq = (uint32_t) (HSI_VALUE >> (__HAL_RCC_GET_HSI_DIVIDER()>> 3));
 8105fec:	4b91      	ldr	r3, [pc, #580]	; (8106234 <HAL_RCC_GetSysClockFreq+0x2d4>)
 8105fee:	681b      	ldr	r3, [r3, #0]
 8105ff0:	08db      	lsrs	r3, r3, #3
 8105ff2:	f003 0303 	and.w	r3, r3, #3
 8105ff6:	4a90      	ldr	r2, [pc, #576]	; (8106238 <HAL_RCC_GetSysClockFreq+0x2d8>)
 8105ff8:	fa22 f303 	lsr.w	r3, r2, r3
 8105ffc:	61bb      	str	r3, [r7, #24]
      else
      {
        sysclockfreq = (uint32_t) HSI_VALUE;
      }

    break;
 8105ffe:	e111      	b.n	8106224 <HAL_RCC_GetSysClockFreq+0x2c4>
        sysclockfreq = (uint32_t) HSI_VALUE;
 8106000:	4b8d      	ldr	r3, [pc, #564]	; (8106238 <HAL_RCC_GetSysClockFreq+0x2d8>)
 8106002:	61bb      	str	r3, [r7, #24]
    break;
 8106004:	e10e      	b.n	8106224 <HAL_RCC_GetSysClockFreq+0x2c4>

  case RCC_CFGR_SWS_CSI:  /* CSI used as system clock  source */
    sysclockfreq = CSI_VALUE;
 8106006:	4b8d      	ldr	r3, [pc, #564]	; (810623c <HAL_RCC_GetSysClockFreq+0x2dc>)
 8106008:	61bb      	str	r3, [r7, #24]
    break;
 810600a:	e10b      	b.n	8106224 <HAL_RCC_GetSysClockFreq+0x2c4>

  case RCC_CFGR_SWS_HSE:  /* HSE used as system clock  source */
    sysclockfreq = HSE_VALUE;
 810600c:	4b8c      	ldr	r3, [pc, #560]	; (8106240 <HAL_RCC_GetSysClockFreq+0x2e0>)
 810600e:	61bb      	str	r3, [r7, #24]
    break;
 8106010:	e108      	b.n	8106224 <HAL_RCC_GetSysClockFreq+0x2c4>
  case RCC_CFGR_SWS_PLL1:  /* PLL1 used as system clock  source */

    /* PLL_VCO = (HSE_VALUE or HSI_VALUE or CSI_VALUE/ PLLM) * PLLN
    SYSCLK = PLL_VCO / PLLR
    */
    pllsource = (RCC->PLLCKSELR & RCC_PLLCKSELR_PLLSRC);
 8106012:	4b88      	ldr	r3, [pc, #544]	; (8106234 <HAL_RCC_GetSysClockFreq+0x2d4>)
 8106014:	6a9b      	ldr	r3, [r3, #40]	; 0x28
 8106016:	f003 0303 	and.w	r3, r3, #3
 810601a:	617b      	str	r3, [r7, #20]
    pllm = ((RCC->PLLCKSELR & RCC_PLLCKSELR_DIVM1)>> 4)  ;
 810601c:	4b85      	ldr	r3, [pc, #532]	; (8106234 <HAL_RCC_GetSysClockFreq+0x2d4>)
 810601e:	6a9b      	ldr	r3, [r3, #40]	; 0x28
 8106020:	091b      	lsrs	r3, r3, #4
 8106022:	f003 033f 	and.w	r3, r3, #63	; 0x3f
 8106026:	613b      	str	r3, [r7, #16]
    pllfracen = ((RCC-> PLLCFGR & RCC_PLLCFGR_PLL1FRACEN)>>RCC_PLLCFGR_PLL1FRACEN_Pos);
 8106028:	4b82      	ldr	r3, [pc, #520]	; (8106234 <HAL_RCC_GetSysClockFreq+0x2d4>)
 810602a:	6adb      	ldr	r3, [r3, #44]	; 0x2c
 810602c:	f003 0301 	and.w	r3, r3, #1
 8106030:	60fb      	str	r3, [r7, #12]
    fracn1 = (float_t)(uint32_t)(pllfracen* ((RCC->PLL1FRACR & RCC_PLL1FRACR_FRACN1)>> 3));
 8106032:	4b80      	ldr	r3, [pc, #512]	; (8106234 <HAL_RCC_GetSysClockFreq+0x2d4>)
 8106034:	6b5b      	ldr	r3, [r3, #52]	; 0x34
 8106036:	08db      	lsrs	r3, r3, #3
 8106038:	f3c3 030c 	ubfx	r3, r3, #0, #13
 810603c:	68fa      	ldr	r2, [r7, #12]
 810603e:	fb02 f303 	mul.w	r3, r2, r3
 8106042:	ee07 3a90 	vmov	s15, r3
 8106046:	eef8 7a67 	vcvt.f32.u32	s15, s15
 810604a:	edc7 7a02 	vstr	s15, [r7, #8]

    if (pllm != 0U)
 810604e:	693b      	ldr	r3, [r7, #16]
 8106050:	2b00      	cmp	r3, #0
 8106052:	f000 80e1 	beq.w	8106218 <HAL_RCC_GetSysClockFreq+0x2b8>
 8106056:	697b      	ldr	r3, [r7, #20]
 8106058:	2b02      	cmp	r3, #2
 810605a:	f000 8083 	beq.w	8106164 <HAL_RCC_GetSysClockFreq+0x204>
 810605e:	697b      	ldr	r3, [r7, #20]
 8106060:	2b02      	cmp	r3, #2
 8106062:	f200 80a1 	bhi.w	81061a8 <HAL_RCC_GetSysClockFreq+0x248>
 8106066:	697b      	ldr	r3, [r7, #20]
 8106068:	2b00      	cmp	r3, #0
 810606a:	d003      	beq.n	8106074 <HAL_RCC_GetSysClockFreq+0x114>
 810606c:	697b      	ldr	r3, [r7, #20]
 810606e:	2b01      	cmp	r3, #1
 8106070:	d056      	beq.n	8106120 <HAL_RCC_GetSysClockFreq+0x1c0>
 8106072:	e099      	b.n	81061a8 <HAL_RCC_GetSysClockFreq+0x248>
    {
      switch (pllsource)
      {
      case RCC_PLLSOURCE_HSI:  /* HSI used as PLL clock source */

       if (__HAL_RCC_GET_FLAG(RCC_FLAG_HSIDIV) != 0U)
 8106074:	4b6f      	ldr	r3, [pc, #444]	; (8106234 <HAL_RCC_GetSysClockFreq+0x2d4>)
 8106076:	681b      	ldr	r3, [r3, #0]
 8106078:	f003 0320 	and.w	r3, r3, #32
 810607c:	2b00      	cmp	r3, #0
 810607e:	d02d      	beq.n	81060dc <HAL_RCC_GetSysClockFreq+0x17c>
        {
          hsivalue= (HSI_VALUE >> (__HAL_RCC_GET_HSI_DIVIDER()>> 3));
 8106080:	4b6c      	ldr	r3, [pc, #432]	; (8106234 <HAL_RCC_GetSysClockFreq+0x2d4>)
 8106082:	681b      	ldr	r3, [r3, #0]
 8106084:	08db      	lsrs	r3, r3, #3
 8106086:	f003 0303 	and.w	r3, r3, #3
 810608a:	4a6b      	ldr	r2, [pc, #428]	; (8106238 <HAL_RCC_GetSysClockFreq+0x2d8>)
 810608c:	fa22 f303 	lsr.w	r3, r2, r3
 8106090:	607b      	str	r3, [r7, #4]
          pllvco = ( (float_t)hsivalue / (float_t)pllm) * ((float_t)(uint32_t)(RCC->PLL1DIVR & RCC_PLL1DIVR_N1) + (fracn1/(float_t)0x2000) +(float_t)1 );
 8106092:	687b      	ldr	r3, [r7, #4]
 8106094:	ee07 3a90 	vmov	s15, r3
 8106098:	eef8 6a67 	vcvt.f32.u32	s13, s15
 810609c:	693b      	ldr	r3, [r7, #16]
 810609e:	ee07 3a90 	vmov	s15, r3
 81060a2:	eef8 7a67 	vcvt.f32.u32	s15, s15
 81060a6:	ee86 7aa7 	vdiv.f32	s14, s13, s15
 81060aa:	4b62      	ldr	r3, [pc, #392]	; (8106234 <HAL_RCC_GetSysClockFreq+0x2d4>)
 81060ac:	6b1b      	ldr	r3, [r3, #48]	; 0x30
 81060ae:	f3c3 0308 	ubfx	r3, r3, #0, #9
 81060b2:	ee07 3a90 	vmov	s15, r3
 81060b6:	eef8 6a67 	vcvt.f32.u32	s13, s15
 81060ba:	ed97 6a02 	vldr	s12, [r7, #8]
 81060be:	eddf 5a61 	vldr	s11, [pc, #388]	; 8106244 <HAL_RCC_GetSysClockFreq+0x2e4>
 81060c2:	eec6 7a25 	vdiv.f32	s15, s12, s11
 81060c6:	ee76 7aa7 	vadd.f32	s15, s13, s15
 81060ca:	eef7 6a00 	vmov.f32	s13, #112	; 0x3f800000  1.0
 81060ce:	ee77 7aa6 	vadd.f32	s15, s15, s13
 81060d2:	ee67 7a27 	vmul.f32	s15, s14, s15
 81060d6:	edc7 7a07 	vstr	s15, [r7, #28]
        }
        else
        {
          pllvco = ((float_t)HSI_VALUE / (float_t)pllm) * ((float_t)(uint32_t)(RCC->PLL1DIVR & RCC_PLL1DIVR_N1) + (fracn1/(float_t)0x2000) +(float_t)1 );
        }
        break;
 81060da:	e087      	b.n	81061ec <HAL_RCC_GetSysClockFreq+0x28c>
          pllvco = ((float_t)HSI_VALUE / (float_t)pllm) * ((float_t)(uint32_t)(RCC->PLL1DIVR & RCC_PLL1DIVR_N1) + (fracn1/(float_t)0x2000) +(float_t)1 );
 81060dc:	693b      	ldr	r3, [r7, #16]
 81060de:	ee07 3a90 	vmov	s15, r3
 81060e2:	eef8 7a67 	vcvt.f32.u32	s15, s15
 81060e6:	eddf 6a58 	vldr	s13, [pc, #352]	; 8106248 <HAL_RCC_GetSysClockFreq+0x2e8>
 81060ea:	ee86 7aa7 	vdiv.f32	s14, s13, s15
 81060ee:	4b51      	ldr	r3, [pc, #324]	; (8106234 <HAL_RCC_GetSysClockFreq+0x2d4>)
 81060f0:	6b1b      	ldr	r3, [r3, #48]	; 0x30
 81060f2:	f3c3 0308 	ubfx	r3, r3, #0, #9
 81060f6:	ee07 3a90 	vmov	s15, r3
 81060fa:	eef8 6a67 	vcvt.f32.u32	s13, s15
 81060fe:	ed97 6a02 	vldr	s12, [r7, #8]
 8106102:	eddf 5a50 	vldr	s11, [pc, #320]	; 8106244 <HAL_RCC_GetSysClockFreq+0x2e4>
 8106106:	eec6 7a25 	vdiv.f32	s15, s12, s11
 810610a:	ee76 7aa7 	vadd.f32	s15, s13, s15
 810610e:	eef7 6a00 	vmov.f32	s13, #112	; 0x3f800000  1.0
 8106112:	ee77 7aa6 	vadd.f32	s15, s15, s13
 8106116:	ee67 7a27 	vmul.f32	s15, s14, s15
 810611a:	edc7 7a07 	vstr	s15, [r7, #28]
        break;
 810611e:	e065      	b.n	81061ec <HAL_RCC_GetSysClockFreq+0x28c>

      case RCC_PLLSOURCE_CSI:  /* CSI used as PLL clock source */
        pllvco = ((float_t)CSI_VALUE / (float_t)pllm) * ((float_t)(uint32_t)(RCC->PLL1DIVR & RCC_PLL1DIVR_N1) + (fracn1/(float_t)0x2000) +(float_t)1 );
 8106120:	693b      	ldr	r3, [r7, #16]
 8106122:	ee07 3a90 	vmov	s15, r3
 8106126:	eef8 7a67 	vcvt.f32.u32	s15, s15
 810612a:	eddf 6a48 	vldr	s13, [pc, #288]	; 810624c <HAL_RCC_GetSysClockFreq+0x2ec>
 810612e:	ee86 7aa7 	vdiv.f32	s14, s13, s15
 8106132:	4b40      	ldr	r3, [pc, #256]	; (8106234 <HAL_RCC_GetSysClockFreq+0x2d4>)
 8106134:	6b1b      	ldr	r3, [r3, #48]	; 0x30
 8106136:	f3c3 0308 	ubfx	r3, r3, #0, #9
 810613a:	ee07 3a90 	vmov	s15, r3
 810613e:	eef8 6a67 	vcvt.f32.u32	s13, s15
 8106142:	ed97 6a02 	vldr	s12, [r7, #8]
 8106146:	eddf 5a3f 	vldr	s11, [pc, #252]	; 8106244 <HAL_RCC_GetSysClockFreq+0x2e4>
 810614a:	eec6 7a25 	vdiv.f32	s15, s12, s11
 810614e:	ee76 7aa7 	vadd.f32	s15, s13, s15
 8106152:	eef7 6a00 	vmov.f32	s13, #112	; 0x3f800000  1.0
 8106156:	ee77 7aa6 	vadd.f32	s15, s15, s13
 810615a:	ee67 7a27 	vmul.f32	s15, s14, s15
 810615e:	edc7 7a07 	vstr	s15, [r7, #28]
        break;
 8106162:	e043      	b.n	81061ec <HAL_RCC_GetSysClockFreq+0x28c>

      case RCC_PLLSOURCE_HSE:  /* HSE used as PLL clock source */
        pllvco = ((float_t)HSE_VALUE / (float_t)pllm) * ((float_t)(uint32_t)(RCC->PLL1DIVR & RCC_PLL1DIVR_N1) + (fracn1/(float_t)0x2000) +(float_t)1 );
 8106164:	693b      	ldr	r3, [r7, #16]
 8106166:	ee07 3a90 	vmov	s15, r3
 810616a:	eef8 7a67 	vcvt.f32.u32	s15, s15
 810616e:	eddf 6a38 	vldr	s13, [pc, #224]	; 8106250 <HAL_RCC_GetSysClockFreq+0x2f0>
 8106172:	ee86 7aa7 	vdiv.f32	s14, s13, s15
 8106176:	4b2f      	ldr	r3, [pc, #188]	; (8106234 <HAL_RCC_GetSysClockFreq+0x2d4>)
 8106178:	6b1b      	ldr	r3, [r3, #48]	; 0x30
 810617a:	f3c3 0308 	ubfx	r3, r3, #0, #9
 810617e:	ee07 3a90 	vmov	s15, r3
 8106182:	eef8 6a67 	vcvt.f32.u32	s13, s15
 8106186:	ed97 6a02 	vldr	s12, [r7, #8]
 810618a:	eddf 5a2e 	vldr	s11, [pc, #184]	; 8106244 <HAL_RCC_GetSysClockFreq+0x2e4>
 810618e:	eec6 7a25 	vdiv.f32	s15, s12, s11
 8106192:	ee76 7aa7 	vadd.f32	s15, s13, s15
 8106196:	eef7 6a00 	vmov.f32	s13, #112	; 0x3f800000  1.0
 810619a:	ee77 7aa6 	vadd.f32	s15, s15, s13
 810619e:	ee67 7a27 	vmul.f32	s15, s14, s15
 81061a2:	edc7 7a07 	vstr	s15, [r7, #28]
        break;
 81061a6:	e021      	b.n	81061ec <HAL_RCC_GetSysClockFreq+0x28c>

      default:
        pllvco = ((float_t)CSI_VALUE / (float_t)pllm) * ((float_t)(uint32_t)(RCC->PLL1DIVR & RCC_PLL1DIVR_N1) + (fracn1/(float_t)0x2000) +(float_t)1 );
 81061a8:	693b      	ldr	r3, [r7, #16]
 81061aa:	ee07 3a90 	vmov	s15, r3
 81061ae:	eef8 7a67 	vcvt.f32.u32	s15, s15
 81061b2:	eddf 6a26 	vldr	s13, [pc, #152]	; 810624c <HAL_RCC_GetSysClockFreq+0x2ec>
 81061b6:	ee86 7aa7 	vdiv.f32	s14, s13, s15
 81061ba:	4b1e      	ldr	r3, [pc, #120]	; (8106234 <HAL_RCC_GetSysClockFreq+0x2d4>)
 81061bc:	6b1b      	ldr	r3, [r3, #48]	; 0x30
 81061be:	f3c3 0308 	ubfx	r3, r3, #0, #9
 81061c2:	ee07 3a90 	vmov	s15, r3
 81061c6:	eef8 6a67 	vcvt.f32.u32	s13, s15
 81061ca:	ed97 6a02 	vldr	s12, [r7, #8]
 81061ce:	eddf 5a1d 	vldr	s11, [pc, #116]	; 8106244 <HAL_RCC_GetSysClockFreq+0x2e4>
 81061d2:	eec6 7a25 	vdiv.f32	s15, s12, s11
 81061d6:	ee76 7aa7 	vadd.f32	s15, s13, s15
 81061da:	eef7 6a00 	vmov.f32	s13, #112	; 0x3f800000  1.0
 81061de:	ee77 7aa6 	vadd.f32	s15, s15, s13
 81061e2:	ee67 7a27 	vmul.f32	s15, s14, s15
 81061e6:	edc7 7a07 	vstr	s15, [r7, #28]
        break;
 81061ea:	bf00      	nop
      }
      pllp = (((RCC->PLL1DIVR & RCC_PLL1DIVR_P1) >>9) + 1U ) ;
 81061ec:	4b11      	ldr	r3, [pc, #68]	; (8106234 <HAL_RCC_GetSysClockFreq+0x2d4>)
 81061ee:	6b1b      	ldr	r3, [r3, #48]	; 0x30
 81061f0:	0a5b      	lsrs	r3, r3, #9
 81061f2:	f003 037f 	and.w	r3, r3, #127	; 0x7f
 81061f6:	3301      	adds	r3, #1
 81061f8:	603b      	str	r3, [r7, #0]
      sysclockfreq =  (uint32_t)(float_t)(pllvco/(float_t)pllp);
 81061fa:	683b      	ldr	r3, [r7, #0]
 81061fc:	ee07 3a90 	vmov	s15, r3
 8106200:	eeb8 7a67 	vcvt.f32.u32	s14, s15
 8106204:	edd7 6a07 	vldr	s13, [r7, #28]
 8106208:	eec6 7a87 	vdiv.f32	s15, s13, s14
 810620c:	eefc 7ae7 	vcvt.u32.f32	s15, s15
 8106210:	ee17 3a90 	vmov	r3, s15
 8106214:	61bb      	str	r3, [r7, #24]
    }
    else
    {
      sysclockfreq = 0U;
    }
    break;
 8106216:	e005      	b.n	8106224 <HAL_RCC_GetSysClockFreq+0x2c4>
      sysclockfreq = 0U;
 8106218:	2300      	movs	r3, #0
 810621a:	61bb      	str	r3, [r7, #24]
    break;
 810621c:	e002      	b.n	8106224 <HAL_RCC_GetSysClockFreq+0x2c4>

  default:
    sysclockfreq = CSI_VALUE;
 810621e:	4b07      	ldr	r3, [pc, #28]	; (810623c <HAL_RCC_GetSysClockFreq+0x2dc>)
 8106220:	61bb      	str	r3, [r7, #24]
    break;
 8106222:	bf00      	nop
  }

  return sysclockfreq;
 8106224:	69bb      	ldr	r3, [r7, #24]
}
 8106226:	4618      	mov	r0, r3
 8106228:	3724      	adds	r7, #36	; 0x24
 810622a:	46bd      	mov	sp, r7
 810622c:	f85d 7b04 	ldr.w	r7, [sp], #4
 8106230:	4770      	bx	lr
 8106232:	bf00      	nop
 8106234:	58024400 	.word	0x58024400
 8106238:	03d09000 	.word	0x03d09000
 810623c:	003d0900 	.word	0x003d0900
 8106240:	007a1200 	.word	0x007a1200
 8106244:	46000000 	.word	0x46000000
 8106248:	4c742400 	.word	0x4c742400
 810624c:	4a742400 	.word	0x4a742400
 8106250:	4af42400 	.word	0x4af42400

08106254 <HAL_RCC_GetHCLKFreq>:
  * @note   The SystemD2Clock CMSIS variable is used to store System domain2 Clock Frequency
  *         and updated within this function
  * @retval HCLK frequency
  */
uint32_t HAL_RCC_GetHCLKFreq(void)
{
 8106254:	b580      	push	{r7, lr}
 8106256:	b082      	sub	sp, #8
 8106258:	af00      	add	r7, sp, #0
uint32_t common_system_clock;

#if defined(RCC_D1CFGR_D1CPRE)
  common_system_clock = HAL_RCC_GetSysClockFreq() >> (D1CorePrescTable[(RCC->D1CFGR & RCC_D1CFGR_D1CPRE)>> RCC_D1CFGR_D1CPRE_Pos] & 0x1FU);
 810625a:	f7ff fe81 	bl	8105f60 <HAL_RCC_GetSysClockFreq>
 810625e:	4602      	mov	r2, r0
 8106260:	4b11      	ldr	r3, [pc, #68]	; (81062a8 <HAL_RCC_GetHCLKFreq+0x54>)
 8106262:	699b      	ldr	r3, [r3, #24]
 8106264:	0a1b      	lsrs	r3, r3, #8
 8106266:	f003 030f 	and.w	r3, r3, #15
 810626a:	4910      	ldr	r1, [pc, #64]	; (81062ac <HAL_RCC_GetHCLKFreq+0x58>)
 810626c:	5ccb      	ldrb	r3, [r1, r3]
 810626e:	f003 031f 	and.w	r3, r3, #31
 8106272:	fa22 f303 	lsr.w	r3, r2, r3
 8106276:	607b      	str	r3, [r7, #4]
#else
  common_system_clock = HAL_RCC_GetSysClockFreq() >> (D1CorePrescTable[(RCC->CDCFGR1 & RCC_CDCFGR1_CDCPRE)>> RCC_CDCFGR1_CDCPRE_Pos] & 0x1FU);
#endif

#if defined(RCC_D1CFGR_HPRE)
  SystemD2Clock = (common_system_clock >> ((D1CorePrescTable[(RCC->D1CFGR & RCC_D1CFGR_HPRE)>> RCC_D1CFGR_HPRE_Pos]) & 0x1FU));
 8106278:	4b0b      	ldr	r3, [pc, #44]	; (81062a8 <HAL_RCC_GetHCLKFreq+0x54>)
 810627a:	699b      	ldr	r3, [r3, #24]
 810627c:	f003 030f 	and.w	r3, r3, #15
 8106280:	4a0a      	ldr	r2, [pc, #40]	; (81062ac <HAL_RCC_GetHCLKFreq+0x58>)
 8106282:	5cd3      	ldrb	r3, [r2, r3]
 8106284:	f003 031f 	and.w	r3, r3, #31
 8106288:	687a      	ldr	r2, [r7, #4]
 810628a:	fa22 f303 	lsr.w	r3, r2, r3
 810628e:	4a08      	ldr	r2, [pc, #32]	; (81062b0 <HAL_RCC_GetHCLKFreq+0x5c>)
 8106290:	6013      	str	r3, [r2, #0]
#else
  SystemD2Clock = (common_system_clock >> ((D1CorePrescTable[(RCC->CDCFGR1 & RCC_CDCFGR1_HPRE)>> RCC_CDCFGR1_HPRE_Pos]) & 0x1FU));
#endif

#if defined(DUAL_CORE) && defined(CORE_CM4)
  SystemCoreClock = SystemD2Clock;
 8106292:	4b07      	ldr	r3, [pc, #28]	; (81062b0 <HAL_RCC_GetHCLKFreq+0x5c>)
 8106294:	681b      	ldr	r3, [r3, #0]
 8106296:	4a07      	ldr	r2, [pc, #28]	; (81062b4 <HAL_RCC_GetHCLKFreq+0x60>)
 8106298:	6013      	str	r3, [r2, #0]
#else
  SystemCoreClock = common_system_clock;
#endif /* DUAL_CORE && CORE_CM4 */

  return SystemD2Clock;
 810629a:	4b05      	ldr	r3, [pc, #20]	; (81062b0 <HAL_RCC_GetHCLKFreq+0x5c>)
 810629c:	681b      	ldr	r3, [r3, #0]
}
 810629e:	4618      	mov	r0, r3
 81062a0:	3708      	adds	r7, #8
 81062a2:	46bd      	mov	sp, r7
 81062a4:	bd80      	pop	{r7, pc}
 81062a6:	bf00      	nop
 81062a8:	58024400 	.word	0x58024400
 81062ac:	08106aa0 	.word	0x08106aa0
 81062b0:	1000180c 	.word	0x1000180c
 81062b4:	10001808 	.word	0x10001808

081062b8 <HAL_RCC_GetPCLK1Freq>:
  * @note   Each time PCLK1 changes, this function must be called to update the
  *         right PCLK1 value. Otherwise, any configuration based on this function will be incorrect.
  * @retval PCLK1 frequency
  */
uint32_t HAL_RCC_GetPCLK1Freq(void)
{
 81062b8:	b580      	push	{r7, lr}
 81062ba:	af00      	add	r7, sp, #0
#if defined (RCC_D2CFGR_D2PPRE1)
  /* Get HCLK source and Compute PCLK1 frequency ---------------------------*/
  return (HAL_RCC_GetHCLKFreq() >> ((D1CorePrescTable[(RCC->D2CFGR & RCC_D2CFGR_D2PPRE1)>> RCC_D2CFGR_D2PPRE1_Pos]) & 0x1FU));
 81062bc:	f7ff ffca 	bl	8106254 <HAL_RCC_GetHCLKFreq>
 81062c0:	4602      	mov	r2, r0
 81062c2:	4b06      	ldr	r3, [pc, #24]	; (81062dc <HAL_RCC_GetPCLK1Freq+0x24>)
 81062c4:	69db      	ldr	r3, [r3, #28]
 81062c6:	091b      	lsrs	r3, r3, #4
 81062c8:	f003 0307 	and.w	r3, r3, #7
 81062cc:	4904      	ldr	r1, [pc, #16]	; (81062e0 <HAL_RCC_GetPCLK1Freq+0x28>)
 81062ce:	5ccb      	ldrb	r3, [r1, r3]
 81062d0:	f003 031f 	and.w	r3, r3, #31
 81062d4:	fa22 f303 	lsr.w	r3, r2, r3
#else
 /* Get HCLK source and Compute PCLK1 frequency ---------------------------*/
  return (HAL_RCC_GetHCLKFreq() >> ((D1CorePrescTable[(RCC->CDCFGR2 & RCC_CDCFGR2_CDPPRE1)>> RCC_CDCFGR2_CDPPRE1_Pos]) & 0x1FU));
#endif
}
 81062d8:	4618      	mov	r0, r3
 81062da:	bd80      	pop	{r7, pc}
 81062dc:	58024400 	.word	0x58024400
 81062e0:	08106aa0 	.word	0x08106aa0

081062e4 <HAL_RCC_GetClockConfig>:
  * will be configured.
  * @param  pFLatency: Pointer on the Flash Latency.
  * @retval None
  */
void HAL_RCC_GetClockConfig(RCC_ClkInitTypeDef  *RCC_ClkInitStruct, uint32_t *pFLatency)
{
 81062e4:	b480      	push	{r7}
 81062e6:	b083      	sub	sp, #12
 81062e8:	af00      	add	r7, sp, #0
 81062ea:	6078      	str	r0, [r7, #4]
 81062ec:	6039      	str	r1, [r7, #0]
  /* Set all possible values for the Clock type parameter --------------------*/
  RCC_ClkInitStruct->ClockType = RCC_CLOCKTYPE_SYSCLK | RCC_CLOCKTYPE_HCLK | RCC_CLOCKTYPE_D1PCLK1 | RCC_CLOCKTYPE_PCLK1 |
 81062ee:	687b      	ldr	r3, [r7, #4]
 81062f0:	223f      	movs	r2, #63	; 0x3f
 81062f2:	601a      	str	r2, [r3, #0]
                                 RCC_CLOCKTYPE_PCLK2 |  RCC_CLOCKTYPE_D3PCLK1  ;

  /* Get the SYSCLK configuration --------------------------------------------*/
  RCC_ClkInitStruct->SYSCLKSource = (uint32_t)(RCC->CFGR & RCC_CFGR_SW);
 81062f4:	4b1a      	ldr	r3, [pc, #104]	; (8106360 <HAL_RCC_GetClockConfig+0x7c>)
 81062f6:	691b      	ldr	r3, [r3, #16]
 81062f8:	f003 0207 	and.w	r2, r3, #7
 81062fc:	687b      	ldr	r3, [r7, #4]
 81062fe:	605a      	str	r2, [r3, #4]

#if defined(RCC_D1CFGR_D1CPRE)
  /* Get the SYSCLK configuration ----------------------------------------------*/
  RCC_ClkInitStruct->SYSCLKDivider = (uint32_t)(RCC->D1CFGR & RCC_D1CFGR_D1CPRE);
 8106300:	4b17      	ldr	r3, [pc, #92]	; (8106360 <HAL_RCC_GetClockConfig+0x7c>)
 8106302:	699b      	ldr	r3, [r3, #24]
 8106304:	f403 6270 	and.w	r2, r3, #3840	; 0xf00
 8106308:	687b      	ldr	r3, [r7, #4]
 810630a:	609a      	str	r2, [r3, #8]

  /* Get the D1HCLK configuration ----------------------------------------------*/
  RCC_ClkInitStruct->AHBCLKDivider = (uint32_t)(RCC->D1CFGR & RCC_D1CFGR_HPRE);
 810630c:	4b14      	ldr	r3, [pc, #80]	; (8106360 <HAL_RCC_GetClockConfig+0x7c>)
 810630e:	699b      	ldr	r3, [r3, #24]
 8106310:	f003 020f 	and.w	r2, r3, #15
 8106314:	687b      	ldr	r3, [r7, #4]
 8106316:	60da      	str	r2, [r3, #12]

  /* Get the APB3 configuration ----------------------------------------------*/
  RCC_ClkInitStruct->APB3CLKDivider = (uint32_t)(RCC->D1CFGR & RCC_D1CFGR_D1PPRE);
 8106318:	4b11      	ldr	r3, [pc, #68]	; (8106360 <HAL_RCC_GetClockConfig+0x7c>)
 810631a:	699b      	ldr	r3, [r3, #24]
 810631c:	f003 0270 	and.w	r2, r3, #112	; 0x70
 8106320:	687b      	ldr	r3, [r7, #4]
 8106322:	611a      	str	r2, [r3, #16]

  /* Get the APB1 configuration ----------------------------------------------*/
  RCC_ClkInitStruct->APB1CLKDivider = (uint32_t)(RCC->D2CFGR & RCC_D2CFGR_D2PPRE1);
 8106324:	4b0e      	ldr	r3, [pc, #56]	; (8106360 <HAL_RCC_GetClockConfig+0x7c>)
 8106326:	69db      	ldr	r3, [r3, #28]
 8106328:	f003 0270 	and.w	r2, r3, #112	; 0x70
 810632c:	687b      	ldr	r3, [r7, #4]
 810632e:	615a      	str	r2, [r3, #20]

  /* Get the APB2 configuration ----------------------------------------------*/
  RCC_ClkInitStruct->APB2CLKDivider = (uint32_t)(RCC->D2CFGR & RCC_D2CFGR_D2PPRE2);
 8106330:	4b0b      	ldr	r3, [pc, #44]	; (8106360 <HAL_RCC_GetClockConfig+0x7c>)
 8106332:	69db      	ldr	r3, [r3, #28]
 8106334:	f403 62e0 	and.w	r2, r3, #1792	; 0x700
 8106338:	687b      	ldr	r3, [r7, #4]
 810633a:	619a      	str	r2, [r3, #24]

  /* Get the APB4 configuration ----------------------------------------------*/
  RCC_ClkInitStruct->APB4CLKDivider = (uint32_t)(RCC->D3CFGR & RCC_D3CFGR_D3PPRE);
 810633c:	4b08      	ldr	r3, [pc, #32]	; (8106360 <HAL_RCC_GetClockConfig+0x7c>)
 810633e:	6a1b      	ldr	r3, [r3, #32]
 8106340:	f003 0270 	and.w	r2, r3, #112	; 0x70
 8106344:	687b      	ldr	r3, [r7, #4]
 8106346:	61da      	str	r2, [r3, #28]
  /* Get the APB4 configuration ----------------------------------------------*/
  RCC_ClkInitStruct->APB4CLKDivider = (uint32_t)(RCC->SRDCFGR & RCC_SRDCFGR_SRDPPRE);
#endif

  /* Get the Flash Wait State (Latency) configuration ------------------------*/
  *pFLatency = (uint32_t)(FLASH->ACR & FLASH_ACR_LATENCY);
 8106348:	4b06      	ldr	r3, [pc, #24]	; (8106364 <HAL_RCC_GetClockConfig+0x80>)
 810634a:	681b      	ldr	r3, [r3, #0]
 810634c:	f003 020f 	and.w	r2, r3, #15
 8106350:	683b      	ldr	r3, [r7, #0]
 8106352:	601a      	str	r2, [r3, #0]
}
 8106354:	bf00      	nop
 8106356:	370c      	adds	r7, #12
 8106358:	46bd      	mov	sp, r7
 810635a:	f85d 7b04 	ldr.w	r7, [sp], #4
 810635e:	4770      	bx	lr
 8106360:	58024400 	.word	0x58024400
 8106364:	52002000 	.word	0x52002000

08106368 <HAL_TIM_Base_Init>:
  *         Ex: call @ref HAL_TIM_Base_DeInit() before HAL_TIM_Base_Init()
  * @param  htim TIM Base handle
  * @retval HAL status
  */
HAL_StatusTypeDef HAL_TIM_Base_Init(TIM_HandleTypeDef *htim)
{
 8106368:	b580      	push	{r7, lr}
 810636a:	b082      	sub	sp, #8
 810636c:	af00      	add	r7, sp, #0
 810636e:	6078      	str	r0, [r7, #4]
  /* Check the TIM handle allocation */
  if (htim == NULL)
 8106370:	687b      	ldr	r3, [r7, #4]
 8106372:	2b00      	cmp	r3, #0
 8106374:	d101      	bne.n	810637a <HAL_TIM_Base_Init+0x12>
  {
    return HAL_ERROR;
 8106376:	2301      	movs	r3, #1
 8106378:	e049      	b.n	810640e <HAL_TIM_Base_Init+0xa6>
  assert_param(IS_TIM_INSTANCE(htim->Instance));
  assert_param(IS_TIM_COUNTER_MODE(htim->Init.CounterMode));
  assert_param(IS_TIM_CLOCKDIVISION_DIV(htim->Init.ClockDivision));
  assert_param(IS_TIM_AUTORELOAD_PRELOAD(htim->Init.AutoReloadPreload));

  if (htim->State == HAL_TIM_STATE_RESET)
 810637a:	687b      	ldr	r3, [r7, #4]
 810637c:	f893 303d 	ldrb.w	r3, [r3, #61]	; 0x3d
 8106380:	b2db      	uxtb	r3, r3
 8106382:	2b00      	cmp	r3, #0
 8106384:	d106      	bne.n	8106394 <HAL_TIM_Base_Init+0x2c>
  {
    /* Allocate lock resource and initialize it */
    htim->Lock = HAL_UNLOCKED;
 8106386:	687b      	ldr	r3, [r7, #4]
 8106388:	2200      	movs	r2, #0
 810638a:	f883 203c 	strb.w	r2, [r3, #60]	; 0x3c
    }
    /* Init the low level hardware : GPIO, CLOCK, NVIC */
    htim->Base_MspInitCallback(htim);
#else
    /* Init the low level hardware : GPIO, CLOCK, NVIC */
    HAL_TIM_Base_MspInit(htim);
 810638e:	6878      	ldr	r0, [r7, #4]
 8106390:	f000 f841 	bl	8106416 <HAL_TIM_Base_MspInit>
#endif /* USE_HAL_TIM_REGISTER_CALLBACKS */
  }

  /* Set the TIM state */
  htim->State = HAL_TIM_STATE_BUSY;
 8106394:	687b      	ldr	r3, [r7, #4]
 8106396:	2202      	movs	r2, #2
 8106398:	f883 203d 	strb.w	r2, [r3, #61]	; 0x3d

  /* Set the Time Base configuration */
  TIM_Base_SetConfig(htim->Instance, &htim->Init);
 810639c:	687b      	ldr	r3, [r7, #4]
 810639e:	681a      	ldr	r2, [r3, #0]
 81063a0:	687b      	ldr	r3, [r7, #4]
 81063a2:	3304      	adds	r3, #4
 81063a4:	4619      	mov	r1, r3
 81063a6:	4610      	mov	r0, r2
 81063a8:	f000 f9be 	bl	8106728 <TIM_Base_SetConfig>

  /* Initialize the DMA burst operation state */
  htim->DMABurstState = HAL_DMA_BURST_STATE_READY;
 81063ac:	687b      	ldr	r3, [r7, #4]
 81063ae:	2201      	movs	r2, #1
 81063b0:	f883 2048 	strb.w	r2, [r3, #72]	; 0x48

  /* Initialize the TIM channels state */
  TIM_CHANNEL_STATE_SET_ALL(htim, HAL_TIM_CHANNEL_STATE_READY);
 81063b4:	687b      	ldr	r3, [r7, #4]
 81063b6:	2201      	movs	r2, #1
 81063b8:	f883 203e 	strb.w	r2, [r3, #62]	; 0x3e
 81063bc:	687b      	ldr	r3, [r7, #4]
 81063be:	2201      	movs	r2, #1
 81063c0:	f883 203f 	strb.w	r2, [r3, #63]	; 0x3f
 81063c4:	687b      	ldr	r3, [r7, #4]
 81063c6:	2201      	movs	r2, #1
 81063c8:	f883 2040 	strb.w	r2, [r3, #64]	; 0x40
 81063cc:	687b      	ldr	r3, [r7, #4]
 81063ce:	2201      	movs	r2, #1
 81063d0:	f883 2041 	strb.w	r2, [r3, #65]	; 0x41
 81063d4:	687b      	ldr	r3, [r7, #4]
 81063d6:	2201      	movs	r2, #1
 81063d8:	f883 2042 	strb.w	r2, [r3, #66]	; 0x42
 81063dc:	687b      	ldr	r3, [r7, #4]
 81063de:	2201      	movs	r2, #1
 81063e0:	f883 2043 	strb.w	r2, [r3, #67]	; 0x43
  TIM_CHANNEL_N_STATE_SET_ALL(htim, HAL_TIM_CHANNEL_STATE_READY);
 81063e4:	687b      	ldr	r3, [r7, #4]
 81063e6:	2201      	movs	r2, #1
 81063e8:	f883 2044 	strb.w	r2, [r3, #68]	; 0x44
 81063ec:	687b      	ldr	r3, [r7, #4]
 81063ee:	2201      	movs	r2, #1
 81063f0:	f883 2045 	strb.w	r2, [r3, #69]	; 0x45
 81063f4:	687b      	ldr	r3, [r7, #4]
 81063f6:	2201      	movs	r2, #1
 81063f8:	f883 2046 	strb.w	r2, [r3, #70]	; 0x46
 81063fc:	687b      	ldr	r3, [r7, #4]
 81063fe:	2201      	movs	r2, #1
 8106400:	f883 2047 	strb.w	r2, [r3, #71]	; 0x47

  /* Initialize the TIM state*/
  htim->State = HAL_TIM_STATE_READY;
 8106404:	687b      	ldr	r3, [r7, #4]
 8106406:	2201      	movs	r2, #1
 8106408:	f883 203d 	strb.w	r2, [r3, #61]	; 0x3d

  return HAL_OK;
 810640c:	2300      	movs	r3, #0
}
 810640e:	4618      	mov	r0, r3
 8106410:	3708      	adds	r7, #8
 8106412:	46bd      	mov	sp, r7
 8106414:	bd80      	pop	{r7, pc}

08106416 <HAL_TIM_Base_MspInit>:
  * @brief  Initializes the TIM Base MSP.
  * @param  htim TIM Base handle
  * @retval None
  */
__weak void HAL_TIM_Base_MspInit(TIM_HandleTypeDef *htim)
{
 8106416:	b480      	push	{r7}
 8106418:	b083      	sub	sp, #12
 810641a:	af00      	add	r7, sp, #0
 810641c:	6078      	str	r0, [r7, #4]
  UNUSED(htim);

  /* NOTE : This function should not be modified, when the callback is needed,
            the HAL_TIM_Base_MspInit could be implemented in the user file
   */
}
 810641e:	bf00      	nop
 8106420:	370c      	adds	r7, #12
 8106422:	46bd      	mov	sp, r7
 8106424:	f85d 7b04 	ldr.w	r7, [sp], #4
 8106428:	4770      	bx	lr
	...

0810642c <HAL_TIM_Base_Start_IT>:
  * @brief  Starts the TIM Base generation in interrupt mode.
  * @param  htim TIM Base handle
  * @retval HAL status
  */
HAL_StatusTypeDef HAL_TIM_Base_Start_IT(TIM_HandleTypeDef *htim)
{
 810642c:	b480      	push	{r7}
 810642e:	b085      	sub	sp, #20
 8106430:	af00      	add	r7, sp, #0
 8106432:	6078      	str	r0, [r7, #4]

  /* Check the parameters */
  assert_param(IS_TIM_INSTANCE(htim->Instance));

  /* Check the TIM state */
  if (htim->State != HAL_TIM_STATE_READY)
 8106434:	687b      	ldr	r3, [r7, #4]
 8106436:	f893 303d 	ldrb.w	r3, [r3, #61]	; 0x3d
 810643a:	b2db      	uxtb	r3, r3
 810643c:	2b01      	cmp	r3, #1
 810643e:	d001      	beq.n	8106444 <HAL_TIM_Base_Start_IT+0x18>
  {
    return HAL_ERROR;
 8106440:	2301      	movs	r3, #1
 8106442:	e021      	b.n	8106488 <HAL_TIM_Base_Start_IT+0x5c>
  }

  /* Set the TIM state */
  htim->State = HAL_TIM_STATE_BUSY;
 8106444:	687b      	ldr	r3, [r7, #4]
 8106446:	2202      	movs	r2, #2
 8106448:	f883 203d 	strb.w	r2, [r3, #61]	; 0x3d

  /* Enable the TIM Update interrupt */
  __HAL_TIM_ENABLE_IT(htim, TIM_IT_UPDATE);
 810644c:	687b      	ldr	r3, [r7, #4]
 810644e:	681b      	ldr	r3, [r3, #0]
 8106450:	68da      	ldr	r2, [r3, #12]
 8106452:	687b      	ldr	r3, [r7, #4]
 8106454:	681b      	ldr	r3, [r3, #0]
 8106456:	f042 0201 	orr.w	r2, r2, #1
 810645a:	60da      	str	r2, [r3, #12]

  /* Enable the Peripheral, except in trigger mode where enable is automatically done with trigger */
  tmpsmcr = htim->Instance->SMCR & TIM_SMCR_SMS;
 810645c:	687b      	ldr	r3, [r7, #4]
 810645e:	681b      	ldr	r3, [r3, #0]
 8106460:	689a      	ldr	r2, [r3, #8]
 8106462:	4b0c      	ldr	r3, [pc, #48]	; (8106494 <HAL_TIM_Base_Start_IT+0x68>)
 8106464:	4013      	ands	r3, r2
 8106466:	60fb      	str	r3, [r7, #12]
  if (!IS_TIM_SLAVEMODE_TRIGGER_ENABLED(tmpsmcr))
 8106468:	68fb      	ldr	r3, [r7, #12]
 810646a:	2b06      	cmp	r3, #6
 810646c:	d00b      	beq.n	8106486 <HAL_TIM_Base_Start_IT+0x5a>
 810646e:	68fb      	ldr	r3, [r7, #12]
 8106470:	f5b3 3f80 	cmp.w	r3, #65536	; 0x10000
 8106474:	d007      	beq.n	8106486 <HAL_TIM_Base_Start_IT+0x5a>
  {
    __HAL_TIM_ENABLE(htim);
 8106476:	687b      	ldr	r3, [r7, #4]
 8106478:	681b      	ldr	r3, [r3, #0]
 810647a:	681a      	ldr	r2, [r3, #0]
 810647c:	687b      	ldr	r3, [r7, #4]
 810647e:	681b      	ldr	r3, [r3, #0]
 8106480:	f042 0201 	orr.w	r2, r2, #1
 8106484:	601a      	str	r2, [r3, #0]
  }

  /* Return function status */
  return HAL_OK;
 8106486:	2300      	movs	r3, #0
}
 8106488:	4618      	mov	r0, r3
 810648a:	3714      	adds	r7, #20
 810648c:	46bd      	mov	sp, r7
 810648e:	f85d 7b04 	ldr.w	r7, [sp], #4
 8106492:	4770      	bx	lr
 8106494:	00010007 	.word	0x00010007

08106498 <HAL_TIM_IRQHandler>:
  * @brief  This function handles TIM interrupts requests.
  * @param  htim TIM  handle
  * @retval None
  */
void HAL_TIM_IRQHandler(TIM_HandleTypeDef *htim)
{
 8106498:	b580      	push	{r7, lr}
 810649a:	b082      	sub	sp, #8
 810649c:	af00      	add	r7, sp, #0
 810649e:	6078      	str	r0, [r7, #4]
  /* Capture compare 1 event */
  if (__HAL_TIM_GET_FLAG(htim, TIM_FLAG_CC1) != RESET)
 81064a0:	687b      	ldr	r3, [r7, #4]
 81064a2:	681b      	ldr	r3, [r3, #0]
 81064a4:	691b      	ldr	r3, [r3, #16]
 81064a6:	f003 0302 	and.w	r3, r3, #2
 81064aa:	2b02      	cmp	r3, #2
 81064ac:	d122      	bne.n	81064f4 <HAL_TIM_IRQHandler+0x5c>
  {
    if (__HAL_TIM_GET_IT_SOURCE(htim, TIM_IT_CC1) != RESET)
 81064ae:	687b      	ldr	r3, [r7, #4]
 81064b0:	681b      	ldr	r3, [r3, #0]
 81064b2:	68db      	ldr	r3, [r3, #12]
 81064b4:	f003 0302 	and.w	r3, r3, #2
 81064b8:	2b02      	cmp	r3, #2
 81064ba:	d11b      	bne.n	81064f4 <HAL_TIM_IRQHandler+0x5c>
    {
      {
        __HAL_TIM_CLEAR_IT(htim, TIM_IT_CC1);
 81064bc:	687b      	ldr	r3, [r7, #4]
 81064be:	681b      	ldr	r3, [r3, #0]
 81064c0:	f06f 0202 	mvn.w	r2, #2
 81064c4:	611a      	str	r2, [r3, #16]
        htim->Channel = HAL_TIM_ACTIVE_CHANNEL_1;
 81064c6:	687b      	ldr	r3, [r7, #4]
 81064c8:	2201      	movs	r2, #1
 81064ca:	771a      	strb	r2, [r3, #28]

        /* Input capture event */
        if ((htim->Instance->CCMR1 & TIM_CCMR1_CC1S) != 0x00U)
 81064cc:	687b      	ldr	r3, [r7, #4]
 81064ce:	681b      	ldr	r3, [r3, #0]
 81064d0:	699b      	ldr	r3, [r3, #24]
 81064d2:	f003 0303 	and.w	r3, r3, #3
 81064d6:	2b00      	cmp	r3, #0
 81064d8:	d003      	beq.n	81064e2 <HAL_TIM_IRQHandler+0x4a>
        {
#if (USE_HAL_TIM_REGISTER_CALLBACKS == 1)
          htim->IC_CaptureCallback(htim);
#else
          HAL_TIM_IC_CaptureCallback(htim);
 81064da:	6878      	ldr	r0, [r7, #4]
 81064dc:	f000 f905 	bl	81066ea <HAL_TIM_IC_CaptureCallback>
 81064e0:	e005      	b.n	81064ee <HAL_TIM_IRQHandler+0x56>
        {
#if (USE_HAL_TIM_REGISTER_CALLBACKS == 1)
          htim->OC_DelayElapsedCallback(htim);
          htim->PWM_PulseFinishedCallback(htim);
#else
          HAL_TIM_OC_DelayElapsedCallback(htim);
 81064e2:	6878      	ldr	r0, [r7, #4]
 81064e4:	f000 f8f7 	bl	81066d6 <HAL_TIM_OC_DelayElapsedCallback>
          HAL_TIM_PWM_PulseFinishedCallback(htim);
 81064e8:	6878      	ldr	r0, [r7, #4]
 81064ea:	f000 f908 	bl	81066fe <HAL_TIM_PWM_PulseFinishedCallback>
#endif /* USE_HAL_TIM_REGISTER_CALLBACKS */
        }
        htim->Channel = HAL_TIM_ACTIVE_CHANNEL_CLEARED;
 81064ee:	687b      	ldr	r3, [r7, #4]
 81064f0:	2200      	movs	r2, #0
 81064f2:	771a      	strb	r2, [r3, #28]
      }
    }
  }
  /* Capture compare 2 event */
  if (__HAL_TIM_GET_FLAG(htim, TIM_FLAG_CC2) != RESET)
 81064f4:	687b      	ldr	r3, [r7, #4]
 81064f6:	681b      	ldr	r3, [r3, #0]
 81064f8:	691b      	ldr	r3, [r3, #16]
 81064fa:	f003 0304 	and.w	r3, r3, #4
 81064fe:	2b04      	cmp	r3, #4
 8106500:	d122      	bne.n	8106548 <HAL_TIM_IRQHandler+0xb0>
  {
    if (__HAL_TIM_GET_IT_SOURCE(htim, TIM_IT_CC2) != RESET)
 8106502:	687b      	ldr	r3, [r7, #4]
 8106504:	681b      	ldr	r3, [r3, #0]
 8106506:	68db      	ldr	r3, [r3, #12]
 8106508:	f003 0304 	and.w	r3, r3, #4
 810650c:	2b04      	cmp	r3, #4
 810650e:	d11b      	bne.n	8106548 <HAL_TIM_IRQHandler+0xb0>
    {
      __HAL_TIM_CLEAR_IT(htim, TIM_IT_CC2);
 8106510:	687b      	ldr	r3, [r7, #4]
 8106512:	681b      	ldr	r3, [r3, #0]
 8106514:	f06f 0204 	mvn.w	r2, #4
 8106518:	611a      	str	r2, [r3, #16]
      htim->Channel = HAL_TIM_ACTIVE_CHANNEL_2;
 810651a:	687b      	ldr	r3, [r7, #4]
 810651c:	2202      	movs	r2, #2
 810651e:	771a      	strb	r2, [r3, #28]
      /* Input capture event */
      if ((htim->Instance->CCMR1 & TIM_CCMR1_CC2S) != 0x00U)
 8106520:	687b      	ldr	r3, [r7, #4]
 8106522:	681b      	ldr	r3, [r3, #0]
 8106524:	699b      	ldr	r3, [r3, #24]
 8106526:	f403 7340 	and.w	r3, r3, #768	; 0x300
 810652a:	2b00      	cmp	r3, #0
 810652c:	d003      	beq.n	8106536 <HAL_TIM_IRQHandler+0x9e>
      {
#if (USE_HAL_TIM_REGISTER_CALLBACKS == 1)
        htim->IC_CaptureCallback(htim);
#else
        HAL_TIM_IC_CaptureCallback(htim);
 810652e:	6878      	ldr	r0, [r7, #4]
 8106530:	f000 f8db 	bl	81066ea <HAL_TIM_IC_CaptureCallback>
 8106534:	e005      	b.n	8106542 <HAL_TIM_IRQHandler+0xaa>
      {
#if (USE_HAL_TIM_REGISTER_CALLBACKS == 1)
        htim->OC_DelayElapsedCallback(htim);
        htim->PWM_PulseFinishedCallback(htim);
#else
        HAL_TIM_OC_DelayElapsedCallback(htim);
 8106536:	6878      	ldr	r0, [r7, #4]
 8106538:	f000 f8cd 	bl	81066d6 <HAL_TIM_OC_DelayElapsedCallback>
        HAL_TIM_PWM_PulseFinishedCallback(htim);
 810653c:	6878      	ldr	r0, [r7, #4]
 810653e:	f000 f8de 	bl	81066fe <HAL_TIM_PWM_PulseFinishedCallback>
#endif /* USE_HAL_TIM_REGISTER_CALLBACKS */
      }
      htim->Channel = HAL_TIM_ACTIVE_CHANNEL_CLEARED;
 8106542:	687b      	ldr	r3, [r7, #4]
 8106544:	2200      	movs	r2, #0
 8106546:	771a      	strb	r2, [r3, #28]
    }
  }
  /* Capture compare 3 event */
  if (__HAL_TIM_GET_FLAG(htim, TIM_FLAG_CC3) != RESET)
 8106548:	687b      	ldr	r3, [r7, #4]
 810654a:	681b      	ldr	r3, [r3, #0]
 810654c:	691b      	ldr	r3, [r3, #16]
 810654e:	f003 0308 	and.w	r3, r3, #8
 8106552:	2b08      	cmp	r3, #8
 8106554:	d122      	bne.n	810659c <HAL_TIM_IRQHandler+0x104>
  {
    if (__HAL_TIM_GET_IT_SOURCE(htim, TIM_IT_CC3) != RESET)
 8106556:	687b      	ldr	r3, [r7, #4]
 8106558:	681b      	ldr	r3, [r3, #0]
 810655a:	68db      	ldr	r3, [r3, #12]
 810655c:	f003 0308 	and.w	r3, r3, #8
 8106560:	2b08      	cmp	r3, #8
 8106562:	d11b      	bne.n	810659c <HAL_TIM_IRQHandler+0x104>
    {
      __HAL_TIM_CLEAR_IT(htim, TIM_IT_CC3);
 8106564:	687b      	ldr	r3, [r7, #4]
 8106566:	681b      	ldr	r3, [r3, #0]
 8106568:	f06f 0208 	mvn.w	r2, #8
 810656c:	611a      	str	r2, [r3, #16]
      htim->Channel = HAL_TIM_ACTIVE_CHANNEL_3;
 810656e:	687b      	ldr	r3, [r7, #4]
 8106570:	2204      	movs	r2, #4
 8106572:	771a      	strb	r2, [r3, #28]
      /* Input capture event */
      if ((htim->Instance->CCMR2 & TIM_CCMR2_CC3S) != 0x00U)
 8106574:	687b      	ldr	r3, [r7, #4]
 8106576:	681b      	ldr	r3, [r3, #0]
 8106578:	69db      	ldr	r3, [r3, #28]
 810657a:	f003 0303 	and.w	r3, r3, #3
 810657e:	2b00      	cmp	r3, #0
 8106580:	d003      	beq.n	810658a <HAL_TIM_IRQHandler+0xf2>
      {
#if (USE_HAL_TIM_REGISTER_CALLBACKS == 1)
        htim->IC_CaptureCallback(htim);
#else
        HAL_TIM_IC_CaptureCallback(htim);
 8106582:	6878      	ldr	r0, [r7, #4]
 8106584:	f000 f8b1 	bl	81066ea <HAL_TIM_IC_CaptureCallback>
 8106588:	e005      	b.n	8106596 <HAL_TIM_IRQHandler+0xfe>
      {
#if (USE_HAL_TIM_REGISTER_CALLBACKS == 1)
        htim->OC_DelayElapsedCallback(htim);
        htim->PWM_PulseFinishedCallback(htim);
#else
        HAL_TIM_OC_DelayElapsedCallback(htim);
 810658a:	6878      	ldr	r0, [r7, #4]
 810658c:	f000 f8a3 	bl	81066d6 <HAL_TIM_OC_DelayElapsedCallback>
        HAL_TIM_PWM_PulseFinishedCallback(htim);
 8106590:	6878      	ldr	r0, [r7, #4]
 8106592:	f000 f8b4 	bl	81066fe <HAL_TIM_PWM_PulseFinishedCallback>
#endif /* USE_HAL_TIM_REGISTER_CALLBACKS */
      }
      htim->Channel = HAL_TIM_ACTIVE_CHANNEL_CLEARED;
 8106596:	687b      	ldr	r3, [r7, #4]
 8106598:	2200      	movs	r2, #0
 810659a:	771a      	strb	r2, [r3, #28]
    }
  }
  /* Capture compare 4 event */
  if (__HAL_TIM_GET_FLAG(htim, TIM_FLAG_CC4) != RESET)
 810659c:	687b      	ldr	r3, [r7, #4]
 810659e:	681b      	ldr	r3, [r3, #0]
 81065a0:	691b      	ldr	r3, [r3, #16]
 81065a2:	f003 0310 	and.w	r3, r3, #16
 81065a6:	2b10      	cmp	r3, #16
 81065a8:	d122      	bne.n	81065f0 <HAL_TIM_IRQHandler+0x158>
  {
    if (__HAL_TIM_GET_IT_SOURCE(htim, TIM_IT_CC4) != RESET)
 81065aa:	687b      	ldr	r3, [r7, #4]
 81065ac:	681b      	ldr	r3, [r3, #0]
 81065ae:	68db      	ldr	r3, [r3, #12]
 81065b0:	f003 0310 	and.w	r3, r3, #16
 81065b4:	2b10      	cmp	r3, #16
 81065b6:	d11b      	bne.n	81065f0 <HAL_TIM_IRQHandler+0x158>
    {
      __HAL_TIM_CLEAR_IT(htim, TIM_IT_CC4);
 81065b8:	687b      	ldr	r3, [r7, #4]
 81065ba:	681b      	ldr	r3, [r3, #0]
 81065bc:	f06f 0210 	mvn.w	r2, #16
 81065c0:	611a      	str	r2, [r3, #16]
      htim->Channel = HAL_TIM_ACTIVE_CHANNEL_4;
 81065c2:	687b      	ldr	r3, [r7, #4]
 81065c4:	2208      	movs	r2, #8
 81065c6:	771a      	strb	r2, [r3, #28]
      /* Input capture event */
      if ((htim->Instance->CCMR2 & TIM_CCMR2_CC4S) != 0x00U)
 81065c8:	687b      	ldr	r3, [r7, #4]
 81065ca:	681b      	ldr	r3, [r3, #0]
 81065cc:	69db      	ldr	r3, [r3, #28]
 81065ce:	f403 7340 	and.w	r3, r3, #768	; 0x300
 81065d2:	2b00      	cmp	r3, #0
 81065d4:	d003      	beq.n	81065de <HAL_TIM_IRQHandler+0x146>
      {
#if (USE_HAL_TIM_REGISTER_CALLBACKS == 1)
        htim->IC_CaptureCallback(htim);
#else
        HAL_TIM_IC_CaptureCallback(htim);
 81065d6:	6878      	ldr	r0, [r7, #4]
 81065d8:	f000 f887 	bl	81066ea <HAL_TIM_IC_CaptureCallback>
 81065dc:	e005      	b.n	81065ea <HAL_TIM_IRQHandler+0x152>
      {
#if (USE_HAL_TIM_REGISTER_CALLBACKS == 1)
        htim->OC_DelayElapsedCallback(htim);
        htim->PWM_PulseFinishedCallback(htim);
#else
        HAL_TIM_OC_DelayElapsedCallback(htim);
 81065de:	6878      	ldr	r0, [r7, #4]
 81065e0:	f000 f879 	bl	81066d6 <HAL_TIM_OC_DelayElapsedCallback>
        HAL_TIM_PWM_PulseFinishedCallback(htim);
 81065e4:	6878      	ldr	r0, [r7, #4]
 81065e6:	f000 f88a 	bl	81066fe <HAL_TIM_PWM_PulseFinishedCallback>
#endif /* USE_HAL_TIM_REGISTER_CALLBACKS */
      }
      htim->Channel = HAL_TIM_ACTIVE_CHANNEL_CLEARED;
 81065ea:	687b      	ldr	r3, [r7, #4]
 81065ec:	2200      	movs	r2, #0
 81065ee:	771a      	strb	r2, [r3, #28]
    }
  }
  /* TIM Update event */
  if (__HAL_TIM_GET_FLAG(htim, TIM_FLAG_UPDATE) != RESET)
 81065f0:	687b      	ldr	r3, [r7, #4]
 81065f2:	681b      	ldr	r3, [r3, #0]
 81065f4:	691b      	ldr	r3, [r3, #16]
 81065f6:	f003 0301 	and.w	r3, r3, #1
 81065fa:	2b01      	cmp	r3, #1
 81065fc:	d10e      	bne.n	810661c <HAL_TIM_IRQHandler+0x184>
  {
    if (__HAL_TIM_GET_IT_SOURCE(htim, TIM_IT_UPDATE) != RESET)
 81065fe:	687b      	ldr	r3, [r7, #4]
 8106600:	681b      	ldr	r3, [r3, #0]
 8106602:	68db      	ldr	r3, [r3, #12]
 8106604:	f003 0301 	and.w	r3, r3, #1
 8106608:	2b01      	cmp	r3, #1
 810660a:	d107      	bne.n	810661c <HAL_TIM_IRQHandler+0x184>
    {
      __HAL_TIM_CLEAR_IT(htim, TIM_IT_UPDATE);
 810660c:	687b      	ldr	r3, [r7, #4]
 810660e:	681b      	ldr	r3, [r3, #0]
 8106610:	f06f 0201 	mvn.w	r2, #1
 8106614:	611a      	str	r2, [r3, #16]
#if (USE_HAL_TIM_REGISTER_CALLBACKS == 1)
      htim->PeriodElapsedCallback(htim);
#else
      HAL_TIM_PeriodElapsedCallback(htim);
 8106616:	6878      	ldr	r0, [r7, #4]
 8106618:	f7fe fd84 	bl	8105124 <HAL_TIM_PeriodElapsedCallback>
#endif /* USE_HAL_TIM_REGISTER_CALLBACKS */
    }
  }
  /* TIM Break input event */
  if (__HAL_TIM_GET_FLAG(htim, TIM_FLAG_BREAK) != RESET)
 810661c:	687b      	ldr	r3, [r7, #4]
 810661e:	681b      	ldr	r3, [r3, #0]
 8106620:	691b      	ldr	r3, [r3, #16]
 8106622:	f003 0380 	and.w	r3, r3, #128	; 0x80
 8106626:	2b80      	cmp	r3, #128	; 0x80
 8106628:	d10e      	bne.n	8106648 <HAL_TIM_IRQHandler+0x1b0>
  {
    if (__HAL_TIM_GET_IT_SOURCE(htim, TIM_IT_BREAK) != RESET)
 810662a:	687b      	ldr	r3, [r7, #4]
 810662c:	681b      	ldr	r3, [r3, #0]
 810662e:	68db      	ldr	r3, [r3, #12]
 8106630:	f003 0380 	and.w	r3, r3, #128	; 0x80
 8106634:	2b80      	cmp	r3, #128	; 0x80
 8106636:	d107      	bne.n	8106648 <HAL_TIM_IRQHandler+0x1b0>
    {
      __HAL_TIM_CLEAR_IT(htim, TIM_IT_BREAK);
 8106638:	687b      	ldr	r3, [r7, #4]
 810663a:	681b      	ldr	r3, [r3, #0]
 810663c:	f06f 0280 	mvn.w	r2, #128	; 0x80
 8106640:	611a      	str	r2, [r3, #16]
#if (USE_HAL_TIM_REGISTER_CALLBACKS == 1)
      htim->BreakCallback(htim);
#else
      HAL_TIMEx_BreakCallback(htim);
 8106642:	6878      	ldr	r0, [r7, #4]
 8106644:	f000 f914 	bl	8106870 <HAL_TIMEx_BreakCallback>
#endif /* USE_HAL_TIM_REGISTER_CALLBACKS */
    }
  }
  /* TIM Break2 input event */
  if (__HAL_TIM_GET_FLAG(htim, TIM_FLAG_BREAK2) != RESET)
 8106648:	687b      	ldr	r3, [r7, #4]
 810664a:	681b      	ldr	r3, [r3, #0]
 810664c:	691b      	ldr	r3, [r3, #16]
 810664e:	f403 7380 	and.w	r3, r3, #256	; 0x100
 8106652:	f5b3 7f80 	cmp.w	r3, #256	; 0x100
 8106656:	d10e      	bne.n	8106676 <HAL_TIM_IRQHandler+0x1de>
  {
    if (__HAL_TIM_GET_IT_SOURCE(htim, TIM_IT_BREAK) != RESET)
 8106658:	687b      	ldr	r3, [r7, #4]
 810665a:	681b      	ldr	r3, [r3, #0]
 810665c:	68db      	ldr	r3, [r3, #12]
 810665e:	f003 0380 	and.w	r3, r3, #128	; 0x80
 8106662:	2b80      	cmp	r3, #128	; 0x80
 8106664:	d107      	bne.n	8106676 <HAL_TIM_IRQHandler+0x1de>
    {
      __HAL_TIM_CLEAR_FLAG(htim, TIM_FLAG_BREAK2);
 8106666:	687b      	ldr	r3, [r7, #4]
 8106668:	681b      	ldr	r3, [r3, #0]
 810666a:	f46f 7280 	mvn.w	r2, #256	; 0x100
 810666e:	611a      	str	r2, [r3, #16]
#if (USE_HAL_TIM_REGISTER_CALLBACKS == 1)
      htim->Break2Callback(htim);
#else
      HAL_TIMEx_Break2Callback(htim);
 8106670:	6878      	ldr	r0, [r7, #4]
 8106672:	f000 f907 	bl	8106884 <HAL_TIMEx_Break2Callback>
#endif /* USE_HAL_TIM_REGISTER_CALLBACKS */
    }
  }
  /* TIM Trigger detection event */
  if (__HAL_TIM_GET_FLAG(htim, TIM_FLAG_TRIGGER) != RESET)
 8106676:	687b      	ldr	r3, [r7, #4]
 8106678:	681b      	ldr	r3, [r3, #0]
 810667a:	691b      	ldr	r3, [r3, #16]
 810667c:	f003 0340 	and.w	r3, r3, #64	; 0x40
 8106680:	2b40      	cmp	r3, #64	; 0x40
 8106682:	d10e      	bne.n	81066a2 <HAL_TIM_IRQHandler+0x20a>
  {
    if (__HAL_TIM_GET_IT_SOURCE(htim, TIM_IT_TRIGGER) != RESET)
 8106684:	687b      	ldr	r3, [r7, #4]
 8106686:	681b      	ldr	r3, [r3, #0]
 8106688:	68db      	ldr	r3, [r3, #12]
 810668a:	f003 0340 	and.w	r3, r3, #64	; 0x40
 810668e:	2b40      	cmp	r3, #64	; 0x40
 8106690:	d107      	bne.n	81066a2 <HAL_TIM_IRQHandler+0x20a>
    {
      __HAL_TIM_CLEAR_IT(htim, TIM_IT_TRIGGER);
 8106692:	687b      	ldr	r3, [r7, #4]
 8106694:	681b      	ldr	r3, [r3, #0]
 8106696:	f06f 0240 	mvn.w	r2, #64	; 0x40
 810669a:	611a      	str	r2, [r3, #16]
#if (USE_HAL_TIM_REGISTER_CALLBACKS == 1)
      htim->TriggerCallback(htim);
#else
      HAL_TIM_TriggerCallback(htim);
 810669c:	6878      	ldr	r0, [r7, #4]
 810669e:	f000 f838 	bl	8106712 <HAL_TIM_TriggerCallback>
#endif /* USE_HAL_TIM_REGISTER_CALLBACKS */
    }
  }
  /* TIM commutation event */
  if (__HAL_TIM_GET_FLAG(htim, TIM_FLAG_COM) != RESET)
 81066a2:	687b      	ldr	r3, [r7, #4]
 81066a4:	681b      	ldr	r3, [r3, #0]
 81066a6:	691b      	ldr	r3, [r3, #16]
 81066a8:	f003 0320 	and.w	r3, r3, #32
 81066ac:	2b20      	cmp	r3, #32
 81066ae:	d10e      	bne.n	81066ce <HAL_TIM_IRQHandler+0x236>
  {
    if (__HAL_TIM_GET_IT_SOURCE(htim, TIM_IT_COM) != RESET)
 81066b0:	687b      	ldr	r3, [r7, #4]
 81066b2:	681b      	ldr	r3, [r3, #0]
 81066b4:	68db      	ldr	r3, [r3, #12]
 81066b6:	f003 0320 	and.w	r3, r3, #32
 81066ba:	2b20      	cmp	r3, #32
 81066bc:	d107      	bne.n	81066ce <HAL_TIM_IRQHandler+0x236>
    {
      __HAL_TIM_CLEAR_IT(htim, TIM_FLAG_COM);
 81066be:	687b      	ldr	r3, [r7, #4]
 81066c0:	681b      	ldr	r3, [r3, #0]
 81066c2:	f06f 0220 	mvn.w	r2, #32
 81066c6:	611a      	str	r2, [r3, #16]
#if (USE_HAL_TIM_REGISTER_CALLBACKS == 1)
      htim->CommutationCallback(htim);
#else
      HAL_TIMEx_CommutCallback(htim);
 81066c8:	6878      	ldr	r0, [r7, #4]
 81066ca:	f000 f8c7 	bl	810685c <HAL_TIMEx_CommutCallback>
#endif /* USE_HAL_TIM_REGISTER_CALLBACKS */
    }
  }
}
 81066ce:	bf00      	nop
 81066d0:	3708      	adds	r7, #8
 81066d2:	46bd      	mov	sp, r7
 81066d4:	bd80      	pop	{r7, pc}

081066d6 <HAL_TIM_OC_DelayElapsedCallback>:
  * @brief  Output Compare callback in non-blocking mode
  * @param  htim TIM OC handle
  * @retval None
  */
__weak void HAL_TIM_OC_DelayElapsedCallback(TIM_HandleTypeDef *htim)
{
 81066d6:	b480      	push	{r7}
 81066d8:	b083      	sub	sp, #12
 81066da:	af00      	add	r7, sp, #0
 81066dc:	6078      	str	r0, [r7, #4]
  UNUSED(htim);

  /* NOTE : This function should not be modified, when the callback is needed,
            the HAL_TIM_OC_DelayElapsedCallback could be implemented in the user file
   */
}
 81066de:	bf00      	nop
 81066e0:	370c      	adds	r7, #12
 81066e2:	46bd      	mov	sp, r7
 81066e4:	f85d 7b04 	ldr.w	r7, [sp], #4
 81066e8:	4770      	bx	lr

081066ea <HAL_TIM_IC_CaptureCallback>:
  * @brief  Input Capture callback in non-blocking mode
  * @param  htim TIM IC handle
  * @retval None
  */
__weak void HAL_TIM_IC_CaptureCallback(TIM_HandleTypeDef *htim)
{
 81066ea:	b480      	push	{r7}
 81066ec:	b083      	sub	sp, #12
 81066ee:	af00      	add	r7, sp, #0
 81066f0:	6078      	str	r0, [r7, #4]
  UNUSED(htim);

  /* NOTE : This function should not be modified, when the callback is needed,
            the HAL_TIM_IC_CaptureCallback could be implemented in the user file
   */
}
 81066f2:	bf00      	nop
 81066f4:	370c      	adds	r7, #12
 81066f6:	46bd      	mov	sp, r7
 81066f8:	f85d 7b04 	ldr.w	r7, [sp], #4
 81066fc:	4770      	bx	lr

081066fe <HAL_TIM_PWM_PulseFinishedCallback>:
  * @brief  PWM Pulse finished callback in non-blocking mode
  * @param  htim TIM handle
  * @retval None
  */
__weak void HAL_TIM_PWM_PulseFinishedCallback(TIM_HandleTypeDef *htim)
{
 81066fe:	b480      	push	{r7}
 8106700:	b083      	sub	sp, #12
 8106702:	af00      	add	r7, sp, #0
 8106704:	6078      	str	r0, [r7, #4]
  UNUSED(htim);

  /* NOTE : This function should not be modified, when the callback is needed,
            the HAL_TIM_PWM_PulseFinishedCallback could be implemented in the user file
   */
}
 8106706:	bf00      	nop
 8106708:	370c      	adds	r7, #12
 810670a:	46bd      	mov	sp, r7
 810670c:	f85d 7b04 	ldr.w	r7, [sp], #4
 8106710:	4770      	bx	lr

08106712 <HAL_TIM_TriggerCallback>:
  * @brief  Hall Trigger detection callback in non-blocking mode
  * @param  htim TIM handle
  * @retval None
  */
__weak void HAL_TIM_TriggerCallback(TIM_HandleTypeDef *htim)
{
 8106712:	b480      	push	{r7}
 8106714:	b083      	sub	sp, #12
 8106716:	af00      	add	r7, sp, #0
 8106718:	6078      	str	r0, [r7, #4]
  UNUSED(htim);

  /* NOTE : This function should not be modified, when the callback is needed,
            the HAL_TIM_TriggerCallback could be implemented in the user file
   */
}
 810671a:	bf00      	nop
 810671c:	370c      	adds	r7, #12
 810671e:	46bd      	mov	sp, r7
 8106720:	f85d 7b04 	ldr.w	r7, [sp], #4
 8106724:	4770      	bx	lr
	...

08106728 <TIM_Base_SetConfig>:
  * @param  TIMx TIM peripheral
  * @param  Structure TIM Base configuration structure
  * @retval None
  */
void TIM_Base_SetConfig(TIM_TypeDef *TIMx, TIM_Base_InitTypeDef *Structure)
{
 8106728:	b480      	push	{r7}
 810672a:	b085      	sub	sp, #20
 810672c:	af00      	add	r7, sp, #0
 810672e:	6078      	str	r0, [r7, #4]
 8106730:	6039      	str	r1, [r7, #0]
  uint32_t tmpcr1;
  tmpcr1 = TIMx->CR1;
 8106732:	687b      	ldr	r3, [r7, #4]
 8106734:	681b      	ldr	r3, [r3, #0]
 8106736:	60fb      	str	r3, [r7, #12]

  /* Set TIM Time Base Unit parameters ---------------------------------------*/
  if (IS_TIM_COUNTER_MODE_SELECT_INSTANCE(TIMx))
 8106738:	687b      	ldr	r3, [r7, #4]
 810673a:	4a40      	ldr	r2, [pc, #256]	; (810683c <TIM_Base_SetConfig+0x114>)
 810673c:	4293      	cmp	r3, r2
 810673e:	d013      	beq.n	8106768 <TIM_Base_SetConfig+0x40>
 8106740:	687b      	ldr	r3, [r7, #4]
 8106742:	f1b3 4f80 	cmp.w	r3, #1073741824	; 0x40000000
 8106746:	d00f      	beq.n	8106768 <TIM_Base_SetConfig+0x40>
 8106748:	687b      	ldr	r3, [r7, #4]
 810674a:	4a3d      	ldr	r2, [pc, #244]	; (8106840 <TIM_Base_SetConfig+0x118>)
 810674c:	4293      	cmp	r3, r2
 810674e:	d00b      	beq.n	8106768 <TIM_Base_SetConfig+0x40>
 8106750:	687b      	ldr	r3, [r7, #4]
 8106752:	4a3c      	ldr	r2, [pc, #240]	; (8106844 <TIM_Base_SetConfig+0x11c>)
 8106754:	4293      	cmp	r3, r2
 8106756:	d007      	beq.n	8106768 <TIM_Base_SetConfig+0x40>
 8106758:	687b      	ldr	r3, [r7, #4]
 810675a:	4a3b      	ldr	r2, [pc, #236]	; (8106848 <TIM_Base_SetConfig+0x120>)
 810675c:	4293      	cmp	r3, r2
 810675e:	d003      	beq.n	8106768 <TIM_Base_SetConfig+0x40>
 8106760:	687b      	ldr	r3, [r7, #4]
 8106762:	4a3a      	ldr	r2, [pc, #232]	; (810684c <TIM_Base_SetConfig+0x124>)
 8106764:	4293      	cmp	r3, r2
 8106766:	d108      	bne.n	810677a <TIM_Base_SetConfig+0x52>
  {
    /* Select the Counter Mode */
    tmpcr1 &= ~(TIM_CR1_DIR | TIM_CR1_CMS);
 8106768:	68fb      	ldr	r3, [r7, #12]
 810676a:	f023 0370 	bic.w	r3, r3, #112	; 0x70
 810676e:	60fb      	str	r3, [r7, #12]
    tmpcr1 |= Structure->CounterMode;
 8106770:	683b      	ldr	r3, [r7, #0]
 8106772:	685b      	ldr	r3, [r3, #4]
 8106774:	68fa      	ldr	r2, [r7, #12]
 8106776:	4313      	orrs	r3, r2
 8106778:	60fb      	str	r3, [r7, #12]
  }

  if (IS_TIM_CLOCK_DIVISION_INSTANCE(TIMx))
 810677a:	687b      	ldr	r3, [r7, #4]
 810677c:	4a2f      	ldr	r2, [pc, #188]	; (810683c <TIM_Base_SetConfig+0x114>)
 810677e:	4293      	cmp	r3, r2
 8106780:	d01f      	beq.n	81067c2 <TIM_Base_SetConfig+0x9a>
 8106782:	687b      	ldr	r3, [r7, #4]
 8106784:	f1b3 4f80 	cmp.w	r3, #1073741824	; 0x40000000
 8106788:	d01b      	beq.n	81067c2 <TIM_Base_SetConfig+0x9a>
 810678a:	687b      	ldr	r3, [r7, #4]
 810678c:	4a2c      	ldr	r2, [pc, #176]	; (8106840 <TIM_Base_SetConfig+0x118>)
 810678e:	4293      	cmp	r3, r2
 8106790:	d017      	beq.n	81067c2 <TIM_Base_SetConfig+0x9a>
 8106792:	687b      	ldr	r3, [r7, #4]
 8106794:	4a2b      	ldr	r2, [pc, #172]	; (8106844 <TIM_Base_SetConfig+0x11c>)
 8106796:	4293      	cmp	r3, r2
 8106798:	d013      	beq.n	81067c2 <TIM_Base_SetConfig+0x9a>
 810679a:	687b      	ldr	r3, [r7, #4]
 810679c:	4a2a      	ldr	r2, [pc, #168]	; (8106848 <TIM_Base_SetConfig+0x120>)
 810679e:	4293      	cmp	r3, r2
 81067a0:	d00f      	beq.n	81067c2 <TIM_Base_SetConfig+0x9a>
 81067a2:	687b      	ldr	r3, [r7, #4]
 81067a4:	4a29      	ldr	r2, [pc, #164]	; (810684c <TIM_Base_SetConfig+0x124>)
 81067a6:	4293      	cmp	r3, r2
 81067a8:	d00b      	beq.n	81067c2 <TIM_Base_SetConfig+0x9a>
 81067aa:	687b      	ldr	r3, [r7, #4]
 81067ac:	4a28      	ldr	r2, [pc, #160]	; (8106850 <TIM_Base_SetConfig+0x128>)
 81067ae:	4293      	cmp	r3, r2
 81067b0:	d007      	beq.n	81067c2 <TIM_Base_SetConfig+0x9a>
 81067b2:	687b      	ldr	r3, [r7, #4]
 81067b4:	4a27      	ldr	r2, [pc, #156]	; (8106854 <TIM_Base_SetConfig+0x12c>)
 81067b6:	4293      	cmp	r3, r2
 81067b8:	d003      	beq.n	81067c2 <TIM_Base_SetConfig+0x9a>
 81067ba:	687b      	ldr	r3, [r7, #4]
 81067bc:	4a26      	ldr	r2, [pc, #152]	; (8106858 <TIM_Base_SetConfig+0x130>)
 81067be:	4293      	cmp	r3, r2
 81067c0:	d108      	bne.n	81067d4 <TIM_Base_SetConfig+0xac>
  {
    /* Set the clock division */
    tmpcr1 &= ~TIM_CR1_CKD;
 81067c2:	68fb      	ldr	r3, [r7, #12]
 81067c4:	f423 7340 	bic.w	r3, r3, #768	; 0x300
 81067c8:	60fb      	str	r3, [r7, #12]
    tmpcr1 |= (uint32_t)Structure->ClockDivision;
 81067ca:	683b      	ldr	r3, [r7, #0]
 81067cc:	68db      	ldr	r3, [r3, #12]
 81067ce:	68fa      	ldr	r2, [r7, #12]
 81067d0:	4313      	orrs	r3, r2
 81067d2:	60fb      	str	r3, [r7, #12]
  }

  /* Set the auto-reload preload */
  MODIFY_REG(tmpcr1, TIM_CR1_ARPE, Structure->AutoReloadPreload);
 81067d4:	68fb      	ldr	r3, [r7, #12]
 81067d6:	f023 0280 	bic.w	r2, r3, #128	; 0x80
 81067da:	683b      	ldr	r3, [r7, #0]
 81067dc:	695b      	ldr	r3, [r3, #20]
 81067de:	4313      	orrs	r3, r2
 81067e0:	60fb      	str	r3, [r7, #12]

  TIMx->CR1 = tmpcr1;
 81067e2:	687b      	ldr	r3, [r7, #4]
 81067e4:	68fa      	ldr	r2, [r7, #12]
 81067e6:	601a      	str	r2, [r3, #0]

  /* Set the Autoreload value */
  TIMx->ARR = (uint32_t)Structure->Period ;
 81067e8:	683b      	ldr	r3, [r7, #0]
 81067ea:	689a      	ldr	r2, [r3, #8]
 81067ec:	687b      	ldr	r3, [r7, #4]
 81067ee:	62da      	str	r2, [r3, #44]	; 0x2c

  /* Set the Prescaler value */
  TIMx->PSC = Structure->Prescaler;
 81067f0:	683b      	ldr	r3, [r7, #0]
 81067f2:	681a      	ldr	r2, [r3, #0]
 81067f4:	687b      	ldr	r3, [r7, #4]
 81067f6:	629a      	str	r2, [r3, #40]	; 0x28

  if (IS_TIM_REPETITION_COUNTER_INSTANCE(TIMx))
 81067f8:	687b      	ldr	r3, [r7, #4]
 81067fa:	4a10      	ldr	r2, [pc, #64]	; (810683c <TIM_Base_SetConfig+0x114>)
 81067fc:	4293      	cmp	r3, r2
 81067fe:	d00f      	beq.n	8106820 <TIM_Base_SetConfig+0xf8>
 8106800:	687b      	ldr	r3, [r7, #4]
 8106802:	4a12      	ldr	r2, [pc, #72]	; (810684c <TIM_Base_SetConfig+0x124>)
 8106804:	4293      	cmp	r3, r2
 8106806:	d00b      	beq.n	8106820 <TIM_Base_SetConfig+0xf8>
 8106808:	687b      	ldr	r3, [r7, #4]
 810680a:	4a11      	ldr	r2, [pc, #68]	; (8106850 <TIM_Base_SetConfig+0x128>)
 810680c:	4293      	cmp	r3, r2
 810680e:	d007      	beq.n	8106820 <TIM_Base_SetConfig+0xf8>
 8106810:	687b      	ldr	r3, [r7, #4]
 8106812:	4a10      	ldr	r2, [pc, #64]	; (8106854 <TIM_Base_SetConfig+0x12c>)
 8106814:	4293      	cmp	r3, r2
 8106816:	d003      	beq.n	8106820 <TIM_Base_SetConfig+0xf8>
 8106818:	687b      	ldr	r3, [r7, #4]
 810681a:	4a0f      	ldr	r2, [pc, #60]	; (8106858 <TIM_Base_SetConfig+0x130>)
 810681c:	4293      	cmp	r3, r2
 810681e:	d103      	bne.n	8106828 <TIM_Base_SetConfig+0x100>
  {
    /* Set the Repetition Counter value */
    TIMx->RCR = Structure->RepetitionCounter;
 8106820:	683b      	ldr	r3, [r7, #0]
 8106822:	691a      	ldr	r2, [r3, #16]
 8106824:	687b      	ldr	r3, [r7, #4]
 8106826:	631a      	str	r2, [r3, #48]	; 0x30
  }

  /* Generate an update event to reload the Prescaler
     and the repetition counter (only for advanced timer) value immediately */
  TIMx->EGR = TIM_EGR_UG;
 8106828:	687b      	ldr	r3, [r7, #4]
 810682a:	2201      	movs	r2, #1
 810682c:	615a      	str	r2, [r3, #20]
}
 810682e:	bf00      	nop
 8106830:	3714      	adds	r7, #20
 8106832:	46bd      	mov	sp, r7
 8106834:	f85d 7b04 	ldr.w	r7, [sp], #4
 8106838:	4770      	bx	lr
 810683a:	bf00      	nop
 810683c:	40010000 	.word	0x40010000
 8106840:	40000400 	.word	0x40000400
 8106844:	40000800 	.word	0x40000800
 8106848:	40000c00 	.word	0x40000c00
 810684c:	40010400 	.word	0x40010400
 8106850:	40014000 	.word	0x40014000
 8106854:	40014400 	.word	0x40014400
 8106858:	40014800 	.word	0x40014800

0810685c <HAL_TIMEx_CommutCallback>:
  * @brief  Hall commutation changed callback in non-blocking mode
  * @param  htim TIM handle
  * @retval None
  */
__weak void HAL_TIMEx_CommutCallback(TIM_HandleTypeDef *htim)
{
 810685c:	b480      	push	{r7}
 810685e:	b083      	sub	sp, #12
 8106860:	af00      	add	r7, sp, #0
 8106862:	6078      	str	r0, [r7, #4]
  UNUSED(htim);

  /* NOTE : This function should not be modified, when the callback is needed,
            the HAL_TIMEx_CommutCallback could be implemented in the user file
   */
}
 8106864:	bf00      	nop
 8106866:	370c      	adds	r7, #12
 8106868:	46bd      	mov	sp, r7
 810686a:	f85d 7b04 	ldr.w	r7, [sp], #4
 810686e:	4770      	bx	lr

08106870 <HAL_TIMEx_BreakCallback>:
  * @brief  Hall Break detection callback in non-blocking mode
  * @param  htim TIM handle
  * @retval None
  */
__weak void HAL_TIMEx_BreakCallback(TIM_HandleTypeDef *htim)
{
 8106870:	b480      	push	{r7}
 8106872:	b083      	sub	sp, #12
 8106874:	af00      	add	r7, sp, #0
 8106876:	6078      	str	r0, [r7, #4]
  UNUSED(htim);

  /* NOTE : This function should not be modified, when the callback is needed,
            the HAL_TIMEx_BreakCallback could be implemented in the user file
   */
}
 8106878:	bf00      	nop
 810687a:	370c      	adds	r7, #12
 810687c:	46bd      	mov	sp, r7
 810687e:	f85d 7b04 	ldr.w	r7, [sp], #4
 8106882:	4770      	bx	lr

08106884 <HAL_TIMEx_Break2Callback>:
  * @brief  Hall Break2 detection callback in non blocking mode
  * @param  htim: TIM handle
  * @retval None
  */
__weak void HAL_TIMEx_Break2Callback(TIM_HandleTypeDef *htim)
{
 8106884:	b480      	push	{r7}
 8106886:	b083      	sub	sp, #12
 8106888:	af00      	add	r7, sp, #0
 810688a:	6078      	str	r0, [r7, #4]
  UNUSED(htim);

  /* NOTE : This function Should not be modified, when the callback is needed,
            the HAL_TIMEx_Break2Callback could be implemented in the user file
   */
}
 810688c:	bf00      	nop
 810688e:	370c      	adds	r7, #12
 8106890:	46bd      	mov	sp, r7
 8106892:	f85d 7b04 	ldr.w	r7, [sp], #4
 8106896:	4770      	bx	lr

08106898 <SystemInit>:
  *         configuration.
  * @param  None
  * @retval None
  */
void SystemInit (void)
{
 8106898:	b480      	push	{r7}
 810689a:	af00      	add	r7, sp, #0
  /* FPU settings ------------------------------------------------------------*/
  #if (__FPU_PRESENT == 1) && (__FPU_USED == 1)
    SCB->CPACR |= ((3UL << (10*2))|(3UL << (11*2)));  /* set CP10 and CP11 Full Access */
 810689c:	4b0b      	ldr	r3, [pc, #44]	; (81068cc <SystemInit+0x34>)
 810689e:	f8d3 3088 	ldr.w	r3, [r3, #136]	; 0x88
 81068a2:	4a0a      	ldr	r2, [pc, #40]	; (81068cc <SystemInit+0x34>)
 81068a4:	f443 0370 	orr.w	r3, r3, #15728640	; 0xf00000
 81068a8:	f8c2 3088 	str.w	r3, [r2, #136]	; 0x88
  #endif

    /*SEVONPEND enabled so that an interrupt coming from the CPU(n) interrupt signal is
     detectable by the CPU after a WFI/WFE instruction.*/
 SCB->SCR |= SCB_SCR_SEVONPEND_Msk;
 81068ac:	4b07      	ldr	r3, [pc, #28]	; (81068cc <SystemInit+0x34>)
 81068ae:	691b      	ldr	r3, [r3, #16]
 81068b0:	4a06      	ldr	r2, [pc, #24]	; (81068cc <SystemInit+0x34>)
 81068b2:	f043 0310 	orr.w	r3, r3, #16
 81068b6:	6113      	str	r3, [r2, #16]

  /* Configure the Vector Table location add offset address ------------------*/
#ifdef VECT_TAB_SRAM
  SCB->VTOR = D2_AXISRAM_BASE | VECT_TAB_OFFSET; /* Vector Table Relocation in Internal SRAM */
#else
  SCB->VTOR = FLASH_BANK2_BASE | VECT_TAB_OFFSET; /* Vector Table Relocation in Internal FLASH */
 81068b8:	4b04      	ldr	r3, [pc, #16]	; (81068cc <SystemInit+0x34>)
 81068ba:	f04f 6201 	mov.w	r2, #135266304	; 0x8100000
 81068be:	609a      	str	r2, [r3, #8]
#else
#error Please #define CORE_CM4 or CORE_CM7
#endif
#endif

}
 81068c0:	bf00      	nop
 81068c2:	46bd      	mov	sp, r7
 81068c4:	f85d 7b04 	ldr.w	r7, [sp], #4
 81068c8:	4770      	bx	lr
 81068ca:	bf00      	nop
 81068cc:	e000ed00 	.word	0xe000ed00

081068d0 <_Znwj>:
  * @param[in]  size_t size
  *
  * @return void *
********************************************************************************/
void * operator new(size_t size) noexcept
{
 81068d0:	b580      	push	{r7, lr}
 81068d2:	b084      	sub	sp, #16
 81068d4:	af00      	add	r7, sp, #0
 81068d6:	6078      	str	r0, [r7, #4]
	void *ptr;

	if ( IS_NOT( size ) )
 81068d8:	687b      	ldr	r3, [r7, #4]
 81068da:	2b00      	cmp	r3, #0
 81068dc:	d102      	bne.n	81068e4 <_Znwj+0x14>
	{
		++size;
 81068de:	687b      	ldr	r3, [r7, #4]
 81068e0:	3301      	adds	r3, #1
 81068e2:	607b      	str	r3, [r7, #4]
	}

	ptr = malloc(size);
 81068e4:	6878      	ldr	r0, [r7, #4]
 81068e6:	f7fe fd4b 	bl	8105380 <malloc>
 81068ea:	4603      	mov	r3, r0
 81068ec:	60fb      	str	r3, [r7, #12]

	return ptr;
 81068ee:	68fb      	ldr	r3, [r7, #12]
}
 81068f0:	4618      	mov	r0, r3
 81068f2:	3710      	adds	r7, #16
 81068f4:	46bd      	mov	sp, r7
 81068f6:	bd80      	pop	{r7, pc}

081068f8 <_ZdlPvj>:
  * @param[in]  size_t size
	*
  * @return none
********************************************************************************/
void operator delete(void* ptr, size_t size) noexcept
{
 81068f8:	b580      	push	{r7, lr}
 81068fa:	b082      	sub	sp, #8
 81068fc:	af00      	add	r7, sp, #0
 81068fe:	6078      	str	r0, [r7, #4]
 8106900:	6039      	str	r1, [r7, #0]
	free(ptr);
 8106902:	6878      	ldr	r0, [r7, #4]
 8106904:	f7fe fdca 	bl	810549c <free>
	__SUPRESS_UNUSED_VAR(size);
}
 8106908:	bf00      	nop
 810690a:	3708      	adds	r7, #8
 810690c:	46bd      	mov	sp, r7
 810690e:	bd80      	pop	{r7, pc}

08106910 <__libc_init_array>:
 8106910:	b570      	push	{r4, r5, r6, lr}
 8106912:	4d0d      	ldr	r5, [pc, #52]	; (8106948 <__libc_init_array+0x38>)
 8106914:	4c0d      	ldr	r4, [pc, #52]	; (810694c <__libc_init_array+0x3c>)
 8106916:	1b64      	subs	r4, r4, r5
 8106918:	10a4      	asrs	r4, r4, #2
 810691a:	2600      	movs	r6, #0
 810691c:	42a6      	cmp	r6, r4
 810691e:	d109      	bne.n	8106934 <__libc_init_array+0x24>
 8106920:	4d0b      	ldr	r5, [pc, #44]	; (8106950 <__libc_init_array+0x40>)
 8106922:	4c0c      	ldr	r4, [pc, #48]	; (8106954 <__libc_init_array+0x44>)
 8106924:	f000 f884 	bl	8106a30 <_init>
 8106928:	1b64      	subs	r4, r4, r5
 810692a:	10a4      	asrs	r4, r4, #2
 810692c:	2600      	movs	r6, #0
 810692e:	42a6      	cmp	r6, r4
 8106930:	d105      	bne.n	810693e <__libc_init_array+0x2e>
 8106932:	bd70      	pop	{r4, r5, r6, pc}
 8106934:	f855 3b04 	ldr.w	r3, [r5], #4
 8106938:	4798      	blx	r3
 810693a:	3601      	adds	r6, #1
 810693c:	e7ee      	b.n	810691c <__libc_init_array+0xc>
 810693e:	f855 3b04 	ldr.w	r3, [r5], #4
 8106942:	4798      	blx	r3
 8106944:	3601      	adds	r6, #1
 8106946:	e7f2      	b.n	810692e <__libc_init_array+0x1e>
 8106948:	08106bb8 	.word	0x08106bb8
 810694c:	08106bb8 	.word	0x08106bb8
 8106950:	08106bb8 	.word	0x08106bb8
 8106954:	08106bbc 	.word	0x08106bbc

08106958 <abort>:
 8106958:	b508      	push	{r3, lr}
 810695a:	2006      	movs	r0, #6
 810695c:	f000 f83a 	bl	81069d4 <raise>
 8106960:	2001      	movs	r0, #1
 8106962:	f000 f863 	bl	8106a2c <_exit>

08106966 <memcpy>:
 8106966:	440a      	add	r2, r1
 8106968:	4291      	cmp	r1, r2
 810696a:	f100 33ff 	add.w	r3, r0, #4294967295
 810696e:	d100      	bne.n	8106972 <memcpy+0xc>
 8106970:	4770      	bx	lr
 8106972:	b510      	push	{r4, lr}
 8106974:	f811 4b01 	ldrb.w	r4, [r1], #1
 8106978:	f803 4f01 	strb.w	r4, [r3, #1]!
 810697c:	4291      	cmp	r1, r2
 810697e:	d1f9      	bne.n	8106974 <memcpy+0xe>
 8106980:	bd10      	pop	{r4, pc}

08106982 <_raise_r>:
 8106982:	291f      	cmp	r1, #31
 8106984:	b538      	push	{r3, r4, r5, lr}
 8106986:	4604      	mov	r4, r0
 8106988:	460d      	mov	r5, r1
 810698a:	d904      	bls.n	8106996 <_raise_r+0x14>
 810698c:	2316      	movs	r3, #22
 810698e:	6003      	str	r3, [r0, #0]
 8106990:	f04f 30ff 	mov.w	r0, #4294967295
 8106994:	bd38      	pop	{r3, r4, r5, pc}
 8106996:	6c42      	ldr	r2, [r0, #68]	; 0x44
 8106998:	b112      	cbz	r2, 81069a0 <_raise_r+0x1e>
 810699a:	f852 3021 	ldr.w	r3, [r2, r1, lsl #2]
 810699e:	b94b      	cbnz	r3, 81069b4 <_raise_r+0x32>
 81069a0:	4620      	mov	r0, r4
 81069a2:	f000 f831 	bl	8106a08 <_getpid_r>
 81069a6:	462a      	mov	r2, r5
 81069a8:	4601      	mov	r1, r0
 81069aa:	4620      	mov	r0, r4
 81069ac:	e8bd 4038 	ldmia.w	sp!, {r3, r4, r5, lr}
 81069b0:	f000 b818 	b.w	81069e4 <_kill_r>
 81069b4:	2b01      	cmp	r3, #1
 81069b6:	d00a      	beq.n	81069ce <_raise_r+0x4c>
 81069b8:	1c59      	adds	r1, r3, #1
 81069ba:	d103      	bne.n	81069c4 <_raise_r+0x42>
 81069bc:	2316      	movs	r3, #22
 81069be:	6003      	str	r3, [r0, #0]
 81069c0:	2001      	movs	r0, #1
 81069c2:	e7e7      	b.n	8106994 <_raise_r+0x12>
 81069c4:	2400      	movs	r4, #0
 81069c6:	f842 4025 	str.w	r4, [r2, r5, lsl #2]
 81069ca:	4628      	mov	r0, r5
 81069cc:	4798      	blx	r3
 81069ce:	2000      	movs	r0, #0
 81069d0:	e7e0      	b.n	8106994 <_raise_r+0x12>
	...

081069d4 <raise>:
 81069d4:	4b02      	ldr	r3, [pc, #8]	; (81069e0 <raise+0xc>)
 81069d6:	4601      	mov	r1, r0
 81069d8:	6818      	ldr	r0, [r3, #0]
 81069da:	f7ff bfd2 	b.w	8106982 <_raise_r>
 81069de:	bf00      	nop
 81069e0:	10001810 	.word	0x10001810

081069e4 <_kill_r>:
 81069e4:	b538      	push	{r3, r4, r5, lr}
 81069e6:	4d07      	ldr	r5, [pc, #28]	; (8106a04 <_kill_r+0x20>)
 81069e8:	2300      	movs	r3, #0
 81069ea:	4604      	mov	r4, r0
 81069ec:	4608      	mov	r0, r1
 81069ee:	4611      	mov	r1, r2
 81069f0:	602b      	str	r3, [r5, #0]
 81069f2:	f000 f813 	bl	8106a1c <_kill>
 81069f6:	1c43      	adds	r3, r0, #1
 81069f8:	d102      	bne.n	8106a00 <_kill_r+0x1c>
 81069fa:	682b      	ldr	r3, [r5, #0]
 81069fc:	b103      	cbz	r3, 8106a00 <_kill_r+0x1c>
 81069fe:	6023      	str	r3, [r4, #0]
 8106a00:	bd38      	pop	{r3, r4, r5, pc}
 8106a02:	bf00      	nop
 8106a04:	100018e0 	.word	0x100018e0

08106a08 <_getpid_r>:
 8106a08:	f000 b800 	b.w	8106a0c <_getpid>

08106a0c <_getpid>:
 8106a0c:	4b02      	ldr	r3, [pc, #8]	; (8106a18 <_getpid+0xc>)
 8106a0e:	2258      	movs	r2, #88	; 0x58
 8106a10:	601a      	str	r2, [r3, #0]
 8106a12:	f04f 30ff 	mov.w	r0, #4294967295
 8106a16:	4770      	bx	lr
 8106a18:	100018e0 	.word	0x100018e0

08106a1c <_kill>:
 8106a1c:	4b02      	ldr	r3, [pc, #8]	; (8106a28 <_kill+0xc>)
 8106a1e:	2258      	movs	r2, #88	; 0x58
 8106a20:	601a      	str	r2, [r3, #0]
 8106a22:	f04f 30ff 	mov.w	r0, #4294967295
 8106a26:	4770      	bx	lr
 8106a28:	100018e0 	.word	0x100018e0

08106a2c <_exit>:
 8106a2c:	e7fe      	b.n	8106a2c <_exit>
 8106a2e:	bf00      	nop

08106a30 <_init>:
 8106a30:	b5f8      	push	{r3, r4, r5, r6, r7, lr}
 8106a32:	bf00      	nop
 8106a34:	bcf8      	pop	{r3, r4, r5, r6, r7}
 8106a36:	bc08      	pop	{r3}
 8106a38:	469e      	mov	lr, r3
 8106a3a:	4770      	bx	lr

08106a3c <_fini>:
 8106a3c:	b5f8      	push	{r3, r4, r5, r6, r7, lr}
 8106a3e:	bf00      	nop
 8106a40:	bcf8      	pop	{r3, r4, r5, r6, r7}
 8106a42:	bc08      	pop	{r3}
 8106a44:	469e      	mov	lr, r3
 8106a46:	4770      	bx	lr
